ARM GAS  C:\Users\Snufkin\AppData\Local\Temp\ccsyaIoC.s 			page 1


   1              		.cpu cortex-m0
   2              		.fpu softvfp
   3              		.eabi_attribute 20, 1
   4              		.eabi_attribute 21, 1
   5              		.eabi_attribute 23, 3
   6              		.eabi_attribute 24, 1
   7              		.eabi_attribute 25, 1
   8              		.eabi_attribute 26, 1
   9              		.eabi_attribute 30, 6
  10              		.eabi_attribute 34, 0
  11              		.eabi_attribute 18, 4
  12              		.code	16
  13              		.file	"DSP_Class.c"
  14              		.text
  15              	.Ltext0:
  16              		.cfi_sections	.debug_frame
  17              		.comm	tempArray,40,4
  18              		.comm	tempArrayPtr,4,4
  19              		.comm	humArray,40,4
  20              		.comm	humArrayPtr,4,4
  21              		.comm	soilHumArray,120,4
  22              		.comm	soilHumPtr,24,4
  23              		.comm	lightArray,40,4
  24              		.comm	lightArrayPtr,4,4
  25              		.comm	temp,1,1
  26              		.comm	hum,1,1
  27              		.comm	soilHum,6,4
  28              		.comm	light,1,1
  29              		.section	.text.initDSP,"ax",%progbits
  30              		.align	2
  31              		.global	initDSP
  32              		.code	16
  33              		.thumb_func
  34              		.type	initDSP, %function
  35              	initDSP:
  36              	.LFB33:
  37              		.file 1 ".\\DSP_Class.c"
   1:.\DSP_Class.c **** /* ========================================
   2:.\DSP_Class.c ****  * 
   3:.\DSP_Class.c ****  * AutoGreen - PSoC_Master
   4:.\DSP_Class.c ****  * DSP_Class.c
   5:.\DSP_Class.c ****  * Digital signal processing
   6:.\DSP_Class.c ****  * PRJ3 - GRP9
   7:.\DSP_Class.c ****  * 2015-04-15
   8:.\DSP_Class.c ****  *
   9:.\DSP_Class.c ****  * ========================================
  10:.\DSP_Class.c **** */
  11:.\DSP_Class.c **** 
  12:.\DSP_Class.c **** // Include files
  13:.\DSP_Class.c **** #include "DSP_Class.h"
  14:.\DSP_Class.c **** 
  15:.\DSP_Class.c **** // Private data members
  16:.\DSP_Class.c **** int32 tempArray[ARRAYSIZE];
  17:.\DSP_Class.c **** int32* tempArrayPtr;
  18:.\DSP_Class.c **** int32 humArray[ARRAYSIZE];
  19:.\DSP_Class.c **** int32* humArrayPtr;
  20:.\DSP_Class.c **** int16 soilHumArray[NBR_OF_SOILHUM_SENSORS][ARRAYSIZE];
ARM GAS  C:\Users\Snufkin\AppData\Local\Temp\ccsyaIoC.s 			page 2


  21:.\DSP_Class.c **** int16* soilHumPtr[NBR_OF_SOILHUM_SENSORS];
  22:.\DSP_Class.c **** int32 lightArray[ARRAYSIZE];
  23:.\DSP_Class.c **** int32* lightArrayPtr;
  24:.\DSP_Class.c **** uint8 temp, hum, soilHum[NBR_OF_SOILHUM_SENSORS], light;     // Used for storing the newest, value 
  25:.\DSP_Class.c **** 
  26:.\DSP_Class.c **** // Private prototypes
  27:.\DSP_Class.c **** void avgTemp(void);
  28:.\DSP_Class.c **** void avgHum(void);
  29:.\DSP_Class.c **** void avgSoilHum(uint8 index);
  30:.\DSP_Class.c **** void avgLight(void);
  31:.\DSP_Class.c **** 
  32:.\DSP_Class.c **** // Init: All datamebers are initialized with -1, meaning they are empty
  33:.\DSP_Class.c **** void initDSP(void){
  38              		.loc 1 33 0
  39              		.cfi_startproc
  40 0000 80B5     		push	{r7, lr}
  41              		.cfi_def_cfa_offset 8
  42              		.cfi_offset 7, -8
  43              		.cfi_offset 14, -4
  44 0002 82B0     		sub	sp, sp, #8
  45              		.cfi_def_cfa_offset 16
  46 0004 00AF     		add	r7, sp, #0
  47              		.cfi_def_cfa_register 7
  48              	.LBB2:
  34:.\DSP_Class.c ****     {
  35:.\DSP_Class.c ****         uint8 i;
  36:.\DSP_Class.c ****         for(i = 0 ; i<ARRAYSIZE ; i++){
  49              		.loc 1 36 0
  50 0006 FB1D     		add	r3, r7, #7
  51 0008 0022     		mov	r2, #0
  52 000a 1A70     		strb	r2, [r3]
  53 000c 34E0     		b	.L2
  54              	.L5:
  37:.\DSP_Class.c ****             tempArray[i] = EMPTY;
  55              		.loc 1 37 0
  56 000e FB1D     		add	r3, r7, #7
  57 0010 1A78     		ldrb	r2, [r3]
  58 0012 354B     		ldr	r3, .L8
  59 0014 9200     		lsl	r2, r2, #2
  60 0016 0121     		mov	r1, #1
  61 0018 4942     		neg	r1, r1
  62 001a D150     		str	r1, [r2, r3]
  38:.\DSP_Class.c ****             humArray[i] = EMPTY;
  63              		.loc 1 38 0
  64 001c FB1D     		add	r3, r7, #7
  65 001e 1A78     		ldrb	r2, [r3]
  66 0020 324B     		ldr	r3, .L8+4
  67 0022 9200     		lsl	r2, r2, #2
  68 0024 0121     		mov	r1, #1
  69 0026 4942     		neg	r1, r1
  70 0028 D150     		str	r1, [r2, r3]
  71              	.LBB3:
  39:.\DSP_Class.c ****             {
  40:.\DSP_Class.c ****                 uint8 j;
  41:.\DSP_Class.c ****                 for(j = 0 ; j<NBR_OF_SOILHUM_SENSORS ; j++){
  72              		.loc 1 41 0
  73 002a BB1D     		add	r3, r7, #6
ARM GAS  C:\Users\Snufkin\AppData\Local\Temp\ccsyaIoC.s 			page 3


  74 002c 0022     		mov	r2, #0
  75 002e 1A70     		strb	r2, [r3]
  76 0030 12E0     		b	.L3
  77              	.L4:
  42:.\DSP_Class.c ****                     soilHumArray[j][i] = EMPTY;
  78              		.loc 1 42 0 discriminator 2
  79 0032 BB1D     		add	r3, r7, #6
  80 0034 1A78     		ldrb	r2, [r3]
  81 0036 FB1D     		add	r3, r7, #7
  82 0038 1878     		ldrb	r0, [r3]
  83 003a 2D49     		ldr	r1, .L8+8
  84 003c 131C     		mov	r3, r2
  85 003e 9B00     		lsl	r3, r3, #2
  86 0040 9B18     		add	r3, r3, r2
  87 0042 5B00     		lsl	r3, r3, #1
  88 0044 1B18     		add	r3, r3, r0
  89 0046 5B00     		lsl	r3, r3, #1
  90 0048 0122     		mov	r2, #1
  91 004a 5242     		neg	r2, r2
  92 004c 5A52     		strh	r2, [r3, r1]
  41:.\DSP_Class.c ****                 for(j = 0 ; j<NBR_OF_SOILHUM_SENSORS ; j++){
  93              		.loc 1 41 0 discriminator 2
  94 004e BB1D     		add	r3, r7, #6
  95 0050 1A78     		ldrb	r2, [r3]
  96 0052 BB1D     		add	r3, r7, #6
  97 0054 0132     		add	r2, r2, #1
  98 0056 1A70     		strb	r2, [r3]
  99              	.L3:
  41:.\DSP_Class.c ****                 for(j = 0 ; j<NBR_OF_SOILHUM_SENSORS ; j++){
 100              		.loc 1 41 0 is_stmt 0 discriminator 1
 101 0058 BB1D     		add	r3, r7, #6
 102 005a 1B78     		ldrb	r3, [r3]
 103 005c 052B     		cmp	r3, #5
 104 005e E8D9     		bls	.L4
 105              	.LBE3:
  43:.\DSP_Class.c ****                 }
  44:.\DSP_Class.c ****             }
  45:.\DSP_Class.c ****             lightArray[i] = EMPTY;
 106              		.loc 1 45 0 is_stmt 1
 107 0060 FB1D     		add	r3, r7, #7
 108 0062 1A78     		ldrb	r2, [r3]
 109 0064 234B     		ldr	r3, .L8+12
 110 0066 9200     		lsl	r2, r2, #2
 111 0068 0121     		mov	r1, #1
 112 006a 4942     		neg	r1, r1
 113 006c D150     		str	r1, [r2, r3]
  36:.\DSP_Class.c ****         for(i = 0 ; i<ARRAYSIZE ; i++){
 114              		.loc 1 36 0
 115 006e FB1D     		add	r3, r7, #7
 116 0070 1A78     		ldrb	r2, [r3]
 117 0072 FB1D     		add	r3, r7, #7
 118 0074 0132     		add	r2, r2, #1
 119 0076 1A70     		strb	r2, [r3]
 120              	.L2:
  36:.\DSP_Class.c ****         for(i = 0 ; i<ARRAYSIZE ; i++){
 121              		.loc 1 36 0 is_stmt 0 discriminator 1
 122 0078 FB1D     		add	r3, r7, #7
ARM GAS  C:\Users\Snufkin\AppData\Local\Temp\ccsyaIoC.s 			page 4


 123 007a 1B78     		ldrb	r3, [r3]
 124 007c 092B     		cmp	r3, #9
 125 007e C6D9     		bls	.L5
 126              	.LBE2:
  46:.\DSP_Class.c ****             
  47:.\DSP_Class.c ****         }
  48:.\DSP_Class.c ****     }
  49:.\DSP_Class.c ****     tempArrayPtr = & tempArray[0];
 127              		.loc 1 49 0 is_stmt 1
 128 0080 1D4B     		ldr	r3, .L8+16
 129 0082 194A     		ldr	r2, .L8
 130 0084 1A60     		str	r2, [r3]
  50:.\DSP_Class.c ****     humArrayPtr = & humArray[0];
 131              		.loc 1 50 0
 132 0086 1D4B     		ldr	r3, .L8+20
 133 0088 184A     		ldr	r2, .L8+4
 134 008a 1A60     		str	r2, [r3]
 135              	.LBB4:
  51:.\DSP_Class.c ****     {
  52:.\DSP_Class.c ****         uint8 k;
  53:.\DSP_Class.c ****         for(k = 0 ; k<NBR_OF_SOILHUM_SENSORS ; k++){
 136              		.loc 1 53 0
 137 008c 7B1D     		add	r3, r7, #5
 138 008e 0022     		mov	r2, #0
 139 0090 1A70     		strb	r2, [r3]
 140 0092 16E0     		b	.L6
 141              	.L7:
  54:.\DSP_Class.c ****             soilHumPtr[k] = & soilHumArray[k][0];
 142              		.loc 1 54 0 discriminator 2
 143 0094 7B1D     		add	r3, r7, #5
 144 0096 1878     		ldrb	r0, [r3]
 145 0098 7B1D     		add	r3, r7, #5
 146 009a 1A78     		ldrb	r2, [r3]
 147 009c 131C     		mov	r3, r2
 148 009e 9B00     		lsl	r3, r3, #2
 149 00a0 9B18     		add	r3, r3, r2
 150 00a2 9B00     		lsl	r3, r3, #2
 151 00a4 124A     		ldr	r2, .L8+8
 152 00a6 9918     		add	r1, r3, r2
 153 00a8 154B     		ldr	r3, .L8+24
 154 00aa 8200     		lsl	r2, r0, #2
 155 00ac D150     		str	r1, [r2, r3]
  55:.\DSP_Class.c ****             soilHum[k] = 0; 
 156              		.loc 1 55 0 discriminator 2
 157 00ae 7B1D     		add	r3, r7, #5
 158 00b0 1B78     		ldrb	r3, [r3]
 159 00b2 144A     		ldr	r2, .L8+28
 160 00b4 0021     		mov	r1, #0
 161 00b6 D154     		strb	r1, [r2, r3]
  53:.\DSP_Class.c ****         for(k = 0 ; k<NBR_OF_SOILHUM_SENSORS ; k++){
 162              		.loc 1 53 0 discriminator 2
 163 00b8 7B1D     		add	r3, r7, #5
 164 00ba 1A78     		ldrb	r2, [r3]
 165 00bc 7B1D     		add	r3, r7, #5
 166 00be 0132     		add	r2, r2, #1
 167 00c0 1A70     		strb	r2, [r3]
 168              	.L6:
ARM GAS  C:\Users\Snufkin\AppData\Local\Temp\ccsyaIoC.s 			page 5


  53:.\DSP_Class.c ****         for(k = 0 ; k<NBR_OF_SOILHUM_SENSORS ; k++){
 169              		.loc 1 53 0 is_stmt 0 discriminator 1
 170 00c2 7B1D     		add	r3, r7, #5
 171 00c4 1B78     		ldrb	r3, [r3]
 172 00c6 052B     		cmp	r3, #5
 173 00c8 E4D9     		bls	.L7
 174              	.LBE4:
  56:.\DSP_Class.c ****             }
  57:.\DSP_Class.c ****     }
  58:.\DSP_Class.c ****     lightArrayPtr = & lightArray[0];
 175              		.loc 1 58 0 is_stmt 1
 176 00ca 0F4B     		ldr	r3, .L8+32
 177 00cc 094A     		ldr	r2, .L8+12
 178 00ce 1A60     		str	r2, [r3]
  59:.\DSP_Class.c ****     temp = 0;
 179              		.loc 1 59 0
 180 00d0 0E4B     		ldr	r3, .L8+36
 181 00d2 0022     		mov	r2, #0
 182 00d4 1A70     		strb	r2, [r3]
  60:.\DSP_Class.c ****     hum = 0;
 183              		.loc 1 60 0
 184 00d6 0E4B     		ldr	r3, .L8+40
 185 00d8 0022     		mov	r2, #0
 186 00da 1A70     		strb	r2, [r3]
  61:.\DSP_Class.c ****     light = 0;
 187              		.loc 1 61 0
 188 00dc 0D4B     		ldr	r3, .L8+44
 189 00de 0022     		mov	r2, #0
 190 00e0 1A70     		strb	r2, [r3]
  62:.\DSP_Class.c **** }
 191              		.loc 1 62 0
 192 00e2 BD46     		mov	sp, r7
 193 00e4 02B0     		add	sp, sp, #8
 194              		@ sp needed
 195 00e6 80BD     		pop	{r7, pc}
 196              	.L9:
 197              		.align	2
 198              	.L8:
 199 00e8 00000000 		.word	tempArray
 200 00ec 00000000 		.word	humArray
 201 00f0 00000000 		.word	soilHumArray
 202 00f4 00000000 		.word	lightArray
 203 00f8 00000000 		.word	tempArrayPtr
 204 00fc 00000000 		.word	humArrayPtr
 205 0100 00000000 		.word	soilHumPtr
 206 0104 00000000 		.word	soilHum
 207 0108 00000000 		.word	lightArrayPtr
 208 010c 00000000 		.word	temp
 209 0110 00000000 		.word	hum
 210 0114 00000000 		.word	light
 211              		.cfi_endproc
 212              	.LFE33:
 213              		.size	initDSP, .-initDSP
 214              		.section	.text.getTemp_DSP,"ax",%progbits
 215              		.align	2
 216              		.global	getTemp_DSP
 217              		.code	16
ARM GAS  C:\Users\Snufkin\AppData\Local\Temp\ccsyaIoC.s 			page 6


 218              		.thumb_func
 219              		.type	getTemp_DSP, %function
 220              	getTemp_DSP:
 221              	.LFB34:
  63:.\DSP_Class.c **** 
  64:.\DSP_Class.c **** uint8 getTemp_DSP(void){
 222              		.loc 1 64 0
 223              		.cfi_startproc
 224 0000 80B5     		push	{r7, lr}
 225              		.cfi_def_cfa_offset 8
 226              		.cfi_offset 7, -8
 227              		.cfi_offset 14, -4
 228 0002 00AF     		add	r7, sp, #0
 229              		.cfi_def_cfa_register 7
  65:.\DSP_Class.c ****     return temp;
 230              		.loc 1 65 0
 231 0004 024B     		ldr	r3, .L12
 232 0006 1B78     		ldrb	r3, [r3]
  66:.\DSP_Class.c **** }
 233              		.loc 1 66 0
 234 0008 181C     		mov	r0, r3
 235 000a BD46     		mov	sp, r7
 236              		@ sp needed
 237 000c 80BD     		pop	{r7, pc}
 238              	.L13:
 239 000e C046     		.align	2
 240              	.L12:
 241 0010 00000000 		.word	temp
 242              		.cfi_endproc
 243              	.LFE34:
 244              		.size	getTemp_DSP, .-getTemp_DSP
 245              		.section	.text.getHum_DSP,"ax",%progbits
 246              		.align	2
 247              		.global	getHum_DSP
 248              		.code	16
 249              		.thumb_func
 250              		.type	getHum_DSP, %function
 251              	getHum_DSP:
 252              	.LFB35:
  67:.\DSP_Class.c **** 
  68:.\DSP_Class.c **** uint8 getHum_DSP(void){
 253              		.loc 1 68 0
 254              		.cfi_startproc
 255 0000 80B5     		push	{r7, lr}
 256              		.cfi_def_cfa_offset 8
 257              		.cfi_offset 7, -8
 258              		.cfi_offset 14, -4
 259 0002 00AF     		add	r7, sp, #0
 260              		.cfi_def_cfa_register 7
  69:.\DSP_Class.c ****     return hum;
 261              		.loc 1 69 0
 262 0004 024B     		ldr	r3, .L16
 263 0006 1B78     		ldrb	r3, [r3]
  70:.\DSP_Class.c **** }
 264              		.loc 1 70 0
 265 0008 181C     		mov	r0, r3
 266 000a BD46     		mov	sp, r7
ARM GAS  C:\Users\Snufkin\AppData\Local\Temp\ccsyaIoC.s 			page 7


 267              		@ sp needed
 268 000c 80BD     		pop	{r7, pc}
 269              	.L17:
 270 000e C046     		.align	2
 271              	.L16:
 272 0010 00000000 		.word	hum
 273              		.cfi_endproc
 274              	.LFE35:
 275              		.size	getHum_DSP, .-getHum_DSP
 276              		.section	.text.getSoilHum_DSP,"ax",%progbits
 277              		.align	2
 278              		.global	getSoilHum_DSP
 279              		.code	16
 280              		.thumb_func
 281              		.type	getSoilHum_DSP, %function
 282              	getSoilHum_DSP:
 283              	.LFB36:
  71:.\DSP_Class.c **** 
  72:.\DSP_Class.c **** uint8 getSoilHum_DSP(uint8 index){
 284              		.loc 1 72 0
 285              		.cfi_startproc
 286 0000 80B5     		push	{r7, lr}
 287              		.cfi_def_cfa_offset 8
 288              		.cfi_offset 7, -8
 289              		.cfi_offset 14, -4
 290 0002 82B0     		sub	sp, sp, #8
 291              		.cfi_def_cfa_offset 16
 292 0004 00AF     		add	r7, sp, #0
 293              		.cfi_def_cfa_register 7
 294 0006 021C     		mov	r2, r0
 295 0008 FB1D     		add	r3, r7, #7
 296 000a 1A70     		strb	r2, [r3]
  73:.\DSP_Class.c ****     return soilHum[index];
 297              		.loc 1 73 0
 298 000c FB1D     		add	r3, r7, #7
 299 000e 1B78     		ldrb	r3, [r3]
 300 0010 024A     		ldr	r2, .L20
 301 0012 D35C     		ldrb	r3, [r2, r3]
  74:.\DSP_Class.c **** }
 302              		.loc 1 74 0
 303 0014 181C     		mov	r0, r3
 304 0016 BD46     		mov	sp, r7
 305 0018 02B0     		add	sp, sp, #8
 306              		@ sp needed
 307 001a 80BD     		pop	{r7, pc}
 308              	.L21:
 309              		.align	2
 310              	.L20:
 311 001c 00000000 		.word	soilHum
 312              		.cfi_endproc
 313              	.LFE36:
 314              		.size	getSoilHum_DSP, .-getSoilHum_DSP
 315              		.section	.text.getLight_DSP,"ax",%progbits
 316              		.align	2
 317              		.global	getLight_DSP
 318              		.code	16
 319              		.thumb_func
ARM GAS  C:\Users\Snufkin\AppData\Local\Temp\ccsyaIoC.s 			page 8


 320              		.type	getLight_DSP, %function
 321              	getLight_DSP:
 322              	.LFB37:
  75:.\DSP_Class.c **** 
  76:.\DSP_Class.c **** uint8 getLight_DSP(void){
 323              		.loc 1 76 0
 324              		.cfi_startproc
 325 0000 80B5     		push	{r7, lr}
 326              		.cfi_def_cfa_offset 8
 327              		.cfi_offset 7, -8
 328              		.cfi_offset 14, -4
 329 0002 00AF     		add	r7, sp, #0
 330              		.cfi_def_cfa_register 7
  77:.\DSP_Class.c ****     return light;
 331              		.loc 1 77 0
 332 0004 024B     		ldr	r3, .L24
 333 0006 1B78     		ldrb	r3, [r3]
  78:.\DSP_Class.c **** }
 334              		.loc 1 78 0
 335 0008 181C     		mov	r0, r3
 336 000a BD46     		mov	sp, r7
 337              		@ sp needed
 338 000c 80BD     		pop	{r7, pc}
 339              	.L25:
 340 000e C046     		.align	2
 341              	.L24:
 342 0010 00000000 		.word	light
 343              		.cfi_endproc
 344              	.LFE37:
 345              		.size	getLight_DSP, .-getLight_DSP
 346              		.global	__aeabi_ldivmod
 347              		.global	__aeabi_l2f
 348              		.global	__aeabi_fdiv
 349              		.global	__aeabi_fmul
 350              		.global	__aeabi_fsub
 351              		.global	__aeabi_fcmplt
 352              		.global	__aeabi_fcmpgt
 353              		.global	__aeabi_fadd
 354              		.global	__aeabi_f2uiz
 355              		.section	.text.avgTemp,"ax",%progbits
 356              		.align	2
 357              		.global	avgTemp
 358              		.code	16
 359              		.thumb_func
 360              		.type	avgTemp, %function
 361              	avgTemp:
 362              	.LFB38:
  79:.\DSP_Class.c **** 
  80:.\DSP_Class.c **** void avgTemp(void){
 363              		.loc 1 80 0
 364              		.cfi_startproc
 365 0000 F0B5     		push	{r4, r5, r6, r7, lr}
 366              		.cfi_def_cfa_offset 20
 367              		.cfi_offset 4, -20
 368              		.cfi_offset 5, -16
 369              		.cfi_offset 6, -12
 370              		.cfi_offset 7, -8
ARM GAS  C:\Users\Snufkin\AppData\Local\Temp\ccsyaIoC.s 			page 9


 371              		.cfi_offset 14, -4
 372 0002 89B0     		sub	sp, sp, #36
 373              		.cfi_def_cfa_offset 56
 374 0004 00AF     		add	r7, sp, #0
 375              		.cfi_def_cfa_register 7
  81:.\DSP_Class.c ****     uint8 skip = 0;
 376              		.loc 1 81 0
 377 0006 381C     		mov	r0, r7
 378 0008 1F30     		add	r0, r0, #31
 379 000a 0025     		mov	r5, #0
 380 000c 0570     		strb	r5, [r0]
  82:.\DSP_Class.c ****     int64 total = 0;
 381              		.loc 1 82 0
 382 000e 0025     		mov	r5, #0
 383 0010 0026     		mov	r6, #0
 384 0012 3D61     		str	r5, [r7, #16]
 385 0014 7E61     		str	r6, [r7, #20]
 386              	.LBB5:
  83:.\DSP_Class.c ****     {
  84:.\DSP_Class.c ****         uint8 i;
  85:.\DSP_Class.c ****         for(i = 0 ; i<ARRAYSIZE ; i++){
 387              		.loc 1 85 0
 388 0016 381C     		mov	r0, r7
 389 0018 0F30     		add	r0, r0, #15
 390 001a 0025     		mov	r5, #0
 391 001c 0570     		strb	r5, [r0]
 392 001e 25E0     		b	.L27
 393              	.L30:
  86:.\DSP_Class.c ****             if(tempArray[i]>=0){
 394              		.loc 1 86 0
 395 0020 381C     		mov	r0, r7
 396 0022 0F30     		add	r0, r0, #15
 397 0024 0578     		ldrb	r5, [r0]
 398 0026 4248     		ldr	r0, .L40
 399 0028 AD00     		lsl	r5, r5, #2
 400 002a 2858     		ldr	r0, [r5, r0]
 401 002c 0028     		cmp	r0, #0
 402 002e 0FDB     		blt	.L28
  87:.\DSP_Class.c ****                 total += tempArray[i];
 403              		.loc 1 87 0
 404 0030 381C     		mov	r0, r7
 405 0032 0F30     		add	r0, r0, #15
 406 0034 0578     		ldrb	r5, [r0]
 407 0036 3E48     		ldr	r0, .L40
 408 0038 AD00     		lsl	r5, r5, #2
 409 003a 2858     		ldr	r0, [r5, r0]
 410 003c 011C     		mov	r1, r0
 411 003e C017     		asr	r0, r0, #31
 412 0040 021C     		mov	r2, r0
 413 0042 3D69     		ldr	r5, [r7, #16]
 414 0044 7E69     		ldr	r6, [r7, #20]
 415 0046 6D18     		add	r5, r5, r1
 416 0048 5641     		adc	r6, r6, r2
 417 004a 3D61     		str	r5, [r7, #16]
 418 004c 7E61     		str	r6, [r7, #20]
 419 004e 06E0     		b	.L29
 420              	.L28:
ARM GAS  C:\Users\Snufkin\AppData\Local\Temp\ccsyaIoC.s 			page 10


  88:.\DSP_Class.c ****             }
  89:.\DSP_Class.c ****             else{
  90:.\DSP_Class.c ****                 skip++;
 421              		.loc 1 90 0
 422 0050 381C     		mov	r0, r7
 423 0052 1F30     		add	r0, r0, #31
 424 0054 0578     		ldrb	r5, [r0]
 425 0056 381C     		mov	r0, r7
 426 0058 1F30     		add	r0, r0, #31
 427 005a 0135     		add	r5, r5, #1
 428 005c 0570     		strb	r5, [r0]
 429              	.L29:
  85:.\DSP_Class.c ****         for(i = 0 ; i<ARRAYSIZE ; i++){
 430              		.loc 1 85 0
 431 005e 381C     		mov	r0, r7
 432 0060 0F30     		add	r0, r0, #15
 433 0062 0578     		ldrb	r5, [r0]
 434 0064 381C     		mov	r0, r7
 435 0066 0F30     		add	r0, r0, #15
 436 0068 0135     		add	r5, r5, #1
 437 006a 0570     		strb	r5, [r0]
 438              	.L27:
  85:.\DSP_Class.c ****         for(i = 0 ; i<ARRAYSIZE ; i++){
 439              		.loc 1 85 0 is_stmt 0 discriminator 1
 440 006c 381C     		mov	r0, r7
 441 006e 0F30     		add	r0, r0, #15
 442 0070 0078     		ldrb	r0, [r0]
 443 0072 0928     		cmp	r0, #9
 444 0074 D4D9     		bls	.L30
 445              	.LBE5:
  91:.\DSP_Class.c ****             }
  92:.\DSP_Class.c ****         }
  93:.\DSP_Class.c ****     }
  94:.\DSP_Class.c ****     // Makes sure that enough datapoints are pressent
  95:.\DSP_Class.c ****     if(ARRAYSIZE-skip>=NMR_OF_VALID_DATAPOINTS_NEEDED){    
 446              		.loc 1 95 0 is_stmt 1
 447 0076 3A1C     		mov	r2, r7
 448 0078 1F32     		add	r2, r2, #31
 449 007a 1278     		ldrb	r2, [r2]
 450 007c 0A21     		mov	r1, #10
 451 007e 8A1A     		sub	r2, r1, r2
 452 0080 092A     		cmp	r2, #9
 453 0082 4FDD     		ble	.L31
 454              	.LBB6:
  96:.\DSP_Class.c ****         float avg = total/(ARRAYSIZE-skip);                         // Calculate the average value
 455              		.loc 1 96 0
 456 0084 3A1C     		mov	r2, r7
 457 0086 1F32     		add	r2, r2, #31
 458 0088 1278     		ldrb	r2, [r2]
 459 008a 0A21     		mov	r1, #10
 460 008c 8A1A     		sub	r2, r1, r2
 461 008e 131C     		mov	r3, r2
 462 0090 D217     		asr	r2, r2, #31
 463 0092 141C     		mov	r4, r2
 464 0094 3869     		ldr	r0, [r7, #16]
 465 0096 7969     		ldr	r1, [r7, #20]
 466 0098 1A1C     		mov	r2, r3
ARM GAS  C:\Users\Snufkin\AppData\Local\Temp\ccsyaIoC.s 			page 11


 467 009a 231C     		mov	r3, r4
 468 009c FFF7FEFF 		bl	__aeabi_ldivmod
 469 00a0 031C     		mov	r3, r0
 470 00a2 0C1C     		mov	r4, r1
 471 00a4 181C     		mov	r0, r3
 472 00a6 211C     		mov	r1, r4
 473 00a8 FFF7FEFF 		bl	__aeabi_l2f
 474 00ac 031C     		add	r3, r0, #0
 475 00ae 7B60     		str	r3, [r7, #4]
  97:.\DSP_Class.c ****         float tempInDegreesC = (((avg)/((16380)-2))*165)-40;        // Conversion formula from data
 476              		.loc 1 97 0
 477 00b0 7868     		ldr	r0, [r7, #4]
 478 00b2 2049     		ldr	r1, .L40+4
 479 00b4 FFF7FEFF 		bl	__aeabi_fdiv
 480 00b8 031C     		add	r3, r0, #0
 481 00ba 181C     		add	r0, r3, #0
 482 00bc 1E49     		ldr	r1, .L40+8
 483 00be FFF7FEFF 		bl	__aeabi_fmul
 484 00c2 031C     		add	r3, r0, #0
 485 00c4 181C     		add	r0, r3, #0
 486 00c6 1D49     		ldr	r1, .L40+12
 487 00c8 FFF7FEFF 		bl	__aeabi_fsub
 488 00cc 031C     		add	r3, r0, #0
 489 00ce BB60     		str	r3, [r7, #8]
  98:.\DSP_Class.c **** 
  99:.\DSP_Class.c ****         // tempInDegreesC is limited to -20 and +80 degrees C
 100:.\DSP_Class.c ****         if ( -19.5 > tempInDegreesC){
 490              		.loc 1 100 0
 491 00d0 B868     		ldr	r0, [r7, #8]
 492 00d2 1B49     		ldr	r1, .L40+16
 493 00d4 FFF7FEFF 		bl	__aeabi_fcmplt
 494 00d8 031C     		mov	r3, r0
 495 00da 002B     		cmp	r3, #0
 496 00dc 02D0     		beq	.L39
 101:.\DSP_Class.c ****             tempInDegreesC = -19.5;
 497              		.loc 1 101 0
 498 00de 184B     		ldr	r3, .L40+16
 499 00e0 BB60     		str	r3, [r7, #8]
 500 00e2 08E0     		b	.L34
 501              	.L39:
 102:.\DSP_Class.c ****         }
 103:.\DSP_Class.c ****         else if(tempInDegreesC > 80){
 502              		.loc 1 103 0
 503 00e4 B868     		ldr	r0, [r7, #8]
 504 00e6 1749     		ldr	r1, .L40+20
 505 00e8 FFF7FEFF 		bl	__aeabi_fcmpgt
 506 00ec 031C     		mov	r3, r0
 507 00ee 002B     		cmp	r3, #0
 508 00f0 01D0     		beq	.L34
 104:.\DSP_Class.c ****             tempInDegreesC = 80;
 509              		.loc 1 104 0
 510 00f2 144B     		ldr	r3, .L40+20
 511 00f4 BB60     		str	r3, [r7, #8]
 512              	.L34:
 105:.\DSP_Class.c ****         }
 106:.\DSP_Class.c **** 
 107:.\DSP_Class.c ****         temp = (tempInDegreesC+20)*2;       // Conversion to UART protocol
ARM GAS  C:\Users\Snufkin\AppData\Local\Temp\ccsyaIoC.s 			page 12


 513              		.loc 1 107 0 discriminator 1
 514 00f6 B868     		ldr	r0, [r7, #8]
 515 00f8 1349     		ldr	r1, .L40+24
 516 00fa FFF7FEFF 		bl	__aeabi_fadd
 517 00fe 031C     		add	r3, r0, #0
 518 0100 181C     		add	r0, r3, #0
 519 0102 191C     		add	r1, r3, #0
 520 0104 FFF7FEFF 		bl	__aeabi_fadd
 521 0108 031C     		add	r3, r0, #0
 522 010a 181C     		add	r0, r3, #0
 523 010c FFF7FEFF 		bl	__aeabi_f2uiz
 524 0110 031C     		mov	r3, r0
 525 0112 DAB2     		uxtb	r2, r3
 526 0114 0D4B     		ldr	r3, .L40+28
 527 0116 1A70     		strb	r2, [r3]
 108:.\DSP_Class.c ****         UART_UartPutChar(temp);
 528              		.loc 1 108 0 discriminator 1
 529 0118 0C4B     		ldr	r3, .L40+28
 530 011a 1B78     		ldrb	r3, [r3]
 531 011c 181C     		mov	r0, r3
 532 011e FFF7FEFF 		bl	UART_SpiUartWriteTxData
 533              	.LBE6:
 534 0122 02E0     		b	.L26
 535              	.L31:
 109:.\DSP_Class.c ****     }
 110:.\DSP_Class.c ****     else{
 111:.\DSP_Class.c ****         temp = 0;
 536              		.loc 1 111 0
 537 0124 094B     		ldr	r3, .L40+28
 538 0126 0022     		mov	r2, #0
 539 0128 1A70     		strb	r2, [r3]
 540              	.L26:
 112:.\DSP_Class.c ****     }
 113:.\DSP_Class.c **** }
 541              		.loc 1 113 0
 542 012a BD46     		mov	sp, r7
 543 012c 09B0     		add	sp, sp, #36
 544              		@ sp needed
 545 012e F0BD     		pop	{r4, r5, r6, r7, pc}
 546              	.L41:
 547              		.align	2
 548              	.L40:
 549 0130 00000000 		.word	tempArray
 550 0134 00E87F46 		.word	1182787584
 551 0138 00002543 		.word	1126498304
 552 013c 00002042 		.word	1109393408
 553 0140 00009CC1 		.word	-1046740992
 554 0144 0000A042 		.word	1117782016
 555 0148 0000A041 		.word	1101004800
 556 014c 00000000 		.word	temp
 557              		.cfi_endproc
 558              	.LFE38:
 559              		.size	avgTemp, .-avgTemp
 560              		.global	__aeabi_fcmple
 561              		.section	.text.avgHum,"ax",%progbits
 562              		.align	2
 563              		.global	avgHum
ARM GAS  C:\Users\Snufkin\AppData\Local\Temp\ccsyaIoC.s 			page 13


 564              		.code	16
 565              		.thumb_func
 566              		.type	avgHum, %function
 567              	avgHum:
 568              	.LFB39:
 114:.\DSP_Class.c **** 
 115:.\DSP_Class.c **** void avgHum(void){
 569              		.loc 1 115 0
 570              		.cfi_startproc
 571 0000 F0B5     		push	{r4, r5, r6, r7, lr}
 572              		.cfi_def_cfa_offset 20
 573              		.cfi_offset 4, -20
 574              		.cfi_offset 5, -16
 575              		.cfi_offset 6, -12
 576              		.cfi_offset 7, -8
 577              		.cfi_offset 14, -4
 578 0002 89B0     		sub	sp, sp, #36
 579              		.cfi_def_cfa_offset 56
 580 0004 00AF     		add	r7, sp, #0
 581              		.cfi_def_cfa_register 7
 116:.\DSP_Class.c ****     uint8 skip = 0;
 582              		.loc 1 116 0
 583 0006 381C     		mov	r0, r7
 584 0008 1F30     		add	r0, r0, #31
 585 000a 0025     		mov	r5, #0
 586 000c 0570     		strb	r5, [r0]
 117:.\DSP_Class.c ****     int64 total = 0;
 587              		.loc 1 117 0
 588 000e 0025     		mov	r5, #0
 589 0010 0026     		mov	r6, #0
 590 0012 3D61     		str	r5, [r7, #16]
 591 0014 7E61     		str	r6, [r7, #20]
 592              	.LBB7:
 118:.\DSP_Class.c ****     {
 119:.\DSP_Class.c ****         uint8 i;
 120:.\DSP_Class.c ****         for(i = 0 ; i<ARRAYSIZE ; i++){
 593              		.loc 1 120 0
 594 0016 381C     		mov	r0, r7
 595 0018 0F30     		add	r0, r0, #15
 596 001a 0025     		mov	r5, #0
 597 001c 0570     		strb	r5, [r0]
 598 001e 25E0     		b	.L43
 599              	.L46:
 121:.\DSP_Class.c ****             if(humArray[i]>=0){
 600              		.loc 1 121 0
 601 0020 381C     		mov	r0, r7
 602 0022 0F30     		add	r0, r0, #15
 603 0024 0578     		ldrb	r5, [r0]
 604 0026 3948     		ldr	r0, .L56
 605 0028 AD00     		lsl	r5, r5, #2
 606 002a 2858     		ldr	r0, [r5, r0]
 607 002c 0028     		cmp	r0, #0
 608 002e 0FDB     		blt	.L44
 122:.\DSP_Class.c ****                 total += humArray[i];
 609              		.loc 1 122 0
 610 0030 381C     		mov	r0, r7
 611 0032 0F30     		add	r0, r0, #15
ARM GAS  C:\Users\Snufkin\AppData\Local\Temp\ccsyaIoC.s 			page 14


 612 0034 0578     		ldrb	r5, [r0]
 613 0036 3548     		ldr	r0, .L56
 614 0038 AD00     		lsl	r5, r5, #2
 615 003a 2858     		ldr	r0, [r5, r0]
 616 003c 011C     		mov	r1, r0
 617 003e C017     		asr	r0, r0, #31
 618 0040 021C     		mov	r2, r0
 619 0042 3D69     		ldr	r5, [r7, #16]
 620 0044 7E69     		ldr	r6, [r7, #20]
 621 0046 6D18     		add	r5, r5, r1
 622 0048 5641     		adc	r6, r6, r2
 623 004a 3D61     		str	r5, [r7, #16]
 624 004c 7E61     		str	r6, [r7, #20]
 625 004e 06E0     		b	.L45
 626              	.L44:
 123:.\DSP_Class.c ****             }
 124:.\DSP_Class.c ****             else{
 125:.\DSP_Class.c ****                 skip++;
 627              		.loc 1 125 0
 628 0050 381C     		mov	r0, r7
 629 0052 1F30     		add	r0, r0, #31
 630 0054 0578     		ldrb	r5, [r0]
 631 0056 381C     		mov	r0, r7
 632 0058 1F30     		add	r0, r0, #31
 633 005a 0135     		add	r5, r5, #1
 634 005c 0570     		strb	r5, [r0]
 635              	.L45:
 120:.\DSP_Class.c ****         for(i = 0 ; i<ARRAYSIZE ; i++){
 636              		.loc 1 120 0
 637 005e 381C     		mov	r0, r7
 638 0060 0F30     		add	r0, r0, #15
 639 0062 0578     		ldrb	r5, [r0]
 640 0064 381C     		mov	r0, r7
 641 0066 0F30     		add	r0, r0, #15
 642 0068 0135     		add	r5, r5, #1
 643 006a 0570     		strb	r5, [r0]
 644              	.L43:
 120:.\DSP_Class.c ****         for(i = 0 ; i<ARRAYSIZE ; i++){
 645              		.loc 1 120 0 is_stmt 0 discriminator 1
 646 006c 381C     		mov	r0, r7
 647 006e 0F30     		add	r0, r0, #15
 648 0070 0078     		ldrb	r0, [r0]
 649 0072 0928     		cmp	r0, #9
 650 0074 D4D9     		bls	.L46
 651              	.LBE7:
 126:.\DSP_Class.c ****             }
 127:.\DSP_Class.c ****         }
 128:.\DSP_Class.c ****     }
 129:.\DSP_Class.c ****     // Makes sure that enough datapoits are pressent
 130:.\DSP_Class.c ****     if(ARRAYSIZE-skip>=NMR_OF_VALID_DATAPOINTS_NEEDED){    
 652              		.loc 1 130 0 is_stmt 1
 653 0076 3A1C     		mov	r2, r7
 654 0078 1F32     		add	r2, r2, #31
 655 007a 1278     		ldrb	r2, [r2]
 656 007c 0A21     		mov	r1, #10
 657 007e 8A1A     		sub	r2, r1, r2
 658 0080 092A     		cmp	r2, #9
ARM GAS  C:\Users\Snufkin\AppData\Local\Temp\ccsyaIoC.s 			page 15


 659 0082 3CDD     		ble	.L47
 660              	.LBB8:
 131:.\DSP_Class.c ****         float avg = total/(ARRAYSIZE-skip);                     // Calculate the average value
 661              		.loc 1 131 0
 662 0084 3A1C     		mov	r2, r7
 663 0086 1F32     		add	r2, r2, #31
 664 0088 1278     		ldrb	r2, [r2]
 665 008a 0A21     		mov	r1, #10
 666 008c 8A1A     		sub	r2, r1, r2
 667 008e 131C     		mov	r3, r2
 668 0090 D217     		asr	r2, r2, #31
 669 0092 141C     		mov	r4, r2
 670 0094 3869     		ldr	r0, [r7, #16]
 671 0096 7969     		ldr	r1, [r7, #20]
 672 0098 1A1C     		mov	r2, r3
 673 009a 231C     		mov	r3, r4
 674 009c FFF7FEFF 		bl	__aeabi_ldivmod
 675 00a0 031C     		mov	r3, r0
 676 00a2 0C1C     		mov	r4, r1
 677 00a4 181C     		mov	r0, r3
 678 00a6 211C     		mov	r1, r4
 679 00a8 FFF7FEFF 		bl	__aeabi_l2f
 680 00ac 031C     		add	r3, r0, #0
 681 00ae 7B60     		str	r3, [r7, #4]
 132:.\DSP_Class.c ****         float humInRH = (avg/(16380-2))*100;                // Conversion formula from datasheet
 682              		.loc 1 132 0
 683 00b0 7868     		ldr	r0, [r7, #4]
 684 00b2 1749     		ldr	r1, .L56+4
 685 00b4 FFF7FEFF 		bl	__aeabi_fdiv
 686 00b8 031C     		add	r3, r0, #0
 687 00ba 181C     		add	r0, r3, #0
 688 00bc 1549     		ldr	r1, .L56+8
 689 00be FFF7FEFF 		bl	__aeabi_fmul
 690 00c2 031C     		add	r3, r0, #0
 691 00c4 BB60     		str	r3, [r7, #8]
 133:.\DSP_Class.c ****         
 134:.\DSP_Class.c ****         // humInRH is limited to 1 and 100 RH
 135:.\DSP_Class.c ****         if(humInRH <= 0){
 692              		.loc 1 135 0
 693 00c6 B868     		ldr	r0, [r7, #8]
 694 00c8 0021     		mov	r1, #0
 695 00ca FFF7FEFF 		bl	__aeabi_fcmple
 696 00ce 031C     		mov	r3, r0
 697 00d0 002B     		cmp	r3, #0
 698 00d2 03D0     		beq	.L55
 136:.\DSP_Class.c ****             humInRH = 1;
 699              		.loc 1 136 0
 700 00d4 FE23     		mov	r3, #254
 701 00d6 9B05     		lsl	r3, r3, #22
 702 00d8 BB60     		str	r3, [r7, #8]
 703 00da 08E0     		b	.L50
 704              	.L55:
 137:.\DSP_Class.c ****         }
 138:.\DSP_Class.c ****         else if(humInRH > 100){
 705              		.loc 1 138 0
 706 00dc B868     		ldr	r0, [r7, #8]
 707 00de 0D49     		ldr	r1, .L56+8
ARM GAS  C:\Users\Snufkin\AppData\Local\Temp\ccsyaIoC.s 			page 16


 708 00e0 FFF7FEFF 		bl	__aeabi_fcmpgt
 709 00e4 031C     		mov	r3, r0
 710 00e6 002B     		cmp	r3, #0
 711 00e8 01D0     		beq	.L50
 139:.\DSP_Class.c ****             humInRH = 100;
 712              		.loc 1 139 0
 713 00ea 0A4B     		ldr	r3, .L56+8
 714 00ec BB60     		str	r3, [r7, #8]
 715              	.L50:
 140:.\DSP_Class.c ****         }
 141:.\DSP_Class.c ****         hum = humInRH;
 716              		.loc 1 141 0 discriminator 1
 717 00ee B868     		ldr	r0, [r7, #8]
 718 00f0 FFF7FEFF 		bl	__aeabi_f2uiz
 719 00f4 031C     		mov	r3, r0
 720 00f6 DAB2     		uxtb	r2, r3
 721 00f8 074B     		ldr	r3, .L56+12
 722 00fa 1A70     		strb	r2, [r3]
 723              	.LBE8:
 724 00fc 02E0     		b	.L42
 725              	.L47:
 142:.\DSP_Class.c ****     }
 143:.\DSP_Class.c ****     else{
 144:.\DSP_Class.c ****     hum = 0;
 726              		.loc 1 144 0
 727 00fe 064B     		ldr	r3, .L56+12
 728 0100 0022     		mov	r2, #0
 729 0102 1A70     		strb	r2, [r3]
 730              	.L42:
 145:.\DSP_Class.c ****     }
 146:.\DSP_Class.c **** }
 731              		.loc 1 146 0
 732 0104 BD46     		mov	sp, r7
 733 0106 09B0     		add	sp, sp, #36
 734              		@ sp needed
 735 0108 F0BD     		pop	{r4, r5, r6, r7, pc}
 736              	.L57:
 737 010a C046     		.align	2
 738              	.L56:
 739 010c 00000000 		.word	humArray
 740 0110 00E87F46 		.word	1182787584
 741 0114 0000C842 		.word	1120403456
 742 0118 00000000 		.word	hum
 743              		.cfi_endproc
 744              	.LFE39:
 745              		.size	avgHum, .-avgHum
 746              		.section	.text.avgSoilHum,"ax",%progbits
 747              		.align	2
 748              		.global	avgSoilHum
 749              		.code	16
 750              		.thumb_func
 751              		.type	avgSoilHum, %function
 752              	avgSoilHum:
 753              	.LFB40:
 147:.\DSP_Class.c **** 
 148:.\DSP_Class.c **** void avgSoilHum(uint8 index){
 754              		.loc 1 148 0
ARM GAS  C:\Users\Snufkin\AppData\Local\Temp\ccsyaIoC.s 			page 17


 755              		.cfi_startproc
 756 0000 F0B5     		push	{r4, r5, r6, r7, lr}
 757              		.cfi_def_cfa_offset 20
 758              		.cfi_offset 4, -20
 759              		.cfi_offset 5, -16
 760              		.cfi_offset 6, -12
 761              		.cfi_offset 7, -8
 762              		.cfi_offset 14, -4
 763 0002 93B0     		sub	sp, sp, #76
 764              		.cfi_def_cfa_offset 96
 765 0004 00AF     		add	r7, sp, #0
 766              		.cfi_def_cfa_register 7
 767 0006 3B1C     		mov	r3, r7
 768 0008 2733     		add	r3, r3, #39
 769 000a 1870     		strb	r0, [r3]
 149:.\DSP_Class.c ****     uint8 skip = 0;
 770              		.loc 1 149 0
 771 000c 3B1C     		mov	r3, r7
 772 000e 4733     		add	r3, r3, #71
 773 0010 0020     		mov	r0, #0
 774 0012 1870     		strb	r0, [r3]
 150:.\DSP_Class.c ****     int64 total = 0;
 775              		.loc 1 150 0
 776 0014 0023     		mov	r3, #0
 777 0016 0024     		mov	r4, #0
 778 0018 BB61     		str	r3, [r7, #24]
 779 001a FC61     		str	r4, [r7, #28]
 780 001c BB69     		ldr	r3, [r7, #24]
 781 001e FC69     		ldr	r4, [r7, #28]
 782 0020 BB63     		str	r3, [r7, #56]
 783 0022 FC63     		str	r4, [r7, #60]
 784              	.LBB9:
 151:.\DSP_Class.c ****     {
 152:.\DSP_Class.c ****         uint8 i;
 153:.\DSP_Class.c ****         for(i = 0 ; i<ARRAYSIZE ; i++){
 785              		.loc 1 153 0
 786 0024 3B1C     		mov	r3, r7
 787 0026 3733     		add	r3, r3, #55
 788 0028 0020     		mov	r0, #0
 789 002a 1870     		strb	r0, [r3]
 790 002c 41E0     		b	.L59
 791              	.L62:
 154:.\DSP_Class.c ****             if(soilHumArray[index][i]>=0){
 792              		.loc 1 154 0
 793 002e 3B1C     		mov	r3, r7
 794 0030 2733     		add	r3, r3, #39
 795 0032 1878     		ldrb	r0, [r3]
 796 0034 3B1C     		mov	r3, r7
 797 0036 3733     		add	r3, r3, #55
 798 0038 1B78     		ldrb	r3, [r3]
 799 003a 9C46     		mov	ip, r3
 800 003c 434E     		ldr	r6, .L72
 801 003e 031C     		mov	r3, r0
 802 0040 9B00     		lsl	r3, r3, #2
 803 0042 1B18     		add	r3, r3, r0
 804 0044 5B00     		lsl	r3, r3, #1
 805 0046 6344     		add	r3, r3, ip
ARM GAS  C:\Users\Snufkin\AppData\Local\Temp\ccsyaIoC.s 			page 18


 806 0048 5B00     		lsl	r3, r3, #1
 807 004a 9B5B     		ldrh	r3, [r3, r6]
 808 004c 1BB2     		sxth	r3, r3
 809 004e 002B     		cmp	r3, #0
 810 0050 21DB     		blt	.L60
 155:.\DSP_Class.c ****                 total += soilHumArray[index][i];
 811              		.loc 1 155 0
 812 0052 3B1C     		mov	r3, r7
 813 0054 2733     		add	r3, r3, #39
 814 0056 1878     		ldrb	r0, [r3]
 815 0058 3B1C     		mov	r3, r7
 816 005a 3733     		add	r3, r3, #55
 817 005c 1B78     		ldrb	r3, [r3]
 818 005e 9C46     		mov	ip, r3
 819 0060 3A4E     		ldr	r6, .L72
 820 0062 031C     		mov	r3, r0
 821 0064 9B00     		lsl	r3, r3, #2
 822 0066 1B18     		add	r3, r3, r0
 823 0068 5B00     		lsl	r3, r3, #1
 824 006a 6344     		add	r3, r3, ip
 825 006c 5B00     		lsl	r3, r3, #1
 826 006e 9B5B     		ldrh	r3, [r3, r6]
 827 0070 1BB2     		sxth	r3, r3
 828 0072 191C     		mov	r1, r3
 829 0074 DB17     		asr	r3, r3, #31
 830 0076 1A1C     		mov	r2, r3
 831 0078 BB6B     		ldr	r3, [r7, #56]
 832 007a FC6B     		ldr	r4, [r7, #60]
 833 007c BB60     		str	r3, [r7, #8]
 834 007e FC60     		str	r4, [r7, #12]
 835 0080 BB68     		ldr	r3, [r7, #8]
 836 0082 FC68     		ldr	r4, [r7, #12]
 837 0084 5B18     		add	r3, r3, r1
 838 0086 5441     		adc	r4, r4, r2
 839 0088 3B61     		str	r3, [r7, #16]
 840 008a 7C61     		str	r4, [r7, #20]
 841 008c 3B69     		ldr	r3, [r7, #16]
 842 008e 7C69     		ldr	r4, [r7, #20]
 843 0090 BB63     		str	r3, [r7, #56]
 844 0092 FC63     		str	r4, [r7, #60]
 845 0094 06E0     		b	.L61
 846              	.L60:
 156:.\DSP_Class.c ****             }
 157:.\DSP_Class.c ****             else{
 158:.\DSP_Class.c ****                 skip++;
 847              		.loc 1 158 0
 848 0096 3B1C     		mov	r3, r7
 849 0098 4733     		add	r3, r3, #71
 850 009a 1878     		ldrb	r0, [r3]
 851 009c 3B1C     		mov	r3, r7
 852 009e 4733     		add	r3, r3, #71
 853 00a0 0130     		add	r0, r0, #1
 854 00a2 1870     		strb	r0, [r3]
 855              	.L61:
 153:.\DSP_Class.c ****         for(i = 0 ; i<ARRAYSIZE ; i++){
 856              		.loc 1 153 0
 857 00a4 3B1C     		mov	r3, r7
ARM GAS  C:\Users\Snufkin\AppData\Local\Temp\ccsyaIoC.s 			page 19


 858 00a6 3733     		add	r3, r3, #55
 859 00a8 1878     		ldrb	r0, [r3]
 860 00aa 3B1C     		mov	r3, r7
 861 00ac 3733     		add	r3, r3, #55
 862 00ae 0130     		add	r0, r0, #1
 863 00b0 1870     		strb	r0, [r3]
 864              	.L59:
 153:.\DSP_Class.c ****         for(i = 0 ; i<ARRAYSIZE ; i++){
 865              		.loc 1 153 0 is_stmt 0 discriminator 1
 866 00b2 3B1C     		mov	r3, r7
 867 00b4 3733     		add	r3, r3, #55
 868 00b6 1B78     		ldrb	r3, [r3]
 869 00b8 092B     		cmp	r3, #9
 870 00ba B8D9     		bls	.L62
 871              	.LBE9:
 159:.\DSP_Class.c ****             }
 160:.\DSP_Class.c ****         }
 161:.\DSP_Class.c ****     }
 162:.\DSP_Class.c ****     // Makes sure that enough datapoits are pressent
 163:.\DSP_Class.c ****     if(ARRAYSIZE-skip>=NMR_OF_VALID_DATAPOINTS_NEEDED){    
 872              		.loc 1 163 0 is_stmt 1
 873 00bc 3B1C     		mov	r3, r7
 874 00be 4733     		add	r3, r3, #71
 875 00c0 1B78     		ldrb	r3, [r3]
 876 00c2 0A22     		mov	r2, #10
 877 00c4 D31A     		sub	r3, r2, r3
 878 00c6 092B     		cmp	r3, #9
 879 00c8 36DD     		ble	.L63
 880              	.LBB10:
 164:.\DSP_Class.c ****         float avg = total/(ARRAYSIZE-skip);         // Calculate the average value (assuming input 
 881              		.loc 1 164 0
 882 00ca 3B1C     		mov	r3, r7
 883 00cc 4733     		add	r3, r3, #71
 884 00ce 1B78     		ldrb	r3, [r3]
 885 00d0 0A22     		mov	r2, #10
 886 00d2 D31A     		sub	r3, r2, r3
 887 00d4 3B60     		str	r3, [r7]
 888 00d6 DB17     		asr	r3, r3, #31
 889 00d8 7B60     		str	r3, [r7, #4]
 890 00da B86B     		ldr	r0, [r7, #56]
 891 00dc F96B     		ldr	r1, [r7, #60]
 892 00de 3A68     		ldr	r2, [r7]
 893 00e0 7B68     		ldr	r3, [r7, #4]
 894 00e2 FFF7FEFF 		bl	__aeabi_ldivmod
 895 00e6 031C     		mov	r3, r0
 896 00e8 0C1C     		mov	r4, r1
 897 00ea 181C     		mov	r0, r3
 898 00ec 211C     		mov	r1, r4
 899 00ee FFF7FEFF 		bl	__aeabi_l2f
 900 00f2 031C     		add	r3, r0, #0
 901 00f4 FB62     		str	r3, [r7, #44]
 165:.\DSP_Class.c ****         float soilHumInRH = avg;                    // Takes care of conversion ( NB no conversion 
 902              		.loc 1 165 0
 903 00f6 FB6A     		ldr	r3, [r7, #44]
 904 00f8 3B63     		str	r3, [r7, #48]
 166:.\DSP_Class.c ****         
 167:.\DSP_Class.c ****         // soilHumInRH is limited to 1 and 100 RH
ARM GAS  C:\Users\Snufkin\AppData\Local\Temp\ccsyaIoC.s 			page 20


 168:.\DSP_Class.c ****         if(soilHumInRH <= 0){
 905              		.loc 1 168 0
 906 00fa 386B     		ldr	r0, [r7, #48]
 907 00fc 0021     		mov	r1, #0
 908 00fe FFF7FEFF 		bl	__aeabi_fcmple
 909 0102 031C     		mov	r3, r0
 910 0104 002B     		cmp	r3, #0
 911 0106 03D0     		beq	.L71
 169:.\DSP_Class.c ****             soilHumInRH = 1;
 912              		.loc 1 169 0
 913 0108 FE23     		mov	r3, #254
 914 010a 9B05     		lsl	r3, r3, #22
 915 010c 3B63     		str	r3, [r7, #48]
 916 010e 08E0     		b	.L66
 917              	.L71:
 170:.\DSP_Class.c ****         }
 171:.\DSP_Class.c ****         else if(soilHumInRH > 100){
 918              		.loc 1 171 0
 919 0110 386B     		ldr	r0, [r7, #48]
 920 0112 0F49     		ldr	r1, .L72+4
 921 0114 FFF7FEFF 		bl	__aeabi_fcmpgt
 922 0118 031C     		mov	r3, r0
 923 011a 002B     		cmp	r3, #0
 924 011c 01D0     		beq	.L66
 172:.\DSP_Class.c ****             soilHumInRH = 100;
 925              		.loc 1 172 0
 926 011e 0C4B     		ldr	r3, .L72+4
 927 0120 3B63     		str	r3, [r7, #48]
 928              	.L66:
 173:.\DSP_Class.c ****         }
 174:.\DSP_Class.c ****         soilHum[index] = (uint8)soilHumInRH;
 929              		.loc 1 174 0 discriminator 1
 930 0122 3B1C     		mov	r3, r7
 931 0124 2733     		add	r3, r3, #39
 932 0126 1C78     		ldrb	r4, [r3]
 933 0128 386B     		ldr	r0, [r7, #48]
 934 012a FFF7FEFF 		bl	__aeabi_f2uiz
 935 012e 031C     		mov	r3, r0
 936 0130 DAB2     		uxtb	r2, r3
 937 0132 084B     		ldr	r3, .L72+8
 938 0134 1A55     		strb	r2, [r3, r4]
 939              	.LBE10:
 940 0136 05E0     		b	.L58
 941              	.L63:
 175:.\DSP_Class.c ****     }
 176:.\DSP_Class.c ****     else{
 177:.\DSP_Class.c ****     soilHum[index] = 0;
 942              		.loc 1 177 0
 943 0138 3B1C     		mov	r3, r7
 944 013a 2733     		add	r3, r3, #39
 945 013c 1B78     		ldrb	r3, [r3]
 946 013e 054A     		ldr	r2, .L72+8
 947 0140 0021     		mov	r1, #0
 948 0142 D154     		strb	r1, [r2, r3]
 949              	.L58:
 178:.\DSP_Class.c ****     }
 179:.\DSP_Class.c **** }
ARM GAS  C:\Users\Snufkin\AppData\Local\Temp\ccsyaIoC.s 			page 21


 950              		.loc 1 179 0
 951 0144 BD46     		mov	sp, r7
 952 0146 13B0     		add	sp, sp, #76
 953              		@ sp needed
 954 0148 F0BD     		pop	{r4, r5, r6, r7, pc}
 955              	.L73:
 956 014a C046     		.align	2
 957              	.L72:
 958 014c 00000000 		.word	soilHumArray
 959 0150 0000C842 		.word	1120403456
 960 0154 00000000 		.word	soilHum
 961              		.cfi_endproc
 962              	.LFE40:
 963              		.size	avgSoilHum, .-avgSoilHum
 964              		.global	__aeabi_f2iz
 965              		.global	__aeabi_idiv
 966              		.section	.text.avgLight,"ax",%progbits
 967              		.align	2
 968              		.global	avgLight
 969              		.code	16
 970              		.thumb_func
 971              		.type	avgLight, %function
 972              	avgLight:
 973              	.LFB41:
 180:.\DSP_Class.c **** 
 181:.\DSP_Class.c **** void avgLight(void){
 974              		.loc 1 181 0
 975              		.cfi_startproc
 976 0000 F0B5     		push	{r4, r5, r6, r7, lr}
 977              		.cfi_def_cfa_offset 20
 978              		.cfi_offset 4, -20
 979              		.cfi_offset 5, -16
 980              		.cfi_offset 6, -12
 981              		.cfi_offset 7, -8
 982              		.cfi_offset 14, -4
 983 0002 89B0     		sub	sp, sp, #36
 984              		.cfi_def_cfa_offset 56
 985 0004 00AF     		add	r7, sp, #0
 986              		.cfi_def_cfa_register 7
 182:.\DSP_Class.c ****     uint8 skip = 0;
 987              		.loc 1 182 0
 988 0006 381C     		mov	r0, r7
 989 0008 1F30     		add	r0, r0, #31
 990 000a 0025     		mov	r5, #0
 991 000c 0570     		strb	r5, [r0]
 183:.\DSP_Class.c ****     int64 total = 0;
 992              		.loc 1 183 0
 993 000e 0025     		mov	r5, #0
 994 0010 0026     		mov	r6, #0
 995 0012 3D61     		str	r5, [r7, #16]
 996 0014 7E61     		str	r6, [r7, #20]
 997              	.LBB11:
 184:.\DSP_Class.c ****     {
 185:.\DSP_Class.c ****         uint8 i;
 186:.\DSP_Class.c ****         for(i = 0 ; i<ARRAYSIZE ; i++){
 998              		.loc 1 186 0
 999 0016 381C     		mov	r0, r7
ARM GAS  C:\Users\Snufkin\AppData\Local\Temp\ccsyaIoC.s 			page 22


 1000 0018 0F30     		add	r0, r0, #15
 1001 001a 0025     		mov	r5, #0
 1002 001c 0570     		strb	r5, [r0]
 1003 001e 25E0     		b	.L75
 1004              	.L78:
 187:.\DSP_Class.c ****             if(lightArray[i]>=0){
 1005              		.loc 1 187 0
 1006 0020 381C     		mov	r0, r7
 1007 0022 0F30     		add	r0, r0, #15
 1008 0024 0578     		ldrb	r5, [r0]
 1009 0026 3C48     		ldr	r0, .L83
 1010 0028 AD00     		lsl	r5, r5, #2
 1011 002a 2858     		ldr	r0, [r5, r0]
 1012 002c 0028     		cmp	r0, #0
 1013 002e 0FDB     		blt	.L76
 188:.\DSP_Class.c ****                 total += lightArray[i];
 1014              		.loc 1 188 0
 1015 0030 381C     		mov	r0, r7
 1016 0032 0F30     		add	r0, r0, #15
 1017 0034 0578     		ldrb	r5, [r0]
 1018 0036 3848     		ldr	r0, .L83
 1019 0038 AD00     		lsl	r5, r5, #2
 1020 003a 2858     		ldr	r0, [r5, r0]
 1021 003c 011C     		mov	r1, r0
 1022 003e C017     		asr	r0, r0, #31
 1023 0040 021C     		mov	r2, r0
 1024 0042 3D69     		ldr	r5, [r7, #16]
 1025 0044 7E69     		ldr	r6, [r7, #20]
 1026 0046 6D18     		add	r5, r5, r1
 1027 0048 5641     		adc	r6, r6, r2
 1028 004a 3D61     		str	r5, [r7, #16]
 1029 004c 7E61     		str	r6, [r7, #20]
 1030 004e 06E0     		b	.L77
 1031              	.L76:
 189:.\DSP_Class.c ****             }
 190:.\DSP_Class.c ****             else{
 191:.\DSP_Class.c ****                 skip++;
 1032              		.loc 1 191 0
 1033 0050 381C     		mov	r0, r7
 1034 0052 1F30     		add	r0, r0, #31
 1035 0054 0578     		ldrb	r5, [r0]
 1036 0056 381C     		mov	r0, r7
 1037 0058 1F30     		add	r0, r0, #31
 1038 005a 0135     		add	r5, r5, #1
 1039 005c 0570     		strb	r5, [r0]
 1040              	.L77:
 186:.\DSP_Class.c ****         for(i = 0 ; i<ARRAYSIZE ; i++){
 1041              		.loc 1 186 0
 1042 005e 381C     		mov	r0, r7
 1043 0060 0F30     		add	r0, r0, #15
 1044 0062 0578     		ldrb	r5, [r0]
 1045 0064 381C     		mov	r0, r7
 1046 0066 0F30     		add	r0, r0, #15
 1047 0068 0135     		add	r5, r5, #1
 1048 006a 0570     		strb	r5, [r0]
 1049              	.L75:
 186:.\DSP_Class.c ****         for(i = 0 ; i<ARRAYSIZE ; i++){
ARM GAS  C:\Users\Snufkin\AppData\Local\Temp\ccsyaIoC.s 			page 23


 1050              		.loc 1 186 0 is_stmt 0 discriminator 1
 1051 006c 381C     		mov	r0, r7
 1052 006e 0F30     		add	r0, r0, #15
 1053 0070 0078     		ldrb	r0, [r0]
 1054 0072 0928     		cmp	r0, #9
 1055 0074 D4D9     		bls	.L78
 1056              	.LBE11:
 192:.\DSP_Class.c ****             }
 193:.\DSP_Class.c ****         }
 194:.\DSP_Class.c ****     }
 195:.\DSP_Class.c ****     // Makes sure that enough datapoits are pressent
 196:.\DSP_Class.c ****     if(ARRAYSIZE-skip>=NMR_OF_VALID_DATAPOINTS_NEEDED){    
 1057              		.loc 1 196 0 is_stmt 1
 1058 0076 3A1C     		mov	r2, r7
 1059 0078 1F32     		add	r2, r2, #31
 1060 007a 1278     		ldrb	r2, [r2]
 1061 007c 0A21     		mov	r1, #10
 1062 007e 8A1A     		sub	r2, r1, r2
 1063 0080 092A     		cmp	r2, #9
 1064 0082 43DD     		ble	.L79
 1065              	.LBB12:
 197:.\DSP_Class.c ****         float avg = total/(ARRAYSIZE-skip);                              // Calculate the average v
 1066              		.loc 1 197 0
 1067 0084 3A1C     		mov	r2, r7
 1068 0086 1F32     		add	r2, r2, #31
 1069 0088 1278     		ldrb	r2, [r2]
 1070 008a 0A21     		mov	r1, #10
 1071 008c 8A1A     		sub	r2, r1, r2
 1072 008e 131C     		mov	r3, r2
 1073 0090 D217     		asr	r2, r2, #31
 1074 0092 141C     		mov	r4, r2
 1075 0094 3869     		ldr	r0, [r7, #16]
 1076 0096 7969     		ldr	r1, [r7, #20]
 1077 0098 1A1C     		mov	r2, r3
 1078 009a 231C     		mov	r3, r4
 1079 009c FFF7FEFF 		bl	__aeabi_ldivmod
 1080 00a0 031C     		mov	r3, r0
 1081 00a2 0C1C     		mov	r4, r1
 1082 00a4 181C     		mov	r0, r3
 1083 00a6 211C     		mov	r1, r4
 1084 00a8 FFF7FEFF 		bl	__aeabi_l2f
 1085 00ac 031C     		add	r3, r0, #0
 1086 00ae BB60     		str	r3, [r7, #8]
 198:.\DSP_Class.c ****         
 199:.\DSP_Class.c ****         // Conversion to lux formula from datasheet
 200:.\DSP_Class.c ****         // Range = 128000, R_EXT = 100kOhm, n = 7 and DATA max 128
 201:.\DSP_Class.c ****         int32 lightInLux = ((128000*(100/100))/(128))*avg;
 1087              		.loc 1 201 0
 1088 00b0 B868     		ldr	r0, [r7, #8]
 1089 00b2 1A49     		ldr	r1, .L83+4
 1090 00b4 FFF7FEFF 		bl	__aeabi_fmul
 1091 00b8 031C     		add	r3, r0, #0
 1092 00ba 181C     		add	r0, r3, #0
 1093 00bc FFF7FEFF 		bl	__aeabi_f2iz
 1094 00c0 031C     		mov	r3, r0
 1095 00c2 7B60     		str	r3, [r7, #4]
 202:.\DSP_Class.c ****         
ARM GAS  C:\Users\Snufkin\AppData\Local\Temp\ccsyaIoC.s 			page 24


 203:.\DSP_Class.c ****         uint8 lightInUartVarSteps = lightInLux/1000;     // Conversion to UART ready value, 1 = 100
 1096              		.loc 1 203 0
 1097 00c4 7B68     		ldr	r3, [r7, #4]
 1098 00c6 181C     		mov	r0, r3
 1099 00c8 FA23     		mov	r3, #250
 1100 00ca 9900     		lsl	r1, r3, #2
 1101 00cc FFF7FEFF 		bl	__aeabi_idiv
 1102 00d0 031C     		mov	r3, r0
 1103 00d2 1A1C     		mov	r2, r3
 1104 00d4 3B1C     		mov	r3, r7
 1105 00d6 0E33     		add	r3, r3, #14
 1106 00d8 1A70     		strb	r2, [r3]
 204:.\DSP_Class.c ****         
 205:.\DSP_Class.c ****         // lightInLux is limited to 1 and 100 RH
 206:.\DSP_Class.c ****         if(lightInUartVarSteps <= 0){
 1107              		.loc 1 206 0
 1108 00da 3B1C     		mov	r3, r7
 1109 00dc 0E33     		add	r3, r3, #14
 1110 00de 1B78     		ldrb	r3, [r3]
 1111 00e0 002B     		cmp	r3, #0
 1112 00e2 04D1     		bne	.L80
 207:.\DSP_Class.c ****             lightInUartVarSteps = 1;
 1113              		.loc 1 207 0
 1114 00e4 3B1C     		mov	r3, r7
 1115 00e6 0E33     		add	r3, r3, #14
 1116 00e8 0122     		mov	r2, #1
 1117 00ea 1A70     		strb	r2, [r3]
 1118 00ec 08E0     		b	.L81
 1119              	.L80:
 208:.\DSP_Class.c ****         }
 209:.\DSP_Class.c ****         else if(lightInUartVarSteps > 100){
 1120              		.loc 1 209 0
 1121 00ee 3B1C     		mov	r3, r7
 1122 00f0 0E33     		add	r3, r3, #14
 1123 00f2 1B78     		ldrb	r3, [r3]
 1124 00f4 642B     		cmp	r3, #100
 1125 00f6 03D9     		bls	.L81
 210:.\DSP_Class.c ****             lightInUartVarSteps = 100;
 1126              		.loc 1 210 0
 1127 00f8 3B1C     		mov	r3, r7
 1128 00fa 0E33     		add	r3, r3, #14
 1129 00fc 6422     		mov	r2, #100
 1130 00fe 1A70     		strb	r2, [r3]
 1131              	.L81:
 211:.\DSP_Class.c ****         }
 212:.\DSP_Class.c ****         light = lightInUartVarSteps;
 1132              		.loc 1 212 0 discriminator 1
 1133 0100 074B     		ldr	r3, .L83+8
 1134 0102 3A1C     		mov	r2, r7
 1135 0104 0E32     		add	r2, r2, #14
 1136 0106 1278     		ldrb	r2, [r2]
 1137 0108 1A70     		strb	r2, [r3]
 1138              	.LBE12:
 1139 010a 02E0     		b	.L74
 1140              	.L79:
 213:.\DSP_Class.c ****     }
 214:.\DSP_Class.c ****     else{
ARM GAS  C:\Users\Snufkin\AppData\Local\Temp\ccsyaIoC.s 			page 25


 215:.\DSP_Class.c ****     light = 0;
 1141              		.loc 1 215 0
 1142 010c 044B     		ldr	r3, .L83+8
 1143 010e 0022     		mov	r2, #0
 1144 0110 1A70     		strb	r2, [r3]
 1145              	.L74:
 216:.\DSP_Class.c ****     }
 217:.\DSP_Class.c ****   }
 1146              		.loc 1 217 0
 1147 0112 BD46     		mov	sp, r7
 1148 0114 09B0     		add	sp, sp, #36
 1149              		@ sp needed
 1150 0116 F0BD     		pop	{r4, r5, r6, r7, pc}
 1151              	.L84:
 1152              		.align	2
 1153              	.L83:
 1154 0118 00000000 		.word	lightArray
 1155 011c 00007A44 		.word	1148846080
 1156 0120 00000000 		.word	light
 1157              		.cfi_endproc
 1158              	.LFE41:
 1159              		.size	avgLight, .-avgLight
 1160              		.section	.text.inputTemp,"ax",%progbits
 1161              		.align	2
 1162              		.global	inputTemp
 1163              		.code	16
 1164              		.thumb_func
 1165              		.type	inputTemp, %function
 1166              	inputTemp:
 1167              	.LFB42:
 218:.\DSP_Class.c **** 
 219:.\DSP_Class.c **** void inputTemp(int32* temp){
 1168              		.loc 1 219 0
 1169              		.cfi_startproc
 1170 0000 80B5     		push	{r7, lr}
 1171              		.cfi_def_cfa_offset 8
 1172              		.cfi_offset 7, -8
 1173              		.cfi_offset 14, -4
 1174 0002 82B0     		sub	sp, sp, #8
 1175              		.cfi_def_cfa_offset 16
 1176 0004 00AF     		add	r7, sp, #0
 1177              		.cfi_def_cfa_register 7
 1178 0006 7860     		str	r0, [r7, #4]
 220:.\DSP_Class.c ****     *tempArrayPtr = *temp;      // The input value is written to the array
 1179              		.loc 1 220 0
 1180 0008 0B4B     		ldr	r3, .L87
 1181 000a 1B68     		ldr	r3, [r3]
 1182 000c 7A68     		ldr	r2, [r7, #4]
 1183 000e 1268     		ldr	r2, [r2]
 1184 0010 1A60     		str	r2, [r3]
 221:.\DSP_Class.c ****     tempArrayPtr++;             // The pointer is moved to the next place in array
 1185              		.loc 1 221 0
 1186 0012 094B     		ldr	r3, .L87
 1187 0014 1B68     		ldr	r3, [r3]
 1188 0016 1A1D     		add	r2, r3, #4
 1189 0018 074B     		ldr	r3, .L87
 1190 001a 1A60     		str	r2, [r3]
ARM GAS  C:\Users\Snufkin\AppData\Local\Temp\ccsyaIoC.s 			page 26


 222:.\DSP_Class.c ****     if(tempArrayPtr > &tempArray[ARRAYSIZE-1]){
 1191              		.loc 1 222 0
 1192 001c 064B     		ldr	r3, .L87
 1193 001e 1A68     		ldr	r2, [r3]
 1194 0020 064B     		ldr	r3, .L87+4
 1195 0022 9A42     		cmp	r2, r3
 1196 0024 02D9     		bls	.L86
 223:.\DSP_Class.c ****         tempArrayPtr = &tempArray[0];   // If the pointer is pointing past the end of the array it'
 1197              		.loc 1 223 0
 1198 0026 044B     		ldr	r3, .L87
 1199 0028 054A     		ldr	r2, .L87+8
 1200 002a 1A60     		str	r2, [r3]
 1201              	.L86:
 224:.\DSP_Class.c ****     }
 225:.\DSP_Class.c ****     
 226:.\DSP_Class.c ****     avgTemp();      // The average value is calculated and onverted into temp(globel) 
 1202              		.loc 1 226 0
 1203 002c FFF7FEFF 		bl	avgTemp
 227:.\DSP_Class.c **** }
 1204              		.loc 1 227 0
 1205 0030 BD46     		mov	sp, r7
 1206 0032 02B0     		add	sp, sp, #8
 1207              		@ sp needed
 1208 0034 80BD     		pop	{r7, pc}
 1209              	.L88:
 1210 0036 C046     		.align	2
 1211              	.L87:
 1212 0038 00000000 		.word	tempArrayPtr
 1213 003c 24000000 		.word	tempArray+36
 1214 0040 00000000 		.word	tempArray
 1215              		.cfi_endproc
 1216              	.LFE42:
 1217              		.size	inputTemp, .-inputTemp
 1218              		.section	.text.inputHum,"ax",%progbits
 1219              		.align	2
 1220              		.global	inputHum
 1221              		.code	16
 1222              		.thumb_func
 1223              		.type	inputHum, %function
 1224              	inputHum:
 1225              	.LFB43:
 228:.\DSP_Class.c **** 
 229:.\DSP_Class.c **** void inputHum(int32* hum){
 1226              		.loc 1 229 0
 1227              		.cfi_startproc
 1228 0000 80B5     		push	{r7, lr}
 1229              		.cfi_def_cfa_offset 8
 1230              		.cfi_offset 7, -8
 1231              		.cfi_offset 14, -4
 1232 0002 82B0     		sub	sp, sp, #8
 1233              		.cfi_def_cfa_offset 16
 1234 0004 00AF     		add	r7, sp, #0
 1235              		.cfi_def_cfa_register 7
 1236 0006 7860     		str	r0, [r7, #4]
 230:.\DSP_Class.c ****     *humArrayPtr = *hum;        // The input value is written to the array
 1237              		.loc 1 230 0
 1238 0008 0B4B     		ldr	r3, .L91
ARM GAS  C:\Users\Snufkin\AppData\Local\Temp\ccsyaIoC.s 			page 27


 1239 000a 1B68     		ldr	r3, [r3]
 1240 000c 7A68     		ldr	r2, [r7, #4]
 1241 000e 1268     		ldr	r2, [r2]
 1242 0010 1A60     		str	r2, [r3]
 231:.\DSP_Class.c ****     humArrayPtr++;              // The pointer is moved to the next place in array
 1243              		.loc 1 231 0
 1244 0012 094B     		ldr	r3, .L91
 1245 0014 1B68     		ldr	r3, [r3]
 1246 0016 1A1D     		add	r2, r3, #4
 1247 0018 074B     		ldr	r3, .L91
 1248 001a 1A60     		str	r2, [r3]
 232:.\DSP_Class.c ****     if(humArrayPtr > &humArray[ARRAYSIZE-1]){
 1249              		.loc 1 232 0
 1250 001c 064B     		ldr	r3, .L91
 1251 001e 1A68     		ldr	r2, [r3]
 1252 0020 064B     		ldr	r3, .L91+4
 1253 0022 9A42     		cmp	r2, r3
 1254 0024 02D9     		bls	.L90
 233:.\DSP_Class.c ****         humArrayPtr = &humArray[0];     // If the pointer is pointing past the end of the array it'
 1255              		.loc 1 233 0
 1256 0026 044B     		ldr	r3, .L91
 1257 0028 054A     		ldr	r2, .L91+8
 1258 002a 1A60     		str	r2, [r3]
 1259              	.L90:
 234:.\DSP_Class.c ****     }
 235:.\DSP_Class.c ****     
 236:.\DSP_Class.c ****     avgHum();      // The average value is calculated and onverted into hum(globel)
 1260              		.loc 1 236 0
 1261 002c FFF7FEFF 		bl	avgHum
 237:.\DSP_Class.c **** }
 1262              		.loc 1 237 0
 1263 0030 BD46     		mov	sp, r7
 1264 0032 02B0     		add	sp, sp, #8
 1265              		@ sp needed
 1266 0034 80BD     		pop	{r7, pc}
 1267              	.L92:
 1268 0036 C046     		.align	2
 1269              	.L91:
 1270 0038 00000000 		.word	humArrayPtr
 1271 003c 24000000 		.word	humArray+36
 1272 0040 00000000 		.word	humArray
 1273              		.cfi_endproc
 1274              	.LFE43:
 1275              		.size	inputHum, .-inputHum
 1276              		.section	.text.inputSoilHum,"ax",%progbits
 1277              		.align	2
 1278              		.global	inputSoilHum
 1279              		.code	16
 1280              		.thumb_func
 1281              		.type	inputSoilHum, %function
 1282              	inputSoilHum:
 1283              	.LFB44:
 238:.\DSP_Class.c **** 
 239:.\DSP_Class.c **** void inputSoilHum(uint8 index, int16* soilHum){
 1284              		.loc 1 239 0
 1285              		.cfi_startproc
 1286 0000 80B5     		push	{r7, lr}
ARM GAS  C:\Users\Snufkin\AppData\Local\Temp\ccsyaIoC.s 			page 28


 1287              		.cfi_def_cfa_offset 8
 1288              		.cfi_offset 7, -8
 1289              		.cfi_offset 14, -4
 1290 0002 82B0     		sub	sp, sp, #8
 1291              		.cfi_def_cfa_offset 16
 1292 0004 00AF     		add	r7, sp, #0
 1293              		.cfi_def_cfa_register 7
 1294 0006 021C     		mov	r2, r0
 1295 0008 3960     		str	r1, [r7]
 1296 000a FB1D     		add	r3, r7, #7
 1297 000c 1A70     		strb	r2, [r3]
 240:.\DSP_Class.c ****     *soilHumPtr[index] = *soilHum;          // The input value is written to the array
 1298              		.loc 1 240 0
 1299 000e FB1D     		add	r3, r7, #7
 1300 0010 1A78     		ldrb	r2, [r3]
 1301 0012 1A4B     		ldr	r3, .L95
 1302 0014 9200     		lsl	r2, r2, #2
 1303 0016 D358     		ldr	r3, [r2, r3]
 1304 0018 3A68     		ldr	r2, [r7]
 1305 001a 1288     		ldrh	r2, [r2]
 1306 001c 1A80     		strh	r2, [r3]
 241:.\DSP_Class.c ****     soilHumPtr[index]++;                    // The pointer is moved to the next place in array
 1307              		.loc 1 241 0
 1308 001e FB1D     		add	r3, r7, #7
 1309 0020 1B78     		ldrb	r3, [r3]
 1310 0022 164A     		ldr	r2, .L95
 1311 0024 9900     		lsl	r1, r3, #2
 1312 0026 8A58     		ldr	r2, [r1, r2]
 1313 0028 911C     		add	r1, r2, #2
 1314 002a 144A     		ldr	r2, .L95
 1315 002c 9B00     		lsl	r3, r3, #2
 1316 002e 9950     		str	r1, [r3, r2]
 242:.\DSP_Class.c ****     if(soilHumPtr[index] > &soilHumArray[index][ARRAYSIZE-1]){
 1317              		.loc 1 242 0
 1318 0030 FB1D     		add	r3, r7, #7
 1319 0032 1A78     		ldrb	r2, [r3]
 1320 0034 114B     		ldr	r3, .L95
 1321 0036 9200     		lsl	r2, r2, #2
 1322 0038 D158     		ldr	r1, [r2, r3]
 1323 003a FB1D     		add	r3, r7, #7
 1324 003c 1A78     		ldrb	r2, [r3]
 1325 003e 131C     		mov	r3, r2
 1326 0040 9B00     		lsl	r3, r3, #2
 1327 0042 9B18     		add	r3, r3, r2
 1328 0044 9B00     		lsl	r3, r3, #2
 1329 0046 1A1C     		mov	r2, r3
 1330 0048 1232     		add	r2, r2, #18
 1331 004a 0D4B     		ldr	r3, .L95+4
 1332 004c D318     		add	r3, r2, r3
 1333 004e 9942     		cmp	r1, r3
 1334 0050 0CD9     		bls	.L94
 243:.\DSP_Class.c ****         soilHumPtr[index] = &soilHumArray[index][0];            // If the pointer is pointing past 
 1335              		.loc 1 243 0
 1336 0052 FB1D     		add	r3, r7, #7
 1337 0054 1878     		ldrb	r0, [r3]
 1338 0056 FB1D     		add	r3, r7, #7
 1339 0058 1A78     		ldrb	r2, [r3]
ARM GAS  C:\Users\Snufkin\AppData\Local\Temp\ccsyaIoC.s 			page 29


 1340 005a 131C     		mov	r3, r2
 1341 005c 9B00     		lsl	r3, r3, #2
 1342 005e 9B18     		add	r3, r3, r2
 1343 0060 9B00     		lsl	r3, r3, #2
 1344 0062 074A     		ldr	r2, .L95+4
 1345 0064 9918     		add	r1, r3, r2
 1346 0066 054B     		ldr	r3, .L95
 1347 0068 8200     		lsl	r2, r0, #2
 1348 006a D150     		str	r1, [r2, r3]
 1349              	.L94:
 244:.\DSP_Class.c ****     }
 245:.\DSP_Class.c ****     
 246:.\DSP_Class.c ****     avgSoilHum(index);          // The average value is calculated and onverted into soilHum(globel
 1350              		.loc 1 246 0
 1351 006c FB1D     		add	r3, r7, #7
 1352 006e 1B78     		ldrb	r3, [r3]
 1353 0070 181C     		mov	r0, r3
 1354 0072 FFF7FEFF 		bl	avgSoilHum
 247:.\DSP_Class.c **** }
 1355              		.loc 1 247 0
 1356 0076 BD46     		mov	sp, r7
 1357 0078 02B0     		add	sp, sp, #8
 1358              		@ sp needed
 1359 007a 80BD     		pop	{r7, pc}
 1360              	.L96:
 1361              		.align	2
 1362              	.L95:
 1363 007c 00000000 		.word	soilHumPtr
 1364 0080 00000000 		.word	soilHumArray
 1365              		.cfi_endproc
 1366              	.LFE44:
 1367              		.size	inputSoilHum, .-inputSoilHum
 1368              		.section	.text.inputLight,"ax",%progbits
 1369              		.align	2
 1370              		.global	inputLight
 1371              		.code	16
 1372              		.thumb_func
 1373              		.type	inputLight, %function
 1374              	inputLight:
 1375              	.LFB45:
 248:.\DSP_Class.c **** 
 249:.\DSP_Class.c **** void inputLight(int32* light){
 1376              		.loc 1 249 0
 1377              		.cfi_startproc
 1378 0000 80B5     		push	{r7, lr}
 1379              		.cfi_def_cfa_offset 8
 1380              		.cfi_offset 7, -8
 1381              		.cfi_offset 14, -4
 1382 0002 82B0     		sub	sp, sp, #8
 1383              		.cfi_def_cfa_offset 16
 1384 0004 00AF     		add	r7, sp, #0
 1385              		.cfi_def_cfa_register 7
 1386 0006 7860     		str	r0, [r7, #4]
 250:.\DSP_Class.c ****     *lightArrayPtr = *light;        // The input value is written to the array
 1387              		.loc 1 250 0
 1388 0008 0B4B     		ldr	r3, .L99
 1389 000a 1B68     		ldr	r3, [r3]
ARM GAS  C:\Users\Snufkin\AppData\Local\Temp\ccsyaIoC.s 			page 30


 1390 000c 7A68     		ldr	r2, [r7, #4]
 1391 000e 1268     		ldr	r2, [r2]
 1392 0010 1A60     		str	r2, [r3]
 251:.\DSP_Class.c ****     lightArrayPtr++;                // The pointer is moved to the next place in array
 1393              		.loc 1 251 0
 1394 0012 094B     		ldr	r3, .L99
 1395 0014 1B68     		ldr	r3, [r3]
 1396 0016 1A1D     		add	r2, r3, #4
 1397 0018 074B     		ldr	r3, .L99
 1398 001a 1A60     		str	r2, [r3]
 252:.\DSP_Class.c ****     if(lightArrayPtr > &lightArray[ARRAYSIZE-1]){
 1399              		.loc 1 252 0
 1400 001c 064B     		ldr	r3, .L99
 1401 001e 1A68     		ldr	r2, [r3]
 1402 0020 064B     		ldr	r3, .L99+4
 1403 0022 9A42     		cmp	r2, r3
 1404 0024 02D9     		bls	.L98
 253:.\DSP_Class.c ****         lightArrayPtr = &lightArray[0];     // If the pointer is pointing past the end of the array
 1405              		.loc 1 253 0
 1406 0026 044B     		ldr	r3, .L99
 1407 0028 054A     		ldr	r2, .L99+8
 1408 002a 1A60     		str	r2, [r3]
 1409              	.L98:
 254:.\DSP_Class.c ****     }
 255:.\DSP_Class.c ****     
 256:.\DSP_Class.c ****     avgLight();      // The average value is calculated and onverted into hum(globel)
 1410              		.loc 1 256 0
 1411 002c FFF7FEFF 		bl	avgLight
 257:.\DSP_Class.c **** }
 1412              		.loc 1 257 0
 1413 0030 BD46     		mov	sp, r7
 1414 0032 02B0     		add	sp, sp, #8
 1415              		@ sp needed
 1416 0034 80BD     		pop	{r7, pc}
 1417              	.L100:
 1418 0036 C046     		.align	2
 1419              	.L99:
 1420 0038 00000000 		.word	lightArrayPtr
 1421 003c 24000000 		.word	lightArray+36
 1422 0040 00000000 		.word	lightArray
 1423              		.cfi_endproc
 1424              	.LFE45:
 1425              		.size	inputLight, .-inputLight
 1426              		.text
 1427              	.Letext0:
 1428              		.file 2 ".\\Generated_Source\\PSoC4/cytypes.h"