ARM GAS  C:\Users\Snufkin\AppData\Local\Temp\ccBazRk1.s 			page 1


   1              		.cpu cortex-m0
   2              		.fpu softvfp
   3              		.eabi_attribute 20, 1
   4              		.eabi_attribute 21, 1
   5              		.eabi_attribute 23, 3
   6              		.eabi_attribute 24, 1
   7              		.eabi_attribute 25, 1
   8              		.eabi_attribute 26, 1
   9              		.eabi_attribute 30, 6
  10              		.eabi_attribute 34, 0
  11              		.eabi_attribute 18, 4
  12              		.code	16
  13              		.file	"I2C_Class.c"
  14              		.text
  15              	.Ltext0:
  16              		.cfi_sections	.debug_frame
  17              		.section	.rodata
  18              		.type	returnVal, %object
  19              		.size	returnVal, 1
  20              	returnVal:
  21 0000 01       		.byte	1
  22              		.comm	irrigationStatus,1,1
  23              		.section	.text.initI2C,"ax",%progbits
  24              		.align	2
  25              		.global	initI2C
  26              		.code	16
  27              		.thumb_func
  28              		.type	initI2C, %function
  29              	initI2C:
  30              	.LFB33:
  31              		.file 1 ".\\I2C_Class.c"
   1:.\I2C_Class.c **** /* ========================================
   2:.\I2C_Class.c ****  * 
   3:.\I2C_Class.c ****  * AutoGreen - PSoC_Master
   4:.\I2C_Class.c ****  * I2C_Class.c
   5:.\I2C_Class.c ****  * (Description)
   6:.\I2C_Class.c ****  * PRJ3 - GRP9
   7:.\I2C_Class.c ****  * 2015-04-15
   8:.\I2C_Class.c ****  *
   9:.\I2C_Class.c ****  * ========================================
  10:.\I2C_Class.c **** */
  11:.\I2C_Class.c **** 
  12:.\I2C_Class.c **** // Include files
  13:.\I2C_Class.c **** #include "I2C_Class.h"
  14:.\I2C_Class.c **** 
  15:.\I2C_Class.c **** //Debugging
  16:.\I2C_Class.c **** #define BUF_SIZE 60
  17:.\I2C_Class.c **** static const uint8 returnVal = 1;
  18:.\I2C_Class.c **** 
  19:.\I2C_Class.c **** // Private data members
  20:.\I2C_Class.c **** uint8 irrigationStatus;
  21:.\I2C_Class.c **** 
  22:.\I2C_Class.c **** // Private prototypes
  23:.\I2C_Class.c **** 
  24:.\I2C_Class.c **** void initI2C(void){
  32              		.loc 1 24 0
  33              		.cfi_startproc
ARM GAS  C:\Users\Snufkin\AppData\Local\Temp\ccBazRk1.s 			page 2


  34 0000 80B5     		push	{r7, lr}
  35              		.cfi_def_cfa_offset 8
  36              		.cfi_offset 7, -8
  37              		.cfi_offset 14, -4
  38 0002 00AF     		add	r7, sp, #0
  39              		.cfi_def_cfa_register 7
  25:.\I2C_Class.c ****     
  26:.\I2C_Class.c **** }
  40              		.loc 1 26 0
  41 0004 BD46     		mov	sp, r7
  42              		@ sp needed
  43 0006 80BD     		pop	{r7, pc}
  44              		.cfi_endproc
  45              	.LFE33:
  46              		.size	initI2C, .-initI2C
  47              		.section	.rodata
  48 0001 000000   		.align	2
  49              	.LC0:
  50 0004 61646A75 		.ascii	"adjustWindow() called, adj window to %d, ret: %d\012"
  50      73745769 
  50      6E646F77 
  50      28292063 
  50      616C6C65 
  51 0035 0D00     		.ascii	"\015\000"
  52              		.section	.text.adjustWindow,"ax",%progbits
  53              		.align	2
  54              		.global	adjustWindow
  55              		.code	16
  56              		.thumb_func
  57              		.type	adjustWindow, %function
  58              	adjustWindow:
  59              	.LFB34:
  27:.\I2C_Class.c **** 
  28:.\I2C_Class.c **** int8 adjustWindow(uint8 pos){
  60              		.loc 1 28 0
  61              		.cfi_startproc
  62 0000 80B5     		push	{r7, lr}
  63              		.cfi_def_cfa_offset 8
  64              		.cfi_offset 7, -8
  65              		.cfi_offset 14, -4
  66 0002 92B0     		sub	sp, sp, #72
  67              		.cfi_def_cfa_offset 80
  68 0004 00AF     		add	r7, sp, #0
  69              		.cfi_def_cfa_register 7
  70 0006 021C     		mov	r2, r0
  71 0008 FB1D     		add	r3, r7, #7
  72 000a 1A70     		strb	r2, [r3]
  29:.\I2C_Class.c ****     char buf[BUF_SIZE];
  30:.\I2C_Class.c ****     sprintf(buf, "adjustWindow() called, adj window to %d, ret: %d\n\r", pos, returnVal);
  73              		.loc 1 30 0
  74 000c FB1D     		add	r3, r7, #7
  75 000e 1A78     		ldrb	r2, [r3]
  76 0010 0123     		mov	r3, #1
  77 0012 381C     		mov	r0, r7
  78 0014 0C30     		add	r0, r0, #12
  79 0016 0749     		ldr	r1, .L4
  80 0018 FFF7FEFF 		bl	sprintf
ARM GAS  C:\Users\Snufkin\AppData\Local\Temp\ccBazRk1.s 			page 3


  31:.\I2C_Class.c ****     UART_UartPutString(buf);
  81              		.loc 1 31 0
  82 001c 3B1C     		mov	r3, r7
  83 001e 0C33     		add	r3, r3, #12
  84 0020 181C     		mov	r0, r3
  85 0022 FFF7FEFF 		bl	UART_UartPutString
  32:.\I2C_Class.c ****     return returnVal;
  86              		.loc 1 32 0
  87 0026 0123     		mov	r3, #1
  88 0028 DBB2     		uxtb	r3, r3
  89 002a 5BB2     		sxtb	r3, r3
  33:.\I2C_Class.c **** }
  90              		.loc 1 33 0
  91 002c 181C     		mov	r0, r3
  92 002e BD46     		mov	sp, r7
  93 0030 12B0     		add	sp, sp, #72
  94              		@ sp needed
  95 0032 80BD     		pop	{r7, pc}
  96              	.L5:
  97              		.align	2
  98              	.L4:
  99 0034 04000000 		.word	.LC0
 100              		.cfi_endproc
 101              	.LFE34:
 102              		.size	adjustWindow, .-adjustWindow
 103              		.section	.rodata
 104 0037 00       		.align	2
 105              	.LC2:
 106 0038 61646A75 		.ascii	"adjustHeat() called, adj heat to %d, ret: %d\012\015"
 106      73744865 
 106      61742829 
 106      2063616C 
 106      6C65642C 
 107 0066 00       		.ascii	"\000"
 108              		.section	.text.adjustHeat,"ax",%progbits
 109              		.align	2
 110              		.global	adjustHeat
 111              		.code	16
 112              		.thumb_func
 113              		.type	adjustHeat, %function
 114              	adjustHeat:
 115              	.LFB35:
  34:.\I2C_Class.c **** 
  35:.\I2C_Class.c **** int8 adjustHeat(uint8 heat){
 116              		.loc 1 35 0
 117              		.cfi_startproc
 118 0000 80B5     		push	{r7, lr}
 119              		.cfi_def_cfa_offset 8
 120              		.cfi_offset 7, -8
 121              		.cfi_offset 14, -4
 122 0002 92B0     		sub	sp, sp, #72
 123              		.cfi_def_cfa_offset 80
 124 0004 00AF     		add	r7, sp, #0
 125              		.cfi_def_cfa_register 7
 126 0006 021C     		mov	r2, r0
 127 0008 FB1D     		add	r3, r7, #7
 128 000a 1A70     		strb	r2, [r3]
ARM GAS  C:\Users\Snufkin\AppData\Local\Temp\ccBazRk1.s 			page 4


  36:.\I2C_Class.c ****     char buf[BUF_SIZE];
  37:.\I2C_Class.c ****     sprintf(buf, "adjustHeat() called, adj heat to %d, ret: %d\n\r", heat, returnVal);
 129              		.loc 1 37 0
 130 000c FB1D     		add	r3, r7, #7
 131 000e 1A78     		ldrb	r2, [r3]
 132 0010 0123     		mov	r3, #1
 133 0012 381C     		mov	r0, r7
 134 0014 0C30     		add	r0, r0, #12
 135 0016 0749     		ldr	r1, .L8
 136 0018 FFF7FEFF 		bl	sprintf
  38:.\I2C_Class.c ****     UART_UartPutString(buf);
 137              		.loc 1 38 0
 138 001c 3B1C     		mov	r3, r7
 139 001e 0C33     		add	r3, r3, #12
 140 0020 181C     		mov	r0, r3
 141 0022 FFF7FEFF 		bl	UART_UartPutString
  39:.\I2C_Class.c ****     return returnVal;
 142              		.loc 1 39 0
 143 0026 0123     		mov	r3, #1
 144 0028 DBB2     		uxtb	r3, r3
 145 002a 5BB2     		sxtb	r3, r3
  40:.\I2C_Class.c **** }
 146              		.loc 1 40 0
 147 002c 181C     		mov	r0, r3
 148 002e BD46     		mov	sp, r7
 149 0030 12B0     		add	sp, sp, #72
 150              		@ sp needed
 151 0032 80BD     		pop	{r7, pc}
 152              	.L9:
 153              		.align	2
 154              	.L8:
 155 0034 38000000 		.word	.LC2
 156              		.cfi_endproc
 157              	.LFE35:
 158              		.size	adjustHeat, .-adjustHeat
 159              		.section	.rodata
 160 0067 00       		.align	2
 161              	.LC4:
 162 0068 61646A75 		.ascii	"adjustVentilation() called, adj vent to %d, ret: %d"
 162      73745665 
 162      6E74696C 
 162      6174696F 
 162      6E282920 
 163 009b 0A0D00   		.ascii	"\012\015\000"
 164              		.section	.text.adjustVentilation,"ax",%progbits
 165              		.align	2
 166              		.global	adjustVentilation
 167              		.code	16
 168              		.thumb_func
 169              		.type	adjustVentilation, %function
 170              	adjustVentilation:
 171              	.LFB36:
  41:.\I2C_Class.c **** 
  42:.\I2C_Class.c **** int8 adjustVentilation(uint8 speed){
 172              		.loc 1 42 0
 173              		.cfi_startproc
 174 0000 80B5     		push	{r7, lr}
ARM GAS  C:\Users\Snufkin\AppData\Local\Temp\ccBazRk1.s 			page 5


 175              		.cfi_def_cfa_offset 8
 176              		.cfi_offset 7, -8
 177              		.cfi_offset 14, -4
 178 0002 92B0     		sub	sp, sp, #72
 179              		.cfi_def_cfa_offset 80
 180 0004 00AF     		add	r7, sp, #0
 181              		.cfi_def_cfa_register 7
 182 0006 021C     		mov	r2, r0
 183 0008 FB1D     		add	r3, r7, #7
 184 000a 1A70     		strb	r2, [r3]
  43:.\I2C_Class.c ****     char buf[BUF_SIZE];
  44:.\I2C_Class.c ****     sprintf(buf, "adjustVentilation() called, adj vent to %d, ret: %d\n\r", speed, returnVal);
 185              		.loc 1 44 0
 186 000c FB1D     		add	r3, r7, #7
 187 000e 1A78     		ldrb	r2, [r3]
 188 0010 0123     		mov	r3, #1
 189 0012 381C     		mov	r0, r7
 190 0014 0C30     		add	r0, r0, #12
 191 0016 0749     		ldr	r1, .L12
 192 0018 FFF7FEFF 		bl	sprintf
  45:.\I2C_Class.c ****     UART_UartPutString(buf);
 193              		.loc 1 45 0
 194 001c 3B1C     		mov	r3, r7
 195 001e 0C33     		add	r3, r3, #12
 196 0020 181C     		mov	r0, r3
 197 0022 FFF7FEFF 		bl	UART_UartPutString
  46:.\I2C_Class.c ****     return returnVal;
 198              		.loc 1 46 0
 199 0026 0123     		mov	r3, #1
 200 0028 DBB2     		uxtb	r3, r3
 201 002a 5BB2     		sxtb	r3, r3
  47:.\I2C_Class.c **** }
 202              		.loc 1 47 0
 203 002c 181C     		mov	r0, r3
 204 002e BD46     		mov	sp, r7
 205 0030 12B0     		add	sp, sp, #72
 206              		@ sp needed
 207 0032 80BD     		pop	{r7, pc}
 208              	.L13:
 209              		.align	2
 210              	.L12:
 211 0034 68000000 		.word	.LC4
 212              		.cfi_endproc
 213              	.LFE36:
 214              		.size	adjustVentilation, .-adjustVentilation
 215              		.section	.rodata
 216 009e 0000     		.align	2
 217              	.LC6:
 218 00a0 61646A75 		.ascii	"adjustIrrigation() called, adj index %d to %d, ret:"
 218      73744972 
 218      72696761 
 218      74696F6E 
 218      28292063 
 219 00d3 2025640A 		.ascii	" %d\012\015\000"
 219      0D00
 220              		.section	.text.adjustIrrigation,"ax",%progbits
 221              		.align	2
ARM GAS  C:\Users\Snufkin\AppData\Local\Temp\ccBazRk1.s 			page 6


 222              		.global	adjustIrrigation
 223              		.code	16
 224              		.thumb_func
 225              		.type	adjustIrrigation, %function
 226              	adjustIrrigation:
 227              	.LFB37:
  48:.\I2C_Class.c **** 
  49:.\I2C_Class.c **** int8 adjustIrrigation(uint8 index, uint8 onOff){
 228              		.loc 1 49 0
 229              		.cfi_startproc
 230 0000 90B5     		push	{r4, r7, lr}
 231              		.cfi_def_cfa_offset 12
 232              		.cfi_offset 4, -12
 233              		.cfi_offset 7, -8
 234              		.cfi_offset 14, -4
 235 0002 95B0     		sub	sp, sp, #84
 236              		.cfi_def_cfa_offset 96
 237 0004 02AF     		add	r7, sp, #8
 238              		.cfi_def_cfa 7, 88
 239 0006 0A1C     		mov	r2, r1
 240 0008 FB1D     		add	r3, r7, #7
 241 000a 011C     		add	r1, r0, #0
 242 000c 1970     		strb	r1, [r3]
 243 000e BB1D     		add	r3, r7, #6
 244 0010 1A70     		strb	r2, [r3]
  50:.\I2C_Class.c ****     char buf[BUF_SIZE];
  51:.\I2C_Class.c ****     sprintf(buf, "adjustIrrigation() called, adj index %d to %d, ret: %d\n\r", index, onOff, return
 245              		.loc 1 51 0
 246 0012 FB1D     		add	r3, r7, #7
 247 0014 1A78     		ldrb	r2, [r3]
 248 0016 BB1D     		add	r3, r7, #6
 249 0018 1B78     		ldrb	r3, [r3]
 250 001a 0121     		mov	r1, #1
 251 001c 0C1C     		mov	r4, r1
 252 001e 381C     		mov	r0, r7
 253 0020 0C30     		add	r0, r0, #12
 254 0022 0849     		ldr	r1, .L16
 255 0024 0094     		str	r4, [sp]
 256 0026 FFF7FEFF 		bl	sprintf
  52:.\I2C_Class.c ****     UART_UartPutString(buf);
 257              		.loc 1 52 0
 258 002a 3B1C     		mov	r3, r7
 259 002c 0C33     		add	r3, r3, #12
 260 002e 181C     		mov	r0, r3
 261 0030 FFF7FEFF 		bl	UART_UartPutString
  53:.\I2C_Class.c ****     return returnVal;
 262              		.loc 1 53 0
 263 0034 0123     		mov	r3, #1
 264 0036 DBB2     		uxtb	r3, r3
 265 0038 5BB2     		sxtb	r3, r3
  54:.\I2C_Class.c **** }
 266              		.loc 1 54 0
 267 003a 181C     		mov	r0, r3
 268 003c BD46     		mov	sp, r7
 269 003e 13B0     		add	sp, sp, #76
 270              		@ sp needed
 271 0040 90BD     		pop	{r4, r7, pc}
ARM GAS  C:\Users\Snufkin\AppData\Local\Temp\ccBazRk1.s 			page 7


 272              	.L17:
 273 0042 C046     		.align	2
 274              	.L16:
 275 0044 A0000000 		.word	.LC6
 276              		.cfi_endproc
 277              	.LFE37:
 278              		.size	adjustIrrigation, .-adjustIrrigation
 279              		.section	.rodata
 280 00d9 000000   		.align	2
 281              	.LC8:
 282 00dc 67657441 		.ascii	"getActuatorStatus() called, setting all to ret: %d\012"
 282      63747561 
 282      746F7253 
 282      74617475 
 282      73282920 
 283 010f 0D00     		.ascii	"\015\000"
 284              		.section	.text.getActuatorStatus,"ax",%progbits
 285              		.align	2
 286              		.global	getActuatorStatus
 287              		.code	16
 288              		.thumb_func
 289              		.type	getActuatorStatus, %function
 290              	getActuatorStatus:
 291              	.LFB38:
  55:.\I2C_Class.c **** 
  56:.\I2C_Class.c **** int8 getActuatorStatus(uint8* window, uint8* heat, uint8* vent, uint8* irrigation){
 292              		.loc 1 56 0
 293              		.cfi_startproc
 294 0000 80B5     		push	{r7, lr}
 295              		.cfi_def_cfa_offset 8
 296              		.cfi_offset 7, -8
 297              		.cfi_offset 14, -4
 298 0002 94B0     		sub	sp, sp, #80
 299              		.cfi_def_cfa_offset 88
 300 0004 00AF     		add	r7, sp, #0
 301              		.cfi_def_cfa_register 7
 302 0006 F860     		str	r0, [r7, #12]
 303 0008 B960     		str	r1, [r7, #8]
 304 000a 7A60     		str	r2, [r7, #4]
 305 000c 3B60     		str	r3, [r7]
  57:.\I2C_Class.c ****     char buf[BUF_SIZE];
  58:.\I2C_Class.c ****     sprintf(buf, "getActuatorStatus() called, setting all to ret: %d\n\r", returnVal);
 306              		.loc 1 58 0
 307 000e 0123     		mov	r3, #1
 308 0010 391C     		mov	r1, r7
 309 0012 1431     		add	r1, r1, #20
 310 0014 0E4A     		ldr	r2, .L20
 311 0016 081C     		mov	r0, r1
 312 0018 111C     		mov	r1, r2
 313 001a 1A1C     		mov	r2, r3
 314 001c FFF7FEFF 		bl	sprintf
  59:.\I2C_Class.c ****     UART_UartPutString(buf);
 315              		.loc 1 59 0
 316 0020 3B1C     		mov	r3, r7
 317 0022 1433     		add	r3, r3, #20
 318 0024 181C     		mov	r0, r3
 319 0026 FFF7FEFF 		bl	UART_UartPutString
ARM GAS  C:\Users\Snufkin\AppData\Local\Temp\ccBazRk1.s 			page 8


  60:.\I2C_Class.c ****     
  61:.\I2C_Class.c ****     *window = returnVal;
 320              		.loc 1 61 0
 321 002a 0122     		mov	r2, #1
 322 002c FB68     		ldr	r3, [r7, #12]
 323 002e 1A70     		strb	r2, [r3]
  62:.\I2C_Class.c ****     *heat = returnVal;
 324              		.loc 1 62 0
 325 0030 0122     		mov	r2, #1
 326 0032 BB68     		ldr	r3, [r7, #8]
 327 0034 1A70     		strb	r2, [r3]
  63:.\I2C_Class.c ****     *vent = returnVal;
 328              		.loc 1 63 0
 329 0036 0122     		mov	r2, #1
 330 0038 7B68     		ldr	r3, [r7, #4]
 331 003a 1A70     		strb	r2, [r3]
  64:.\I2C_Class.c ****     *irrigation = returnVal;
 332              		.loc 1 64 0
 333 003c 0122     		mov	r2, #1
 334 003e 3B68     		ldr	r3, [r7]
 335 0040 1A70     		strb	r2, [r3]
  65:.\I2C_Class.c ****     return returnVal;
 336              		.loc 1 65 0
 337 0042 0123     		mov	r3, #1
 338 0044 DBB2     		uxtb	r3, r3
 339 0046 5BB2     		sxtb	r3, r3
  66:.\I2C_Class.c **** }
 340              		.loc 1 66 0
 341 0048 181C     		mov	r0, r3
 342 004a BD46     		mov	sp, r7
 343 004c 14B0     		add	sp, sp, #80
 344              		@ sp needed
 345 004e 80BD     		pop	{r7, pc}
 346              	.L21:
 347              		.align	2
 348              	.L20:
 349 0050 DC000000 		.word	.LC8
 350              		.cfi_endproc
 351              	.LFE38:
 352              		.size	getActuatorStatus, .-getActuatorStatus
 353              		.section	.rodata
 354 0111 000000   		.align	2
 355              	.LC10:
 356 0114 67657454 		.ascii	"getTempAndHum() called, setting all to ret: %d\012\015"
 356      656D7041 
 356      6E644875 
 356      6D282920 
 356      63616C6C 
 357 0144 00       		.ascii	"\000"
 358              		.section	.text.getTempAndHum,"ax",%progbits
 359              		.align	2
 360              		.global	getTempAndHum
 361              		.code	16
 362              		.thumb_func
 363              		.type	getTempAndHum, %function
 364              	getTempAndHum:
 365              	.LFB39:
ARM GAS  C:\Users\Snufkin\AppData\Local\Temp\ccBazRk1.s 			page 9


  67:.\I2C_Class.c **** 
  68:.\I2C_Class.c **** int8 getTempAndHum(int32* temp, int32* hum){
 366              		.loc 1 68 0
 367              		.cfi_startproc
 368 0000 80B5     		push	{r7, lr}
 369              		.cfi_def_cfa_offset 8
 370              		.cfi_offset 7, -8
 371              		.cfi_offset 14, -4
 372 0002 92B0     		sub	sp, sp, #72
 373              		.cfi_def_cfa_offset 80
 374 0004 00AF     		add	r7, sp, #0
 375              		.cfi_def_cfa_register 7
 376 0006 7860     		str	r0, [r7, #4]
 377 0008 3960     		str	r1, [r7]
  69:.\I2C_Class.c ****     char buf[BUF_SIZE];
  70:.\I2C_Class.c ****     sprintf(buf, "getTempAndHum() called, setting all to ret: %d\n\r", returnVal);
 378              		.loc 1 70 0
 379 000a 0123     		mov	r3, #1
 380 000c 391C     		mov	r1, r7
 381 000e 0C31     		add	r1, r1, #12
 382 0010 0C4A     		ldr	r2, .L24
 383 0012 081C     		mov	r0, r1
 384 0014 111C     		mov	r1, r2
 385 0016 1A1C     		mov	r2, r3
 386 0018 FFF7FEFF 		bl	sprintf
  71:.\I2C_Class.c ****     UART_UartPutString(buf);
 387              		.loc 1 71 0
 388 001c 3B1C     		mov	r3, r7
 389 001e 0C33     		add	r3, r3, #12
 390 0020 181C     		mov	r0, r3
 391 0022 FFF7FEFF 		bl	UART_UartPutString
  72:.\I2C_Class.c ****     
  73:.\I2C_Class.c ****     *temp = returnVal;
 392              		.loc 1 73 0
 393 0026 0123     		mov	r3, #1
 394 0028 1A1C     		mov	r2, r3
 395 002a 7B68     		ldr	r3, [r7, #4]
 396 002c 1A60     		str	r2, [r3]
  74:.\I2C_Class.c ****     *hum = returnVal;
 397              		.loc 1 74 0
 398 002e 0123     		mov	r3, #1
 399 0030 1A1C     		mov	r2, r3
 400 0032 3B68     		ldr	r3, [r7]
 401 0034 1A60     		str	r2, [r3]
  75:.\I2C_Class.c ****     return returnVal;
 402              		.loc 1 75 0
 403 0036 0123     		mov	r3, #1
 404 0038 DBB2     		uxtb	r3, r3
 405 003a 5BB2     		sxtb	r3, r3
  76:.\I2C_Class.c **** }
 406              		.loc 1 76 0
 407 003c 181C     		mov	r0, r3
 408 003e BD46     		mov	sp, r7
 409 0040 12B0     		add	sp, sp, #72
 410              		@ sp needed
 411 0042 80BD     		pop	{r7, pc}
 412              	.L25:
ARM GAS  C:\Users\Snufkin\AppData\Local\Temp\ccBazRk1.s 			page 10


 413              		.align	2
 414              	.L24:
 415 0044 14010000 		.word	.LC10
 416              		.cfi_endproc
 417              	.LFE39:
 418              		.size	getTempAndHum, .-getTempAndHum
 419              		.section	.rodata
 420 0145 000000   		.align	2
 421              	.LC12:
 422 0148 6765744C 		.ascii	"getLight() called, ret: %d\012\015\000"
 422      69676874 
 422      28292063 
 422      616C6C65 
 422      642C2072 
 423              		.section	.text.getLight,"ax",%progbits
 424              		.align	2
 425              		.global	getLight
 426              		.code	16
 427              		.thumb_func
 428              		.type	getLight, %function
 429              	getLight:
 430              	.LFB40:
  77:.\I2C_Class.c **** 
  78:.\I2C_Class.c **** int8 getLight(int32* light){
 431              		.loc 1 78 0
 432              		.cfi_startproc
 433 0000 80B5     		push	{r7, lr}
 434              		.cfi_def_cfa_offset 8
 435              		.cfi_offset 7, -8
 436              		.cfi_offset 14, -4
 437 0002 92B0     		sub	sp, sp, #72
 438              		.cfi_def_cfa_offset 80
 439 0004 00AF     		add	r7, sp, #0
 440              		.cfi_def_cfa_register 7
 441 0006 7860     		str	r0, [r7, #4]
  79:.\I2C_Class.c ****     char buf[BUF_SIZE];
  80:.\I2C_Class.c ****     sprintf(buf, "getLight() called, ret: %d\n\r", returnVal);
 442              		.loc 1 80 0
 443 0008 0123     		mov	r3, #1
 444 000a 391C     		mov	r1, r7
 445 000c 0C31     		add	r1, r1, #12
 446 000e 0B4A     		ldr	r2, .L28
 447 0010 081C     		mov	r0, r1
 448 0012 111C     		mov	r1, r2
 449 0014 1A1C     		mov	r2, r3
 450 0016 FFF7FEFF 		bl	sprintf
  81:.\I2C_Class.c ****     UART_UartPutString(buf);
 451              		.loc 1 81 0
 452 001a 3B1C     		mov	r3, r7
 453 001c 0C33     		add	r3, r3, #12
 454 001e 181C     		mov	r0, r3
 455 0020 FFF7FEFF 		bl	UART_UartPutString
  82:.\I2C_Class.c ****     *light = returnVal;
 456              		.loc 1 82 0
 457 0024 0123     		mov	r3, #1
 458 0026 1A1C     		mov	r2, r3
 459 0028 7B68     		ldr	r3, [r7, #4]
ARM GAS  C:\Users\Snufkin\AppData\Local\Temp\ccBazRk1.s 			page 11


 460 002a 1A60     		str	r2, [r3]
  83:.\I2C_Class.c ****     return returnVal;
 461              		.loc 1 83 0
 462 002c 0123     		mov	r3, #1
 463 002e DBB2     		uxtb	r3, r3
 464 0030 5BB2     		sxtb	r3, r3
  84:.\I2C_Class.c **** }
 465              		.loc 1 84 0
 466 0032 181C     		mov	r0, r3
 467 0034 BD46     		mov	sp, r7
 468 0036 12B0     		add	sp, sp, #72
 469              		@ sp needed
 470 0038 80BD     		pop	{r7, pc}
 471              	.L29:
 472 003a C046     		.align	2
 473              	.L28:
 474 003c 48010000 		.word	.LC12
 475              		.cfi_endproc
 476              	.LFE40:
 477              		.size	getLight, .-getLight
 478              		.section	.rodata
 479 0165 000000   		.align	2
 480              	.LC14:
 481 0168 67657453 		.ascii	"getSoilHum() called, index %d to %d, ret: %d\012\015"
 481      6F696C48 
 481      756D2829 
 481      2063616C 
 481      6C65642C 
 482 0196 00       		.ascii	"\000"
 483 0197 00       		.section	.text.getSoilHum,"ax",%progbits
 484              		.align	2
 485              		.global	getSoilHum
 486              		.code	16
 487              		.thumb_func
 488              		.type	getSoilHum, %function
 489              	getSoilHum:
 490              	.LFB41:
  85:.\I2C_Class.c **** 
  86:.\I2C_Class.c **** int8 getSoilHum(uint8 index, int16* soilHum){
 491              		.loc 1 86 0
 492              		.cfi_startproc
 493 0000 90B5     		push	{r4, r7, lr}
 494              		.cfi_def_cfa_offset 12
 495              		.cfi_offset 4, -12
 496              		.cfi_offset 7, -8
 497              		.cfi_offset 14, -4
 498 0002 95B0     		sub	sp, sp, #84
 499              		.cfi_def_cfa_offset 96
 500 0004 02AF     		add	r7, sp, #8
 501              		.cfi_def_cfa 7, 88
 502 0006 021C     		mov	r2, r0
 503 0008 3960     		str	r1, [r7]
 504 000a FB1D     		add	r3, r7, #7
 505 000c 1A70     		strb	r2, [r3]
  87:.\I2C_Class.c ****     char buf[BUF_SIZE];
  88:.\I2C_Class.c ****     sprintf(buf, "getSoilHum() called, index %d to %d, ret: %d\n\r", index, returnVal, returnVal);
 506              		.loc 1 88 0
ARM GAS  C:\Users\Snufkin\AppData\Local\Temp\ccBazRk1.s 			page 12


 507 000e FB1D     		add	r3, r7, #7
 508 0010 1A78     		ldrb	r2, [r3]
 509 0012 0123     		mov	r3, #1
 510 0014 0121     		mov	r1, #1
 511 0016 0C1C     		mov	r4, r1
 512 0018 381C     		mov	r0, r7
 513 001a 0C30     		add	r0, r0, #12
 514 001c 0949     		ldr	r1, .L32
 515 001e 0094     		str	r4, [sp]
 516 0020 FFF7FEFF 		bl	sprintf
  89:.\I2C_Class.c ****     UART_UartPutString(buf);
 517              		.loc 1 89 0
 518 0024 3B1C     		mov	r3, r7
 519 0026 0C33     		add	r3, r3, #12
 520 0028 181C     		mov	r0, r3
 521 002a FFF7FEFF 		bl	UART_UartPutString
  90:.\I2C_Class.c ****     *soilHum = returnVal;
 522              		.loc 1 90 0
 523 002e 0123     		mov	r3, #1
 524 0030 1A1C     		mov	r2, r3
 525 0032 3B68     		ldr	r3, [r7]
 526 0034 1A80     		strh	r2, [r3]
  91:.\I2C_Class.c ****     return returnVal;
 527              		.loc 1 91 0
 528 0036 0123     		mov	r3, #1
 529 0038 DBB2     		uxtb	r3, r3
 530 003a 5BB2     		sxtb	r3, r3
  92:.\I2C_Class.c **** }
 531              		.loc 1 92 0
 532 003c 181C     		mov	r0, r3
 533 003e BD46     		mov	sp, r7
 534 0040 13B0     		add	sp, sp, #76
 535              		@ sp needed
 536 0042 90BD     		pop	{r4, r7, pc}
 537              	.L33:
 538              		.align	2
 539              	.L32:
 540 0044 68010000 		.word	.LC14
 541              		.cfi_endproc
 542              	.LFE41:
 543              		.size	getSoilHum, .-getSoilHum
 544              		.text
 545              	.Letext0:
 546              		.file 2 ".\\Generated_Source\\PSoC4/cytypes.h"
 547              		.section	.debug_info,"",%progbits
 548              	.Ldebug_info0:
 549 0000 24030000 		.4byte	0x324
 550 0004 0400     		.2byte	0x4
 551 0006 00000000 		.4byte	.Ldebug_abbrev0
 552 000a 04       		.byte	0x4
 553 000b 01       		.uleb128 0x1
 554 000c 51000000 		.4byte	.LASF36
 555 0010 01       		.byte	0x1
 556 0011 24000000 		.4byte	.LASF37
 557 0015 88010000 		.4byte	.LASF38
 558 0019 00000000 		.4byte	.Ldebug_ranges0+0
 559 001d 00000000 		.4byte	0
ARM GAS  C:\Users\Snufkin\AppData\Local\Temp\ccBazRk1.s 			page 13


 560 0021 00000000 		.4byte	.Ldebug_line0
 561 0025 02       		.uleb128 0x2
 562 0026 01       		.byte	0x1
 563 0027 06       		.byte	0x6
 564 0028 CD000000 		.4byte	.LASF0
 565 002c 02       		.uleb128 0x2
 566 002d 01       		.byte	0x1
 567 002e 08       		.byte	0x8
 568 002f D9000000 		.4byte	.LASF1
 569 0033 02       		.uleb128 0x2
 570 0034 02       		.byte	0x2
 571 0035 05       		.byte	0x5
 572 0036 14020000 		.4byte	.LASF2
 573 003a 02       		.uleb128 0x2
 574 003b 02       		.byte	0x2
 575 003c 07       		.byte	0x7
 576 003d 32000000 		.4byte	.LASF3
 577 0041 02       		.uleb128 0x2
 578 0042 04       		.byte	0x4
 579 0043 05       		.byte	0x5
 580 0044 31020000 		.4byte	.LASF4
 581 0048 02       		.uleb128 0x2
 582 0049 04       		.byte	0x4
 583 004a 07       		.byte	0x7
 584 004b 0A010000 		.4byte	.LASF5
 585 004f 02       		.uleb128 0x2
 586 0050 08       		.byte	0x8
 587 0051 05       		.byte	0x5
 588 0052 FB010000 		.4byte	.LASF6
 589 0056 02       		.uleb128 0x2
 590 0057 08       		.byte	0x8
 591 0058 07       		.byte	0x7
 592 0059 71010000 		.4byte	.LASF7
 593 005d 03       		.uleb128 0x3
 594 005e 04       		.byte	0x4
 595 005f 05       		.byte	0x5
 596 0060 696E7400 		.ascii	"int\000"
 597 0064 02       		.uleb128 0x2
 598 0065 04       		.byte	0x4
 599 0066 07       		.byte	0x7
 600 0067 5F010000 		.4byte	.LASF8
 601 006b 04       		.uleb128 0x4
 602 006c 45000000 		.4byte	.LASF9
 603 0070 02       		.byte	0x2
 604 0071 A1       		.byte	0xa1
 605 0072 2C000000 		.4byte	0x2c
 606 0076 04       		.uleb128 0x4
 607 0077 5A010000 		.4byte	.LASF10
 608 007b 02       		.byte	0x2
 609 007c A4       		.byte	0xa4
 610 007d 25000000 		.4byte	0x25
 611 0081 04       		.uleb128 0x4
 612 0082 04010000 		.4byte	.LASF11
 613 0086 02       		.byte	0x2
 614 0087 A5       		.byte	0xa5
 615 0088 33000000 		.4byte	0x33
 616 008c 04       		.uleb128 0x4
ARM GAS  C:\Users\Snufkin\AppData\Local\Temp\ccBazRk1.s 			page 14


 617 008d 2E010000 		.4byte	.LASF12
 618 0091 02       		.byte	0x2
 619 0092 A6       		.byte	0xa6
 620 0093 41000000 		.4byte	0x41
 621 0097 02       		.uleb128 0x2
 622 0098 04       		.byte	0x4
 623 0099 04       		.byte	0x4
 624 009a 4B000000 		.4byte	.LASF13
 625 009e 02       		.uleb128 0x2
 626 009f 08       		.byte	0x8
 627 00a0 04       		.byte	0x4
 628 00a1 42010000 		.4byte	.LASF14
 629 00a5 02       		.uleb128 0x2
 630 00a6 01       		.byte	0x1
 631 00a7 08       		.byte	0x8
 632 00a8 09020000 		.4byte	.LASF15
 633 00ac 02       		.uleb128 0x2
 634 00ad 04       		.byte	0x4
 635 00ae 07       		.byte	0x7
 636 00af E7010000 		.4byte	.LASF16
 637 00b3 05       		.uleb128 0x5
 638 00b4 04       		.byte	0x4
 639 00b5 6B000000 		.4byte	0x6b
 640 00b9 06       		.uleb128 0x6
 641 00ba D9010000 		.4byte	.LASF39
 642 00be 01       		.byte	0x1
 643 00bf 18       		.byte	0x18
 644 00c0 00000000 		.4byte	.LFB33
 645 00c4 08000000 		.4byte	.LFE33-.LFB33
 646 00c8 01       		.uleb128 0x1
 647 00c9 9C       		.byte	0x9c
 648 00ca 07       		.uleb128 0x7
 649 00cb 17000000 		.4byte	.LASF17
 650 00cf 01       		.byte	0x1
 651 00d0 1C       		.byte	0x1c
 652 00d1 76000000 		.4byte	0x76
 653 00d5 00000000 		.4byte	.LFB34
 654 00d9 38000000 		.4byte	.LFE34-.LFB34
 655 00dd 01       		.uleb128 0x1
 656 00de 9C       		.byte	0x9c
 657 00df 02010000 		.4byte	0x102
 658 00e3 08       		.uleb128 0x8
 659 00e4 706F7300 		.ascii	"pos\000"
 660 00e8 01       		.byte	0x1
 661 00e9 1C       		.byte	0x1c
 662 00ea 6B000000 		.4byte	0x6b
 663 00ee 03       		.uleb128 0x3
 664 00ef 91       		.byte	0x91
 665 00f0 B77F     		.sleb128 -73
 666 00f2 09       		.uleb128 0x9
 667 00f3 62756600 		.ascii	"buf\000"
 668 00f7 01       		.byte	0x1
 669 00f8 1D       		.byte	0x1d
 670 00f9 02010000 		.4byte	0x102
 671 00fd 03       		.uleb128 0x3
 672 00fe 91       		.byte	0x91
 673 00ff BC7F     		.sleb128 -68
ARM GAS  C:\Users\Snufkin\AppData\Local\Temp\ccBazRk1.s 			page 15


 674 0101 00       		.byte	0
 675 0102 0A       		.uleb128 0xa
 676 0103 A5000000 		.4byte	0xa5
 677 0107 12010000 		.4byte	0x112
 678 010b 0B       		.uleb128 0xb
 679 010c AC000000 		.4byte	0xac
 680 0110 3B       		.byte	0x3b
 681 0111 00       		.byte	0
 682 0112 07       		.uleb128 0x7
 683 0113 F0010000 		.4byte	.LASF18
 684 0117 01       		.byte	0x1
 685 0118 23       		.byte	0x23
 686 0119 76000000 		.4byte	0x76
 687 011d 00000000 		.4byte	.LFB35
 688 0121 38000000 		.4byte	.LFE35-.LFB35
 689 0125 01       		.uleb128 0x1
 690 0126 9C       		.byte	0x9c
 691 0127 4A010000 		.4byte	0x14a
 692 012b 0C       		.uleb128 0xc
 693 012c D4010000 		.4byte	.LASF19
 694 0130 01       		.byte	0x1
 695 0131 23       		.byte	0x23
 696 0132 6B000000 		.4byte	0x6b
 697 0136 03       		.uleb128 0x3
 698 0137 91       		.byte	0x91
 699 0138 B77F     		.sleb128 -73
 700 013a 09       		.uleb128 0x9
 701 013b 62756600 		.ascii	"buf\000"
 702 013f 01       		.byte	0x1
 703 0140 24       		.byte	0x24
 704 0141 02010000 		.4byte	0x102
 705 0145 03       		.uleb128 0x3
 706 0146 91       		.byte	0x91
 707 0147 BC7F     		.sleb128 -68
 708 0149 00       		.byte	0
 709 014a 07       		.uleb128 0x7
 710 014b F2000000 		.4byte	.LASF20
 711 014f 01       		.byte	0x1
 712 0150 2A       		.byte	0x2a
 713 0151 76000000 		.4byte	0x76
 714 0155 00000000 		.4byte	.LFB36
 715 0159 38000000 		.4byte	.LFE36-.LFB36
 716 015d 01       		.uleb128 0x1
 717 015e 9C       		.byte	0x9c
 718 015f 82010000 		.4byte	0x182
 719 0163 0C       		.uleb128 0xc
 720 0164 E1010000 		.4byte	.LASF21
 721 0168 01       		.byte	0x1
 722 0169 2A       		.byte	0x2a
 723 016a 6B000000 		.4byte	0x6b
 724 016e 03       		.uleb128 0x3
 725 016f 91       		.byte	0x91
 726 0170 B77F     		.sleb128 -73
 727 0172 09       		.uleb128 0x9
 728 0173 62756600 		.ascii	"buf\000"
 729 0177 01       		.byte	0x1
 730 0178 2B       		.byte	0x2b
ARM GAS  C:\Users\Snufkin\AppData\Local\Temp\ccBazRk1.s 			page 16


 731 0179 02010000 		.4byte	0x102
 732 017d 03       		.uleb128 0x3
 733 017e 91       		.byte	0x91
 734 017f BC7F     		.sleb128 -68
 735 0181 00       		.byte	0
 736 0182 07       		.uleb128 0x7
 737 0183 00000000 		.4byte	.LASF22
 738 0187 01       		.byte	0x1
 739 0188 31       		.byte	0x31
 740 0189 76000000 		.4byte	0x76
 741 018d 00000000 		.4byte	.LFB37
 742 0191 48000000 		.4byte	.LFE37-.LFB37
 743 0195 01       		.uleb128 0x1
 744 0196 9C       		.byte	0x9c
 745 0197 C9010000 		.4byte	0x1c9
 746 019b 0C       		.uleb128 0xc
 747 019c 0E020000 		.4byte	.LASF23
 748 01a0 01       		.byte	0x1
 749 01a1 31       		.byte	0x31
 750 01a2 6B000000 		.4byte	0x6b
 751 01a6 03       		.uleb128 0x3
 752 01a7 91       		.byte	0x91
 753 01a8 AF7F     		.sleb128 -81
 754 01aa 0C       		.uleb128 0xc
 755 01ab EC000000 		.4byte	.LASF24
 756 01af 01       		.byte	0x1
 757 01b0 31       		.byte	0x31
 758 01b1 6B000000 		.4byte	0x6b
 759 01b5 03       		.uleb128 0x3
 760 01b6 91       		.byte	0x91
 761 01b7 AE7F     		.sleb128 -82
 762 01b9 09       		.uleb128 0x9
 763 01ba 62756600 		.ascii	"buf\000"
 764 01be 01       		.byte	0x1
 765 01bf 32       		.byte	0x32
 766 01c0 02010000 		.4byte	0x102
 767 01c4 03       		.uleb128 0x3
 768 01c5 91       		.byte	0x91
 769 01c6 B47F     		.sleb128 -76
 770 01c8 00       		.byte	0
 771 01c9 07       		.uleb128 0x7
 772 01ca 1C010000 		.4byte	.LASF25
 773 01ce 01       		.byte	0x1
 774 01cf 38       		.byte	0x38
 775 01d0 76000000 		.4byte	0x76
 776 01d4 00000000 		.4byte	.LFB38
 777 01d8 54000000 		.4byte	.LFE38-.LFB38
 778 01dc 01       		.uleb128 0x1
 779 01dd 9C       		.byte	0x9c
 780 01de 2E020000 		.4byte	0x22e
 781 01e2 0C       		.uleb128 0xc
 782 01e3 3A020000 		.4byte	.LASF26
 783 01e7 01       		.byte	0x1
 784 01e8 38       		.byte	0x38
 785 01e9 B3000000 		.4byte	0xb3
 786 01ed 03       		.uleb128 0x3
 787 01ee 91       		.byte	0x91
ARM GAS  C:\Users\Snufkin\AppData\Local\Temp\ccBazRk1.s 			page 17


 788 01ef B47F     		.sleb128 -76
 789 01f1 0C       		.uleb128 0xc
 790 01f2 D4010000 		.4byte	.LASF19
 791 01f6 01       		.byte	0x1
 792 01f7 38       		.byte	0x38
 793 01f8 B3000000 		.4byte	0xb3
 794 01fc 03       		.uleb128 0x3
 795 01fd 91       		.byte	0x91
 796 01fe B07F     		.sleb128 -80
 797 0200 0C       		.uleb128 0xc
 798 0201 E7000000 		.4byte	.LASF27
 799 0205 01       		.byte	0x1
 800 0206 38       		.byte	0x38
 801 0207 B3000000 		.4byte	0xb3
 802 020b 03       		.uleb128 0x3
 803 020c 91       		.byte	0x91
 804 020d AC7F     		.sleb128 -84
 805 020f 0C       		.uleb128 0xc
 806 0210 1E020000 		.4byte	.LASF28
 807 0214 01       		.byte	0x1
 808 0215 38       		.byte	0x38
 809 0216 B3000000 		.4byte	0xb3
 810 021a 03       		.uleb128 0x3
 811 021b 91       		.byte	0x91
 812 021c A87F     		.sleb128 -88
 813 021e 09       		.uleb128 0x9
 814 021f 62756600 		.ascii	"buf\000"
 815 0223 01       		.byte	0x1
 816 0224 39       		.byte	0x39
 817 0225 02010000 		.4byte	0x102
 818 0229 03       		.uleb128 0x3
 819 022a 91       		.byte	0x91
 820 022b BC7F     		.sleb128 -68
 821 022d 00       		.byte	0
 822 022e 07       		.uleb128 0x7
 823 022f 34010000 		.4byte	.LASF29
 824 0233 01       		.byte	0x1
 825 0234 44       		.byte	0x44
 826 0235 76000000 		.4byte	0x76
 827 0239 00000000 		.4byte	.LFB39
 828 023d 48000000 		.4byte	.LFE39-.LFB39
 829 0241 01       		.uleb128 0x1
 830 0242 9C       		.byte	0x9c
 831 0243 75020000 		.4byte	0x275
 832 0247 0C       		.uleb128 0xc
 833 0248 6C010000 		.4byte	.LASF30
 834 024c 01       		.byte	0x1
 835 024d 44       		.byte	0x44
 836 024e 75020000 		.4byte	0x275
 837 0252 03       		.uleb128 0x3
 838 0253 91       		.byte	0x91
 839 0254 B47F     		.sleb128 -76
 840 0256 08       		.uleb128 0x8
 841 0257 68756D00 		.ascii	"hum\000"
 842 025b 01       		.byte	0x1
 843 025c 44       		.byte	0x44
 844 025d 75020000 		.4byte	0x275
ARM GAS  C:\Users\Snufkin\AppData\Local\Temp\ccBazRk1.s 			page 18


 845 0261 03       		.uleb128 0x3
 846 0262 91       		.byte	0x91
 847 0263 B07F     		.sleb128 -80
 848 0265 09       		.uleb128 0x9
 849 0266 62756600 		.ascii	"buf\000"
 850 026a 01       		.byte	0x1
 851 026b 45       		.byte	0x45
 852 026c 02010000 		.4byte	0x102
 853 0270 03       		.uleb128 0x3
 854 0271 91       		.byte	0x91
 855 0272 BC7F     		.sleb128 -68
 856 0274 00       		.byte	0
 857 0275 05       		.uleb128 0x5
 858 0276 04       		.byte	0x4
 859 0277 8C000000 		.4byte	0x8c
 860 027b 07       		.uleb128 0x7
 861 027c 56020000 		.4byte	.LASF31
 862 0280 01       		.byte	0x1
 863 0281 4E       		.byte	0x4e
 864 0282 76000000 		.4byte	0x76
 865 0286 00000000 		.4byte	.LFB40
 866 028a 40000000 		.4byte	.LFE40-.LFB40
 867 028e 01       		.uleb128 0x1
 868 028f 9C       		.byte	0x9c
 869 0290 B3020000 		.4byte	0x2b3
 870 0294 0C       		.uleb128 0xc
 871 0295 11000000 		.4byte	.LASF32
 872 0299 01       		.byte	0x1
 873 029a 4E       		.byte	0x4e
 874 029b 75020000 		.4byte	0x275
 875 029f 03       		.uleb128 0x3
 876 02a0 91       		.byte	0x91
 877 02a1 B47F     		.sleb128 -76
 878 02a3 09       		.uleb128 0x9
 879 02a4 62756600 		.ascii	"buf\000"
 880 02a8 01       		.byte	0x1
 881 02a9 4F       		.byte	0x4f
 882 02aa 02010000 		.4byte	0x102
 883 02ae 03       		.uleb128 0x3
 884 02af 91       		.byte	0x91
 885 02b0 BC7F     		.sleb128 -68
 886 02b2 00       		.byte	0
 887 02b3 07       		.uleb128 0x7
 888 02b4 41020000 		.4byte	.LASF33
 889 02b8 01       		.byte	0x1
 890 02b9 56       		.byte	0x56
 891 02ba 76000000 		.4byte	0x76
 892 02be 00000000 		.4byte	.LFB41
 893 02c2 48000000 		.4byte	.LFE41-.LFB41
 894 02c6 01       		.uleb128 0x1
 895 02c7 9C       		.byte	0x9c
 896 02c8 FA020000 		.4byte	0x2fa
 897 02cc 0C       		.uleb128 0xc
 898 02cd 0E020000 		.4byte	.LASF23
 899 02d1 01       		.byte	0x1
 900 02d2 56       		.byte	0x56
 901 02d3 6B000000 		.4byte	0x6b
ARM GAS  C:\Users\Snufkin\AppData\Local\Temp\ccBazRk1.s 			page 19


 902 02d7 03       		.uleb128 0x3
 903 02d8 91       		.byte	0x91
 904 02d9 AF7F     		.sleb128 -81
 905 02db 0C       		.uleb128 0xc
 906 02dc 29020000 		.4byte	.LASF34
 907 02e0 01       		.byte	0x1
 908 02e1 56       		.byte	0x56
 909 02e2 FA020000 		.4byte	0x2fa
 910 02e6 03       		.uleb128 0x3
 911 02e7 91       		.byte	0x91
 912 02e8 A87F     		.sleb128 -88
 913 02ea 09       		.uleb128 0x9
 914 02eb 62756600 		.ascii	"buf\000"
 915 02ef 01       		.byte	0x1
 916 02f0 57       		.byte	0x57
 917 02f1 02010000 		.4byte	0x102
 918 02f5 03       		.uleb128 0x3
 919 02f6 91       		.byte	0x91
 920 02f7 B47F     		.sleb128 -76
 921 02f9 00       		.byte	0
 922 02fa 05       		.uleb128 0x5
 923 02fb 04       		.byte	0x4
 924 02fc 81000000 		.4byte	0x81
 925 0300 0D       		.uleb128 0xd
 926 0301 4C020000 		.4byte	.LASF35
 927 0305 01       		.byte	0x1
 928 0306 11       		.byte	0x11
 929 0307 11030000 		.4byte	0x311
 930 030b 05       		.uleb128 0x5
 931 030c 03       		.byte	0x3
 932 030d 00000000 		.4byte	returnVal
 933 0311 0E       		.uleb128 0xe
 934 0312 6B000000 		.4byte	0x6b
 935 0316 0F       		.uleb128 0xf
 936 0317 49010000 		.4byte	.LASF40
 937 031b 01       		.byte	0x1
 938 031c 14       		.byte	0x14
 939 031d 6B000000 		.4byte	0x6b
 940 0321 05       		.uleb128 0x5
 941 0322 03       		.byte	0x3
 942 0323 00000000 		.4byte	irrigationStatus
 943 0327 00       		.byte	0
 944              		.section	.debug_abbrev,"",%progbits
 945              	.Ldebug_abbrev0:
 946 0000 01       		.uleb128 0x1
 947 0001 11       		.uleb128 0x11
 948 0002 01       		.byte	0x1
 949 0003 25       		.uleb128 0x25
 950 0004 0E       		.uleb128 0xe
 951 0005 13       		.uleb128 0x13
 952 0006 0B       		.uleb128 0xb
 953 0007 03       		.uleb128 0x3
 954 0008 0E       		.uleb128 0xe
 955 0009 1B       		.uleb128 0x1b
 956 000a 0E       		.uleb128 0xe
 957 000b 55       		.uleb128 0x55
 958 000c 17       		.uleb128 0x17
ARM GAS  C:\Users\Snufkin\AppData\Local\Temp\ccBazRk1.s 			page 20


 959 000d 11       		.uleb128 0x11
 960 000e 01       		.uleb128 0x1
 961 000f 10       		.uleb128 0x10
 962 0010 17       		.uleb128 0x17
 963 0011 00       		.byte	0
 964 0012 00       		.byte	0
 965 0013 02       		.uleb128 0x2
 966 0014 24       		.uleb128 0x24
 967 0015 00       		.byte	0
 968 0016 0B       		.uleb128 0xb
 969 0017 0B       		.uleb128 0xb
 970 0018 3E       		.uleb128 0x3e
 971 0019 0B       		.uleb128 0xb
 972 001a 03       		.uleb128 0x3
 973 001b 0E       		.uleb128 0xe
 974 001c 00       		.byte	0
 975 001d 00       		.byte	0
 976 001e 03       		.uleb128 0x3
 977 001f 24       		.uleb128 0x24
 978 0020 00       		.byte	0
 979 0021 0B       		.uleb128 0xb
 980 0022 0B       		.uleb128 0xb
 981 0023 3E       		.uleb128 0x3e
 982 0024 0B       		.uleb128 0xb
 983 0025 03       		.uleb128 0x3
 984 0026 08       		.uleb128 0x8
 985 0027 00       		.byte	0
 986 0028 00       		.byte	0
 987 0029 04       		.uleb128 0x4
 988 002a 16       		.uleb128 0x16
 989 002b 00       		.byte	0
 990 002c 03       		.uleb128 0x3
 991 002d 0E       		.uleb128 0xe
 992 002e 3A       		.uleb128 0x3a
 993 002f 0B       		.uleb128 0xb
 994 0030 3B       		.uleb128 0x3b
 995 0031 0B       		.uleb128 0xb
 996 0032 49       		.uleb128 0x49
 997 0033 13       		.uleb128 0x13
 998 0034 00       		.byte	0
 999 0035 00       		.byte	0
 1000 0036 05       		.uleb128 0x5
 1001 0037 0F       		.uleb128 0xf
 1002 0038 00       		.byte	0
 1003 0039 0B       		.uleb128 0xb
 1004 003a 0B       		.uleb128 0xb
 1005 003b 49       		.uleb128 0x49
 1006 003c 13       		.uleb128 0x13
 1007 003d 00       		.byte	0
 1008 003e 00       		.byte	0
 1009 003f 06       		.uleb128 0x6
 1010 0040 2E       		.uleb128 0x2e
 1011 0041 00       		.byte	0
 1012 0042 3F       		.uleb128 0x3f
 1013 0043 19       		.uleb128 0x19
 1014 0044 03       		.uleb128 0x3
 1015 0045 0E       		.uleb128 0xe
ARM GAS  C:\Users\Snufkin\AppData\Local\Temp\ccBazRk1.s 			page 21


 1016 0046 3A       		.uleb128 0x3a
 1017 0047 0B       		.uleb128 0xb
 1018 0048 3B       		.uleb128 0x3b
 1019 0049 0B       		.uleb128 0xb
 1020 004a 27       		.uleb128 0x27
 1021 004b 19       		.uleb128 0x19
 1022 004c 11       		.uleb128 0x11
 1023 004d 01       		.uleb128 0x1
 1024 004e 12       		.uleb128 0x12
 1025 004f 06       		.uleb128 0x6
 1026 0050 40       		.uleb128 0x40
 1027 0051 18       		.uleb128 0x18
 1028 0052 9742     		.uleb128 0x2117
 1029 0054 19       		.uleb128 0x19
 1030 0055 00       		.byte	0
 1031 0056 00       		.byte	0
 1032 0057 07       		.uleb128 0x7
 1033 0058 2E       		.uleb128 0x2e
 1034 0059 01       		.byte	0x1
 1035 005a 3F       		.uleb128 0x3f
 1036 005b 19       		.uleb128 0x19
 1037 005c 03       		.uleb128 0x3
 1038 005d 0E       		.uleb128 0xe
 1039 005e 3A       		.uleb128 0x3a
 1040 005f 0B       		.uleb128 0xb
 1041 0060 3B       		.uleb128 0x3b
 1042 0061 0B       		.uleb128 0xb
 1043 0062 27       		.uleb128 0x27
 1044 0063 19       		.uleb128 0x19
 1045 0064 49       		.uleb128 0x49
 1046 0065 13       		.uleb128 0x13
 1047 0066 11       		.uleb128 0x11
 1048 0067 01       		.uleb128 0x1
 1049 0068 12       		.uleb128 0x12
 1050 0069 06       		.uleb128 0x6
 1051 006a 40       		.uleb128 0x40
 1052 006b 18       		.uleb128 0x18
 1053 006c 9642     		.uleb128 0x2116
 1054 006e 19       		.uleb128 0x19
 1055 006f 01       		.uleb128 0x1
 1056 0070 13       		.uleb128 0x13
 1057 0071 00       		.byte	0
 1058 0072 00       		.byte	0
 1059 0073 08       		.uleb128 0x8
 1060 0074 05       		.uleb128 0x5
 1061 0075 00       		.byte	0
 1062 0076 03       		.uleb128 0x3
 1063 0077 08       		.uleb128 0x8
 1064 0078 3A       		.uleb128 0x3a
 1065 0079 0B       		.uleb128 0xb
 1066 007a 3B       		.uleb128 0x3b
 1067 007b 0B       		.uleb128 0xb
 1068 007c 49       		.uleb128 0x49
 1069 007d 13       		.uleb128 0x13
 1070 007e 02       		.uleb128 0x2
 1071 007f 18       		.uleb128 0x18
 1072 0080 00       		.byte	0
ARM GAS  C:\Users\Snufkin\AppData\Local\Temp\ccBazRk1.s 			page 22


 1073 0081 00       		.byte	0
 1074 0082 09       		.uleb128 0x9
 1075 0083 34       		.uleb128 0x34
 1076 0084 00       		.byte	0
 1077 0085 03       		.uleb128 0x3
 1078 0086 08       		.uleb128 0x8
 1079 0087 3A       		.uleb128 0x3a
 1080 0088 0B       		.uleb128 0xb
 1081 0089 3B       		.uleb128 0x3b
 1082 008a 0B       		.uleb128 0xb
 1083 008b 49       		.uleb128 0x49
 1084 008c 13       		.uleb128 0x13
 1085 008d 02       		.uleb128 0x2
 1086 008e 18       		.uleb128 0x18
 1087 008f 00       		.byte	0
 1088 0090 00       		.byte	0
 1089 0091 0A       		.uleb128 0xa
 1090 0092 01       		.uleb128 0x1
 1091 0093 01       		.byte	0x1
 1092 0094 49       		.uleb128 0x49
 1093 0095 13       		.uleb128 0x13
 1094 0096 01       		.uleb128 0x1
 1095 0097 13       		.uleb128 0x13
 1096 0098 00       		.byte	0
 1097 0099 00       		.byte	0
 1098 009a 0B       		.uleb128 0xb
 1099 009b 21       		.uleb128 0x21
 1100 009c 00       		.byte	0
 1101 009d 49       		.uleb128 0x49
 1102 009e 13       		.uleb128 0x13
 1103 009f 2F       		.uleb128 0x2f
 1104 00a0 0B       		.uleb128 0xb
 1105 00a1 00       		.byte	0
 1106 00a2 00       		.byte	0
 1107 00a3 0C       		.uleb128 0xc
 1108 00a4 05       		.uleb128 0x5
 1109 00a5 00       		.byte	0
 1110 00a6 03       		.uleb128 0x3
 1111 00a7 0E       		.uleb128 0xe
 1112 00a8 3A       		.uleb128 0x3a
 1113 00a9 0B       		.uleb128 0xb
 1114 00aa 3B       		.uleb128 0x3b
 1115 00ab 0B       		.uleb128 0xb
 1116 00ac 49       		.uleb128 0x49
 1117 00ad 13       		.uleb128 0x13
 1118 00ae 02       		.uleb128 0x2
 1119 00af 18       		.uleb128 0x18
 1120 00b0 00       		.byte	0
 1121 00b1 00       		.byte	0
 1122 00b2 0D       		.uleb128 0xd
 1123 00b3 34       		.uleb128 0x34
 1124 00b4 00       		.byte	0
 1125 00b5 03       		.uleb128 0x3
 1126 00b6 0E       		.uleb128 0xe
 1127 00b7 3A       		.uleb128 0x3a
 1128 00b8 0B       		.uleb128 0xb
 1129 00b9 3B       		.uleb128 0x3b
ARM GAS  C:\Users\Snufkin\AppData\Local\Temp\ccBazRk1.s 			page 23


 1130 00ba 0B       		.uleb128 0xb
 1131 00bb 49       		.uleb128 0x49
 1132 00bc 13       		.uleb128 0x13
 1133 00bd 02       		.uleb128 0x2
 1134 00be 18       		.uleb128 0x18
 1135 00bf 00       		.byte	0
 1136 00c0 00       		.byte	0
 1137 00c1 0E       		.uleb128 0xe
 1138 00c2 26       		.uleb128 0x26
 1139 00c3 00       		.byte	0
 1140 00c4 49       		.uleb128 0x49
 1141 00c5 13       		.uleb128 0x13
 1142 00c6 00       		.byte	0
 1143 00c7 00       		.byte	0
 1144 00c8 0F       		.uleb128 0xf
 1145 00c9 34       		.uleb128 0x34
 1146 00ca 00       		.byte	0
 1147 00cb 03       		.uleb128 0x3
 1148 00cc 0E       		.uleb128 0xe
 1149 00cd 3A       		.uleb128 0x3a
 1150 00ce 0B       		.uleb128 0xb
 1151 00cf 3B       		.uleb128 0x3b
 1152 00d0 0B       		.uleb128 0xb
 1153 00d1 49       		.uleb128 0x49
 1154 00d2 13       		.uleb128 0x13
 1155 00d3 3F       		.uleb128 0x3f
 1156 00d4 19       		.uleb128 0x19
 1157 00d5 02       		.uleb128 0x2
 1158 00d6 18       		.uleb128 0x18
 1159 00d7 00       		.byte	0
 1160 00d8 00       		.byte	0
 1161 00d9 00       		.byte	0
 1162              		.section	.debug_aranges,"",%progbits
 1163 0000 5C000000 		.4byte	0x5c
 1164 0004 0200     		.2byte	0x2
 1165 0006 00000000 		.4byte	.Ldebug_info0
 1166 000a 04       		.byte	0x4
 1167 000b 00       		.byte	0
 1168 000c 0000     		.2byte	0
 1169 000e 0000     		.2byte	0
 1170 0010 00000000 		.4byte	.LFB33
 1171 0014 08000000 		.4byte	.LFE33-.LFB33
 1172 0018 00000000 		.4byte	.LFB34
 1173 001c 38000000 		.4byte	.LFE34-.LFB34
 1174 0020 00000000 		.4byte	.LFB35
 1175 0024 38000000 		.4byte	.LFE35-.LFB35
 1176 0028 00000000 		.4byte	.LFB36
 1177 002c 38000000 		.4byte	.LFE36-.LFB36
 1178 0030 00000000 		.4byte	.LFB37
 1179 0034 48000000 		.4byte	.LFE37-.LFB37
 1180 0038 00000000 		.4byte	.LFB38
 1181 003c 54000000 		.4byte	.LFE38-.LFB38
 1182 0040 00000000 		.4byte	.LFB39
 1183 0044 48000000 		.4byte	.LFE39-.LFB39
 1184 0048 00000000 		.4byte	.LFB40
 1185 004c 40000000 		.4byte	.LFE40-.LFB40
 1186 0050 00000000 		.4byte	.LFB41
ARM GAS  C:\Users\Snufkin\AppData\Local\Temp\ccBazRk1.s 			page 24


 1187 0054 48000000 		.4byte	.LFE41-.LFB41
 1188 0058 00000000 		.4byte	0
 1189 005c 00000000 		.4byte	0
 1190              		.section	.debug_ranges,"",%progbits
 1191              	.Ldebug_ranges0:
 1192 0000 00000000 		.4byte	.LFB33
 1193 0004 08000000 		.4byte	.LFE33
 1194 0008 00000000 		.4byte	.LFB34
 1195 000c 38000000 		.4byte	.LFE34
 1196 0010 00000000 		.4byte	.LFB35
 1197 0014 38000000 		.4byte	.LFE35
 1198 0018 00000000 		.4byte	.LFB36
 1199 001c 38000000 		.4byte	.LFE36
 1200 0020 00000000 		.4byte	.LFB37
 1201 0024 48000000 		.4byte	.LFE37
 1202 0028 00000000 		.4byte	.LFB38
 1203 002c 54000000 		.4byte	.LFE38
 1204 0030 00000000 		.4byte	.LFB39
 1205 0034 48000000 		.4byte	.LFE39
 1206 0038 00000000 		.4byte	.LFB40
 1207 003c 40000000 		.4byte	.LFE40
 1208 0040 00000000 		.4byte	.LFB41
 1209 0044 48000000 		.4byte	.LFE41
 1210 0048 00000000 		.4byte	0
 1211 004c 00000000 		.4byte	0
 1212              		.section	.debug_line,"",%progbits
 1213              	.Ldebug_line0:
 1214 0000 03010000 		.section	.debug_str,"MS",%progbits,1
 1214      02004A00 
 1214      00000201 
 1214      FB0E0D00 
 1214      01010101 
 1215              	.LASF22:
 1216 0000 61646A75 		.ascii	"adjustIrrigation\000"
 1216      73744972 
 1216      72696761 
 1216      74696F6E 
 1216      00
 1217              	.LASF32:
 1218 0011 6C696768 		.ascii	"light\000"
 1218      7400
 1219              	.LASF17:
 1220 0017 61646A75 		.ascii	"adjustWindow\000"
 1220      73745769 
 1220      6E646F77 
 1220      00
 1221              	.LASF37:
 1222 0024 2E5C4932 		.ascii	".\\I2C_Class.c\000"
 1222      435F436C 
 1222      6173732E 
 1222      6300
 1223              	.LASF3:
 1224 0032 73686F72 		.ascii	"short unsigned int\000"
 1224      7420756E 
 1224      7369676E 
 1224      65642069 
 1224      6E7400
ARM GAS  C:\Users\Snufkin\AppData\Local\Temp\ccBazRk1.s 			page 25


 1225              	.LASF9:
 1226 0045 75696E74 		.ascii	"uint8\000"
 1226      3800
 1227              	.LASF13:
 1228 004b 666C6F61 		.ascii	"float\000"
 1228      7400
 1229              	.LASF36:
 1230 0051 474E5520 		.ascii	"GNU C 4.8.4 20140526 (release) [ARM/embedded-4_8-br"
 1230      4320342E 
 1230      382E3420 
 1230      32303134 
 1230      30353236 
 1231 0084 616E6368 		.ascii	"anch revision 211358] -mcpu=cortex-m0 -mthumb -g -O"
 1231      20726576 
 1231      6973696F 
 1231      6E203231 
 1231      31333538 
 1232 00b7 30202D66 		.ascii	"0 -ffunction-sections\000"
 1232      66756E63 
 1232      74696F6E 
 1232      2D736563 
 1232      74696F6E 
 1233              	.LASF0:
 1234 00cd 7369676E 		.ascii	"signed char\000"
 1234      65642063 
 1234      68617200 
 1235              	.LASF1:
 1236 00d9 756E7369 		.ascii	"unsigned char\000"
 1236      676E6564 
 1236      20636861 
 1236      7200
 1237              	.LASF27:
 1238 00e7 76656E74 		.ascii	"vent\000"
 1238      00
 1239              	.LASF24:
 1240 00ec 6F6E4F66 		.ascii	"onOff\000"
 1240      6600
 1241              	.LASF20:
 1242 00f2 61646A75 		.ascii	"adjustVentilation\000"
 1242      73745665 
 1242      6E74696C 
 1242      6174696F 
 1242      6E00
 1243              	.LASF11:
 1244 0104 696E7431 		.ascii	"int16\000"
 1244      3600
 1245              	.LASF5:
 1246 010a 6C6F6E67 		.ascii	"long unsigned int\000"
 1246      20756E73 
 1246      69676E65 
 1246      6420696E 
 1246      7400
 1247              	.LASF25:
 1248 011c 67657441 		.ascii	"getActuatorStatus\000"
 1248      63747561 
 1248      746F7253 
 1248      74617475 
ARM GAS  C:\Users\Snufkin\AppData\Local\Temp\ccBazRk1.s 			page 26


 1248      7300
 1249              	.LASF12:
 1250 012e 696E7433 		.ascii	"int32\000"
 1250      3200
 1251              	.LASF29:
 1252 0134 67657454 		.ascii	"getTempAndHum\000"
 1252      656D7041 
 1252      6E644875 
 1252      6D00
 1253              	.LASF14:
 1254 0142 646F7562 		.ascii	"double\000"
 1254      6C6500
 1255              	.LASF40:
 1256 0149 69727269 		.ascii	"irrigationStatus\000"
 1256      67617469 
 1256      6F6E5374 
 1256      61747573 
 1256      00
 1257              	.LASF10:
 1258 015a 696E7438 		.ascii	"int8\000"
 1258      00
 1259              	.LASF8:
 1260 015f 756E7369 		.ascii	"unsigned int\000"
 1260      676E6564 
 1260      20696E74 
 1260      00
 1261              	.LASF30:
 1262 016c 74656D70 		.ascii	"temp\000"
 1262      00
 1263              	.LASF7:
 1264 0171 6C6F6E67 		.ascii	"long long unsigned int\000"
 1264      206C6F6E 
 1264      6720756E 
 1264      7369676E 
 1264      65642069 
 1265              	.LASF38:
 1266 0188 433A5C55 		.ascii	"C:\\Users\\Snufkin\\Documents\\GitHub\\PSoC_Master\\"
 1266      73657273 
 1266      5C536E75 
 1266      666B696E 
 1266      5C446F63 
 1267 01b6 50536F43 		.ascii	"PSoC_Master\\PSoC_Master.cydsn\000"
 1267      5F4D6173 
 1267      7465725C 
 1267      50536F43 
 1267      5F4D6173 
 1268              	.LASF19:
 1269 01d4 68656174 		.ascii	"heat\000"
 1269      00
 1270              	.LASF39:
 1271 01d9 696E6974 		.ascii	"initI2C\000"
 1271      49324300 
 1272              	.LASF21:
 1273 01e1 73706565 		.ascii	"speed\000"
 1273      6400
 1274              	.LASF16:
 1275 01e7 73697A65 		.ascii	"sizetype\000"
ARM GAS  C:\Users\Snufkin\AppData\Local\Temp\ccBazRk1.s 			page 27


 1275      74797065 
 1275      00
 1276              	.LASF18:
 1277 01f0 61646A75 		.ascii	"adjustHeat\000"
 1277      73744865 
 1277      617400
 1278              	.LASF6:
 1279 01fb 6C6F6E67 		.ascii	"long long int\000"
 1279      206C6F6E 
 1279      6720696E 
 1279      7400
 1280              	.LASF15:
 1281 0209 63686172 		.ascii	"char\000"
 1281      00
 1282              	.LASF23:
 1283 020e 696E6465 		.ascii	"index\000"
 1283      7800
 1284              	.LASF2:
 1285 0214 73686F72 		.ascii	"short int\000"
 1285      7420696E 
 1285      7400
 1286              	.LASF28:
 1287 021e 69727269 		.ascii	"irrigation\000"
 1287      67617469 
 1287      6F6E00
 1288              	.LASF34:
 1289 0229 736F696C 		.ascii	"soilHum\000"
 1289      48756D00 
 1290              	.LASF4:
 1291 0231 6C6F6E67 		.ascii	"long int\000"
 1291      20696E74 
 1291      00
 1292              	.LASF26:
 1293 023a 77696E64 		.ascii	"window\000"
 1293      6F7700
 1294              	.LASF33:
 1295 0241 67657453 		.ascii	"getSoilHum\000"
 1295      6F696C48 
 1295      756D00
 1296              	.LASF35:
 1297 024c 72657475 		.ascii	"returnVal\000"
 1297      726E5661 
 1297      6C00
 1298              	.LASF31:
 1299 0256 6765744C 		.ascii	"getLight\000"
 1299      69676874 
 1299      00
 1300              		.ident	"GCC: (GNU Tools for ARM Embedded Processors) 4.8.4 20140526 (release) [ARM/embedded-4_8-br
