ARM GAS  C:\Users\Snufkin\AppData\Local\Temp\ccDxhUWt.s 			page 1


   1              		.cpu cortex-m0
   2              		.fpu softvfp
   3              		.eabi_attribute 20, 1
   4              		.eabi_attribute 21, 1
   5              		.eabi_attribute 23, 3
   6              		.eabi_attribute 24, 1
   7              		.eabi_attribute 25, 1
   8              		.eabi_attribute 26, 1
   9              		.eabi_attribute 30, 6
  10              		.eabi_attribute 34, 0
  11              		.eabi_attribute 18, 4
  12              		.code	16
  13              		.file	"I2C_Class.c"
  14              		.text
  15              	.Ltext0:
  16              		.cfi_sections	.debug_frame
  17              		.data
  18              		.type	irrigationStatus, %object
  19              		.size	irrigationStatus, 1
  20              	irrigationStatus:
  21 0000 C0       		.byte	-64
  22 0001 000000   		.align	2
  23              		.type	size, %object
  24              		.size	size, 4
  25              	size:
  26 0004 01000000 		.word	1
  27              		.section	.text.initI2C,"ax",%progbits
  28              		.align	2
  29              		.global	initI2C
  30              		.code	16
  31              		.thumb_func
  32              		.type	initI2C, %function
  33              	initI2C:
  34              	.LFB33:
  35              		.file 1 ".\\I2C_Class.c"
   1:.\I2C_Class.c **** /* ========================================
   2:.\I2C_Class.c ****  * 
   3:.\I2C_Class.c ****  * AutoGreen - PSoC_Master
   4:.\I2C_Class.c ****  * I2C_Class.c
   5:.\I2C_Class.c ****  * (Description)
   6:.\I2C_Class.c ****  * PRJ3 - GRP9
   7:.\I2C_Class.c ****  * 2015-04-15
   8:.\I2C_Class.c ****  *
   9:.\I2C_Class.c ****  * ========================================
  10:.\I2C_Class.c **** */
  11:.\I2C_Class.c **** 
  12:.\I2C_Class.c **** // Include files
  13:.\I2C_Class.c **** #include "I2C_Class.h"
  14:.\I2C_Class.c **** 
  15:.\I2C_Class.c **** // Definitions
  16:.\I2C_Class.c **** #define TEMP_AND_HUM_SENSOR_ADDRESS 0x27
  17:.\I2C_Class.c **** #define ACTUATOR_ADRESS 0x42
  18:.\I2C_Class.c **** #define LIGHT_SENSOR_COMMAND_ADDRESS 0x00
  19:.\I2C_Class.c **** #define LIGHT_SENSOR_CONTROL_ADDRESS 0x01
  20:.\I2C_Class.c **** #define LIGHT_SENSOR_LSB 0x04  
  21:.\I2C_Class.c **** #define LIGHT_SENSOR_MSB 0x05
  22:.\I2C_Class.c **** 
ARM GAS  C:\Users\Snufkin\AppData\Local\Temp\ccDxhUWt.s 			page 2


  23:.\I2C_Class.c **** //Uncomment to enable debugging
  24:.\I2C_Class.c **** //#define debugging 
  25:.\I2C_Class.c **** 
  26:.\I2C_Class.c **** // Private data members
  27:.\I2C_Class.c **** static uint8 irrigationStatus = 0b11000000;
  28:.\I2C_Class.c **** static int size = 1;
  29:.\I2C_Class.c **** 
  30:.\I2C_Class.c **** // Private prototypes
  31:.\I2C_Class.c **** 
  32:.\I2C_Class.c **** void initI2C(void){
  36              		.loc 1 32 0
  37              		.cfi_startproc
  38 0000 F0B5     		push	{r4, r5, r6, r7, lr}
  39              		.cfi_def_cfa_offset 20
  40              		.cfi_offset 4, -20
  41              		.cfi_offset 5, -16
  42              		.cfi_offset 6, -12
  43              		.cfi_offset 7, -8
  44              		.cfi_offset 14, -4
  45 0002 95B0     		sub	sp, sp, #84
  46              		.cfi_def_cfa_offset 104
  47 0004 00AF     		add	r7, sp, #0
  48              		.cfi_def_cfa_register 7
  49 0006 6B46     		mov	r3, sp
  50 0008 1E1C     		mov	r6, r3
  33:.\I2C_Class.c ****     I2C_Start();                    // Starts I2C component
  51              		.loc 1 33 0
  52 000a FFF7FEFF 		bl	I2C_Start
  34:.\I2C_Class.c ****     I2C_I2CMasterClearStatus();     // Clear status flags
  53              		.loc 1 34 0
  54 000e FFF7FEFF 		bl	I2C_I2CMasterClearStatus
  35:.\I2C_Class.c ****     CyGlobalIntEnable;
  55              		.loc 1 35 0
  56              	@ 35 ".\I2C_Class.c" 1
  57 0012 62B6     		CPSIE   i
  58              	@ 0 "" 2
  36:.\I2C_Class.c ****     
  37:.\I2C_Class.c ****     // Light sensor init.
  38:.\I2C_Class.c ****     /*sensor is set up to internal integration timing, light count data in signed and 2^(8) clock c
  39:.\I2C_Class.c ****     uint8 lightCommand[size], lightControl[size];
  59              		.loc 1 39 0
  60              		.code	16
  61 0014 3C4B     		ldr	r3, .L3
  62 0016 1A68     		ldr	r2, [r3]
  63 0018 531E     		sub	r3, r2, #1
  64 001a FB64     		str	r3, [r7, #76]
  65 001c 131C     		mov	r3, r2
  66 001e 1C1C     		mov	r4, r3
  67 0020 0023     		mov	r3, #0
  68 0022 1D1C     		mov	r5, r3
  69 0024 630F     		lsr	r3, r4, #29
  70 0026 E900     		lsl	r1, r5, #3
  71 0028 7963     		str	r1, [r7, #52]
  72 002a 796B     		ldr	r1, [r7, #52]
  73 002c 1943     		orr	r1, r3
  74 002e 7963     		str	r1, [r7, #52]
  75 0030 E300     		lsl	r3, r4, #3
ARM GAS  C:\Users\Snufkin\AppData\Local\Temp\ccDxhUWt.s 			page 3


  76 0032 131C     		mov	r3, r2
  77 0034 BB62     		str	r3, [r7, #40]
  78 0036 0023     		mov	r3, #0
  79 0038 FB62     		str	r3, [r7, #44]
  80 003a B96A     		ldr	r1, [r7, #40]
  81 003c 4B0F     		lsr	r3, r1, #29
  82 003e F96A     		ldr	r1, [r7, #44]
  83 0040 C900     		lsl	r1, r1, #3
  84 0042 7962     		str	r1, [r7, #36]
  85 0044 796A     		ldr	r1, [r7, #36]
  86 0046 1943     		orr	r1, r3
  87 0048 7962     		str	r1, [r7, #36]
  88 004a BB6A     		ldr	r3, [r7, #40]
  89 004c DB00     		lsl	r3, r3, #3
  90 004e 131C     		mov	r3, r2
  91 0050 0733     		add	r3, r3, #7
  92 0052 DB08     		lsr	r3, r3, #3
  93 0054 DB00     		lsl	r3, r3, #3
  94 0056 6946     		mov	r1, sp
  95 0058 C91A     		sub	r1, r1, r3
  96 005a 8D46     		mov	sp, r1
  97 005c 6B46     		mov	r3, sp
  98 005e 0033     		add	r3, r3, #0
  99 0060 BB64     		str	r3, [r7, #72]
 100 0062 294B     		ldr	r3, .L3
 101 0064 1B68     		ldr	r3, [r3]
 102 0066 5A1E     		sub	r2, r3, #1
 103 0068 7A64     		str	r2, [r7, #68]
 104 006a 1A1C     		mov	r2, r3
 105 006c BA61     		str	r2, [r7, #24]
 106 006e 0022     		mov	r2, #0
 107 0070 FA61     		str	r2, [r7, #28]
 108 0072 B969     		ldr	r1, [r7, #24]
 109 0074 4A0F     		lsr	r2, r1, #29
 110 0076 F969     		ldr	r1, [r7, #28]
 111 0078 C900     		lsl	r1, r1, #3
 112 007a 7961     		str	r1, [r7, #20]
 113 007c 7969     		ldr	r1, [r7, #20]
 114 007e 1143     		orr	r1, r2
 115 0080 7961     		str	r1, [r7, #20]
 116 0082 BA69     		ldr	r2, [r7, #24]
 117 0084 D200     		lsl	r2, r2, #3
 118 0086 1A1C     		mov	r2, r3
 119 0088 BA60     		str	r2, [r7, #8]
 120 008a 0022     		mov	r2, #0
 121 008c FA60     		str	r2, [r7, #12]
 122 008e B968     		ldr	r1, [r7, #8]
 123 0090 4A0F     		lsr	r2, r1, #29
 124 0092 F968     		ldr	r1, [r7, #12]
 125 0094 C900     		lsl	r1, r1, #3
 126 0096 7960     		str	r1, [r7, #4]
 127 0098 7968     		ldr	r1, [r7, #4]
 128 009a 1143     		orr	r1, r2
 129 009c 7960     		str	r1, [r7, #4]
 130 009e BA68     		ldr	r2, [r7, #8]
 131 00a0 D200     		lsl	r2, r2, #3
 132 00a2 0733     		add	r3, r3, #7
ARM GAS  C:\Users\Snufkin\AppData\Local\Temp\ccDxhUWt.s 			page 4


 133 00a4 DB08     		lsr	r3, r3, #3
 134 00a6 DB00     		lsl	r3, r3, #3
 135 00a8 6946     		mov	r1, sp
 136 00aa C91A     		sub	r1, r1, r3
 137 00ac 8D46     		mov	sp, r1
 138 00ae 6B46     		mov	r3, sp
 139 00b0 0033     		add	r3, r3, #0
 140 00b2 3B64     		str	r3, [r7, #64]
  40:.\I2C_Class.c ****     lightCommand[0] = 0b10001010;       //ADC-normal, Normal operation, Internal timing, signed out
 141              		.loc 1 40 0
 142 00b4 BB6C     		ldr	r3, [r7, #72]
 143 00b6 8A22     		mov	r2, #138
 144 00b8 1A70     		strb	r2, [r3]
  41:.\I2C_Class.c ****     lightControl[0] = 0b00001100;       // Lux-range = 128000. Calculation: ((range(k)?*(100k/100k)
 145              		.loc 1 41 0
 146 00ba 3B6C     		ldr	r3, [r7, #64]
 147 00bc 0C22     		mov	r2, #12
 148 00be 1A70     		strb	r2, [r3]
  42:.\I2C_Class.c **** 	uint8 result;
  43:.\I2C_Class.c ****     // lux range is set to 128.000 lux if REXT is set up to 50K resistor.
  44:.\I2C_Class.c ****     //uint8 lightControl = 0b00001100;
  45:.\I2C_Class.c ****     
  46:.\I2C_Class.c ****     result = I2C_I2CMasterWriteBuf(LIGHT_SENSOR_COMMAND_ADDRESS, lightCommand, size, I2C_I2C_MODE_C
 149              		.loc 1 46 0
 150 00c0 BA6C     		ldr	r2, [r7, #72]
 151 00c2 114B     		ldr	r3, .L3
 152 00c4 1B68     		ldr	r3, [r3]
 153 00c6 0020     		mov	r0, #0
 154 00c8 111C     		mov	r1, r2
 155 00ca 1A1C     		mov	r2, r3
 156 00cc 0023     		mov	r3, #0
 157 00ce FFF7FEFF 		bl	I2C_I2CMasterWriteBuf
 158 00d2 021C     		mov	r2, r0
 159 00d4 3B1C     		mov	r3, r7
 160 00d6 3F33     		add	r3, r3, #63
 161 00d8 1A70     		strb	r2, [r3]
  47:.\I2C_Class.c ****     
  48:.\I2C_Class.c ****     if (result == I2C_I2C_MSTR_NO_ERROR){
 162              		.loc 1 48 0
 163 00da 3B1C     		mov	r3, r7
 164 00dc 3F33     		add	r3, r3, #63
 165 00de 1B78     		ldrb	r3, [r3]
 166 00e0 002B     		cmp	r3, #0
 167 00e2 0CD1     		bne	.L2
  49:.\I2C_Class.c ****         result = I2C_I2CMasterWriteBuf(LIGHT_SENSOR_CONTROL_ADDRESS, lightControl, size, I2C_I2C_MO
 168              		.loc 1 49 0
 169 00e4 3A6C     		ldr	r2, [r7, #64]
 170 00e6 084B     		ldr	r3, .L3
 171 00e8 1B68     		ldr	r3, [r3]
 172 00ea 0120     		mov	r0, #1
 173 00ec 111C     		mov	r1, r2
 174 00ee 1A1C     		mov	r2, r3
 175 00f0 0023     		mov	r3, #0
 176 00f2 FFF7FEFF 		bl	I2C_I2CMasterWriteBuf
 177 00f6 021C     		mov	r2, r0
 178 00f8 3B1C     		mov	r3, r7
 179 00fa 3F33     		add	r3, r3, #63
ARM GAS  C:\Users\Snufkin\AppData\Local\Temp\ccDxhUWt.s 			page 5


 180 00fc 1A70     		strb	r2, [r3]
 181              	.L2:
 182 00fe B546     		mov	sp, r6
  50:.\I2C_Class.c ****     }
  51:.\I2C_Class.c **** }
 183              		.loc 1 51 0
 184 0100 BD46     		mov	sp, r7
 185 0102 15B0     		add	sp, sp, #84
 186              		@ sp needed
 187 0104 F0BD     		pop	{r4, r5, r6, r7, pc}
 188              	.L4:
 189 0106 C046     		.align	2
 190              	.L3:
 191 0108 04000000 		.word	size
 192              		.cfi_endproc
 193              	.LFE33:
 194              		.size	initI2C, .-initI2C
 195              		.section	.text.adjustWindow,"ax",%progbits
 196              		.align	2
 197              		.global	adjustWindow
 198              		.code	16
 199              		.thumb_func
 200              		.type	adjustWindow, %function
 201              	adjustWindow:
 202              	.LFB34:
  52:.\I2C_Class.c **** 
  53:.\I2C_Class.c **** int8 adjustWindow(uint8 pos){
 203              		.loc 1 53 0
 204              		.cfi_startproc
 205 0000 F0B5     		push	{r4, r5, r6, r7, lr}
 206              		.cfi_def_cfa_offset 20
 207              		.cfi_offset 4, -20
 208              		.cfi_offset 5, -16
 209              		.cfi_offset 6, -12
 210              		.cfi_offset 7, -8
 211              		.cfi_offset 14, -4
 212 0002 97B0     		sub	sp, sp, #92
 213              		.cfi_def_cfa_offset 112
 214 0004 00AF     		add	r7, sp, #0
 215              		.cfi_def_cfa_register 7
 216 0006 031C     		mov	r3, r0
 217 0008 3A1C     		mov	r2, r7
 218 000a 3F32     		add	r2, r2, #63
 219 000c 1370     		strb	r3, [r2]
 220 000e 6B46     		mov	r3, sp
 221 0010 1E1C     		mov	r6, r3
  54:.\I2C_Class.c ****     uint8 openWindow[size], closeWindow[size];
 222              		.loc 1 54 0
 223 0012 544B     		ldr	r3, .L12
 224 0014 1A68     		ldr	r2, [r3]
 225 0016 531E     		sub	r3, r2, #1
 226 0018 3B65     		str	r3, [r7, #80]
 227 001a 131C     		mov	r3, r2
 228 001c 1C1C     		mov	r4, r3
 229 001e 0023     		mov	r3, #0
 230 0020 1D1C     		mov	r5, r3
 231 0022 630F     		lsr	r3, r4, #29
ARM GAS  C:\Users\Snufkin\AppData\Local\Temp\ccDxhUWt.s 			page 6


 232 0024 E900     		lsl	r1, r5, #3
 233 0026 7963     		str	r1, [r7, #52]
 234 0028 796B     		ldr	r1, [r7, #52]
 235 002a 1943     		orr	r1, r3
 236 002c 7963     		str	r1, [r7, #52]
 237 002e E300     		lsl	r3, r4, #3
 238 0030 131C     		mov	r3, r2
 239 0032 BB62     		str	r3, [r7, #40]
 240 0034 0023     		mov	r3, #0
 241 0036 FB62     		str	r3, [r7, #44]
 242 0038 B96A     		ldr	r1, [r7, #40]
 243 003a 4B0F     		lsr	r3, r1, #29
 244 003c F96A     		ldr	r1, [r7, #44]
 245 003e C900     		lsl	r1, r1, #3
 246 0040 7962     		str	r1, [r7, #36]
 247 0042 796A     		ldr	r1, [r7, #36]
 248 0044 1943     		orr	r1, r3
 249 0046 7962     		str	r1, [r7, #36]
 250 0048 BB6A     		ldr	r3, [r7, #40]
 251 004a DB00     		lsl	r3, r3, #3
 252 004c 131C     		mov	r3, r2
 253 004e 0733     		add	r3, r3, #7
 254 0050 DB08     		lsr	r3, r3, #3
 255 0052 DB00     		lsl	r3, r3, #3
 256 0054 6946     		mov	r1, sp
 257 0056 C91A     		sub	r1, r1, r3
 258 0058 8D46     		mov	sp, r1
 259 005a 6B46     		mov	r3, sp
 260 005c 0033     		add	r3, r3, #0
 261 005e FB64     		str	r3, [r7, #76]
 262 0060 404B     		ldr	r3, .L12
 263 0062 1B68     		ldr	r3, [r3]
 264 0064 5A1E     		sub	r2, r3, #1
 265 0066 BA64     		str	r2, [r7, #72]
 266 0068 1A1C     		mov	r2, r3
 267 006a BA61     		str	r2, [r7, #24]
 268 006c 0022     		mov	r2, #0
 269 006e FA61     		str	r2, [r7, #28]
 270 0070 B969     		ldr	r1, [r7, #24]
 271 0072 4A0F     		lsr	r2, r1, #29
 272 0074 F969     		ldr	r1, [r7, #28]
 273 0076 C900     		lsl	r1, r1, #3
 274 0078 7961     		str	r1, [r7, #20]
 275 007a 7969     		ldr	r1, [r7, #20]
 276 007c 1143     		orr	r1, r2
 277 007e 7961     		str	r1, [r7, #20]
 278 0080 BA69     		ldr	r2, [r7, #24]
 279 0082 D200     		lsl	r2, r2, #3
 280 0084 1A1C     		mov	r2, r3
 281 0086 BA60     		str	r2, [r7, #8]
 282 0088 0022     		mov	r2, #0
 283 008a FA60     		str	r2, [r7, #12]
 284 008c B968     		ldr	r1, [r7, #8]
 285 008e 4A0F     		lsr	r2, r1, #29
 286 0090 F968     		ldr	r1, [r7, #12]
 287 0092 C900     		lsl	r1, r1, #3
 288 0094 7960     		str	r1, [r7, #4]
ARM GAS  C:\Users\Snufkin\AppData\Local\Temp\ccDxhUWt.s 			page 7


 289 0096 7968     		ldr	r1, [r7, #4]
 290 0098 1143     		orr	r1, r2
 291 009a 7960     		str	r1, [r7, #4]
 292 009c BA68     		ldr	r2, [r7, #8]
 293 009e D200     		lsl	r2, r2, #3
 294 00a0 0733     		add	r3, r3, #7
 295 00a2 DB08     		lsr	r3, r3, #3
 296 00a4 DB00     		lsl	r3, r3, #3
 297 00a6 6946     		mov	r1, sp
 298 00a8 C91A     		sub	r1, r1, r3
 299 00aa 8D46     		mov	sp, r1
 300 00ac 6B46     		mov	r3, sp
 301 00ae 0033     		add	r3, r3, #0
 302 00b0 7B64     		str	r3, [r7, #68]
  55:.\I2C_Class.c ****     openWindow[0] = 0xF;
 303              		.loc 1 55 0
 304 00b2 FB6C     		ldr	r3, [r7, #76]
 305 00b4 0F22     		mov	r2, #15
 306 00b6 1A70     		strb	r2, [r3]
  56:.\I2C_Class.c ****     closeWindow[0] = 0x0;
 307              		.loc 1 56 0
 308 00b8 7B6C     		ldr	r3, [r7, #68]
 309 00ba 0022     		mov	r2, #0
 310 00bc 1A70     		strb	r2, [r3]
  57:.\I2C_Class.c ****     uint8 result = 0;
 311              		.loc 1 57 0
 312 00be 3B1C     		mov	r3, r7
 313 00c0 5733     		add	r3, r3, #87
 314 00c2 0022     		mov	r2, #0
 315 00c4 1A70     		strb	r2, [r3]
  58:.\I2C_Class.c ****     uint8 tempWindow = 0;
 316              		.loc 1 58 0
 317 00c6 3B1C     		mov	r3, r7
 318 00c8 4333     		add	r3, r3, #67
 319 00ca 0022     		mov	r2, #0
 320 00cc 1A70     		strb	r2, [r3]
  59:.\I2C_Class.c ****         
  60:.\I2C_Class.c ****     if(pos == 0xFF){
 321              		.loc 1 60 0
 322 00ce 3B1C     		mov	r3, r7
 323 00d0 3F33     		add	r3, r3, #63
 324 00d2 1B78     		ldrb	r3, [r3]
 325 00d4 FF2B     		cmp	r3, #255
 326 00d6 0DD1     		bne	.L6
  61:.\I2C_Class.c ****         // Open window     -                write function  (adress,      dataToSend, NumberOfBytes
  62:.\I2C_Class.c ****         result = I2C_I2CMasterWriteBuf(ACTUATOR_ADRESS,openWindow,size,I2C_I2C_MODE_COMPLETE_XFER);
 327              		.loc 1 62 0
 328 00d8 FA6C     		ldr	r2, [r7, #76]
 329 00da 224B     		ldr	r3, .L12
 330 00dc 1B68     		ldr	r3, [r3]
 331 00de 4220     		mov	r0, #66
 332 00e0 111C     		mov	r1, r2
 333 00e2 1A1C     		mov	r2, r3
 334 00e4 0023     		mov	r3, #0
 335 00e6 FFF7FEFF 		bl	I2C_I2CMasterWriteBuf
 336 00ea 021C     		mov	r2, r0
 337 00ec 3B1C     		mov	r3, r7
ARM GAS  C:\Users\Snufkin\AppData\Local\Temp\ccDxhUWt.s 			page 8


 338 00ee 5733     		add	r3, r3, #87
 339 00f0 1A70     		strb	r2, [r3]
 340 00f2 11E0     		b	.L7
 341              	.L6:
  63:.\I2C_Class.c ****     }
  64:.\I2C_Class.c ****     else if(pos == 0x0){
 342              		.loc 1 64 0
 343 00f4 3B1C     		mov	r3, r7
 344 00f6 3F33     		add	r3, r3, #63
 345 00f8 1B78     		ldrb	r3, [r3]
 346 00fa 002B     		cmp	r3, #0
 347 00fc 0CD1     		bne	.L7
  65:.\I2C_Class.c ****         // Close window
  66:.\I2C_Class.c ****         result = I2C_I2CMasterWriteBuf(ACTUATOR_ADRESS,closeWindow,size,I2C_I2C_MODE_COMPLETE_XFER)
 348              		.loc 1 66 0
 349 00fe 7A6C     		ldr	r2, [r7, #68]
 350 0100 184B     		ldr	r3, .L12
 351 0102 1B68     		ldr	r3, [r3]
 352 0104 4220     		mov	r0, #66
 353 0106 111C     		mov	r1, r2
 354 0108 1A1C     		mov	r2, r3
 355 010a 0023     		mov	r3, #0
 356 010c FFF7FEFF 		bl	I2C_I2CMasterWriteBuf
 357 0110 021C     		mov	r2, r0
 358 0112 3B1C     		mov	r3, r7
 359 0114 5733     		add	r3, r3, #87
 360 0116 1A70     		strb	r2, [r3]
 361              	.L7:
  67:.\I2C_Class.c ****     }
  68:.\I2C_Class.c ****     
  69:.\I2C_Class.c ****     if ((result == I2C_I2C_MSTR_NO_ERROR) && (!getActuatorStatus(&tempWindow, NULL, NULL, NULL))){
 362              		.loc 1 69 0
 363 0118 3B1C     		mov	r3, r7
 364 011a 5733     		add	r3, r3, #87
 365 011c 1B78     		ldrb	r3, [r3]
 366 011e 002B     		cmp	r3, #0
 367 0120 18D1     		bne	.L8
 368              		.loc 1 69 0 is_stmt 0 discriminator 1
 369 0122 3B1C     		mov	r3, r7
 370 0124 4333     		add	r3, r3, #67
 371 0126 181C     		mov	r0, r3
 372 0128 0021     		mov	r1, #0
 373 012a 0022     		mov	r2, #0
 374 012c 0023     		mov	r3, #0
 375 012e FFF7FEFF 		bl	getActuatorStatus
 376 0132 031C     		mov	r3, r0
 377 0134 002B     		cmp	r3, #0
 378 0136 0DD1     		bne	.L8
  70:.\I2C_Class.c ****         if (tempWindow == pos >> 4 ){  //hacky solution when dealing with fully open/closed window
 379              		.loc 1 70 0 is_stmt 1
 380 0138 3B1C     		mov	r3, r7
 381 013a 3F33     		add	r3, r3, #63
 382 013c 1B78     		ldrb	r3, [r3]
 383 013e 1B09     		lsr	r3, r3, #4
 384 0140 DAB2     		uxtb	r2, r3
 385 0142 3B1C     		mov	r3, r7
 386 0144 4333     		add	r3, r3, #67
ARM GAS  C:\Users\Snufkin\AppData\Local\Temp\ccDxhUWt.s 			page 9


 387 0146 1B78     		ldrb	r3, [r3]
 388 0148 9A42     		cmp	r2, r3
 389 014a 01D1     		bne	.L9
  71:.\I2C_Class.c ****             return 0;	
 390              		.loc 1 71 0
 391 014c 0023     		mov	r3, #0
 392 014e 02E0     		b	.L10
 393              	.L9:
  72:.\I2C_Class.c ****         }
  73:.\I2C_Class.c ****         else {
  74:.\I2C_Class.c ****             return -1;
 394              		.loc 1 74 0
 395 0150 FF23     		mov	r3, #255
 396 0152 00E0     		b	.L10
 397              	.L8:
  75:.\I2C_Class.c ****         }
  76:.\I2C_Class.c ****     }
  77:.\I2C_Class.c ****     else {
  78:.\I2C_Class.c ****         return -1;
 398              		.loc 1 78 0
 399 0154 FF23     		mov	r3, #255
 400              	.L10:
 401 0156 B546     		mov	sp, r6
 402 0158 5BB2     		sxtb	r3, r3
  79:.\I2C_Class.c ****     }
  80:.\I2C_Class.c **** }
 403              		.loc 1 80 0
 404 015a 181C     		mov	r0, r3
 405 015c BD46     		mov	sp, r7
 406 015e 17B0     		add	sp, sp, #92
 407              		@ sp needed
 408 0160 F0BD     		pop	{r4, r5, r6, r7, pc}
 409              	.L13:
 410 0162 C046     		.align	2
 411              	.L12:
 412 0164 04000000 		.word	size
 413              		.cfi_endproc
 414              	.LFE34:
 415              		.size	adjustWindow, .-adjustWindow
 416              		.section	.text.adjustHeat,"ax",%progbits
 417              		.align	2
 418              		.global	adjustHeat
 419              		.code	16
 420              		.thumb_func
 421              		.type	adjustHeat, %function
 422              	adjustHeat:
 423              	.LFB35:
  81:.\I2C_Class.c **** 
  82:.\I2C_Class.c **** int8 adjustHeat(uint8 heat){
 424              		.loc 1 82 0
 425              		.cfi_startproc
 426 0000 F0B5     		push	{r4, r5, r6, r7, lr}
 427              		.cfi_def_cfa_offset 20
 428              		.cfi_offset 4, -20
 429              		.cfi_offset 5, -16
 430              		.cfi_offset 6, -12
 431              		.cfi_offset 7, -8
ARM GAS  C:\Users\Snufkin\AppData\Local\Temp\ccDxhUWt.s 			page 10


 432              		.cfi_offset 14, -4
 433 0002 97B0     		sub	sp, sp, #92
 434              		.cfi_def_cfa_offset 112
 435 0004 00AF     		add	r7, sp, #0
 436              		.cfi_def_cfa_register 7
 437 0006 031C     		mov	r3, r0
 438 0008 3A1C     		mov	r2, r7
 439 000a 3F32     		add	r2, r2, #63
 440 000c 1370     		strb	r3, [r2]
 441 000e 6B46     		mov	r3, sp
 442 0010 1E1C     		mov	r6, r3
  83:.\I2C_Class.c ****     uint8 turnHeatOn[size], turnOffHeat[size];
 443              		.loc 1 83 0
 444 0012 544B     		ldr	r3, .L21
 445 0014 1A68     		ldr	r2, [r3]
 446 0016 531E     		sub	r3, r2, #1
 447 0018 3B65     		str	r3, [r7, #80]
 448 001a 131C     		mov	r3, r2
 449 001c 1C1C     		mov	r4, r3
 450 001e 0023     		mov	r3, #0
 451 0020 1D1C     		mov	r5, r3
 452 0022 630F     		lsr	r3, r4, #29
 453 0024 E900     		lsl	r1, r5, #3
 454 0026 7963     		str	r1, [r7, #52]
 455 0028 796B     		ldr	r1, [r7, #52]
 456 002a 1943     		orr	r1, r3
 457 002c 7963     		str	r1, [r7, #52]
 458 002e E300     		lsl	r3, r4, #3
 459 0030 131C     		mov	r3, r2
 460 0032 BB62     		str	r3, [r7, #40]
 461 0034 0023     		mov	r3, #0
 462 0036 FB62     		str	r3, [r7, #44]
 463 0038 B96A     		ldr	r1, [r7, #40]
 464 003a 4B0F     		lsr	r3, r1, #29
 465 003c F96A     		ldr	r1, [r7, #44]
 466 003e C900     		lsl	r1, r1, #3
 467 0040 7962     		str	r1, [r7, #36]
 468 0042 796A     		ldr	r1, [r7, #36]
 469 0044 1943     		orr	r1, r3
 470 0046 7962     		str	r1, [r7, #36]
 471 0048 BB6A     		ldr	r3, [r7, #40]
 472 004a DB00     		lsl	r3, r3, #3
 473 004c 131C     		mov	r3, r2
 474 004e 0733     		add	r3, r3, #7
 475 0050 DB08     		lsr	r3, r3, #3
 476 0052 DB00     		lsl	r3, r3, #3
 477 0054 6946     		mov	r1, sp
 478 0056 C91A     		sub	r1, r1, r3
 479 0058 8D46     		mov	sp, r1
 480 005a 6B46     		mov	r3, sp
 481 005c 0033     		add	r3, r3, #0
 482 005e FB64     		str	r3, [r7, #76]
 483 0060 404B     		ldr	r3, .L21
 484 0062 1B68     		ldr	r3, [r3]
 485 0064 5A1E     		sub	r2, r3, #1
 486 0066 BA64     		str	r2, [r7, #72]
 487 0068 1A1C     		mov	r2, r3
ARM GAS  C:\Users\Snufkin\AppData\Local\Temp\ccDxhUWt.s 			page 11


 488 006a BA61     		str	r2, [r7, #24]
 489 006c 0022     		mov	r2, #0
 490 006e FA61     		str	r2, [r7, #28]
 491 0070 B969     		ldr	r1, [r7, #24]
 492 0072 4A0F     		lsr	r2, r1, #29
 493 0074 F969     		ldr	r1, [r7, #28]
 494 0076 C900     		lsl	r1, r1, #3
 495 0078 7961     		str	r1, [r7, #20]
 496 007a 7969     		ldr	r1, [r7, #20]
 497 007c 1143     		orr	r1, r2
 498 007e 7961     		str	r1, [r7, #20]
 499 0080 BA69     		ldr	r2, [r7, #24]
 500 0082 D200     		lsl	r2, r2, #3
 501 0084 1A1C     		mov	r2, r3
 502 0086 BA60     		str	r2, [r7, #8]
 503 0088 0022     		mov	r2, #0
 504 008a FA60     		str	r2, [r7, #12]
 505 008c B968     		ldr	r1, [r7, #8]
 506 008e 4A0F     		lsr	r2, r1, #29
 507 0090 F968     		ldr	r1, [r7, #12]
 508 0092 C900     		lsl	r1, r1, #3
 509 0094 7960     		str	r1, [r7, #4]
 510 0096 7968     		ldr	r1, [r7, #4]
 511 0098 1143     		orr	r1, r2
 512 009a 7960     		str	r1, [r7, #4]
 513 009c BA68     		ldr	r2, [r7, #8]
 514 009e D200     		lsl	r2, r2, #3
 515 00a0 0733     		add	r3, r3, #7
 516 00a2 DB08     		lsr	r3, r3, #3
 517 00a4 DB00     		lsl	r3, r3, #3
 518 00a6 6946     		mov	r1, sp
 519 00a8 C91A     		sub	r1, r1, r3
 520 00aa 8D46     		mov	sp, r1
 521 00ac 6B46     		mov	r3, sp
 522 00ae 0033     		add	r3, r3, #0
 523 00b0 7B64     		str	r3, [r7, #68]
  84:.\I2C_Class.c ****     turnHeatOn[0] = 0b01000111;
 524              		.loc 1 84 0
 525 00b2 FB6C     		ldr	r3, [r7, #76]
 526 00b4 4722     		mov	r2, #71
 527 00b6 1A70     		strb	r2, [r3]
  85:.\I2C_Class.c ****     turnOffHeat[0] = 0b01000000;
 528              		.loc 1 85 0
 529 00b8 7B6C     		ldr	r3, [r7, #68]
 530 00ba 4022     		mov	r2, #64
 531 00bc 1A70     		strb	r2, [r3]
  86:.\I2C_Class.c ****     uint8 result = 0;
 532              		.loc 1 86 0
 533 00be 3B1C     		mov	r3, r7
 534 00c0 5733     		add	r3, r3, #87
 535 00c2 0022     		mov	r2, #0
 536 00c4 1A70     		strb	r2, [r3]
  87:.\I2C_Class.c ****     uint8 temp = 0xFF;
 537              		.loc 1 87 0
 538 00c6 3B1C     		mov	r3, r7
 539 00c8 4333     		add	r3, r3, #67
 540 00ca FF22     		mov	r2, #255
ARM GAS  C:\Users\Snufkin\AppData\Local\Temp\ccDxhUWt.s 			page 12


 541 00cc 1A70     		strb	r2, [r3]
  88:.\I2C_Class.c ****     
  89:.\I2C_Class.c ****     I2C_I2CMasterClearStatus();
 542              		.loc 1 89 0
 543 00ce FFF7FEFF 		bl	I2C_I2CMasterClearStatus
  90:.\I2C_Class.c ****     
  91:.\I2C_Class.c ****     if(heat == 0b111){
 544              		.loc 1 91 0
 545 00d2 3B1C     		mov	r3, r7
 546 00d4 3F33     		add	r3, r3, #63
 547 00d6 1B78     		ldrb	r3, [r3]
 548 00d8 072B     		cmp	r3, #7
 549 00da 0DD1     		bne	.L15
  92:.\I2C_Class.c ****         // Turn on heat
  93:.\I2C_Class.c ****         result = I2C_I2CMasterWriteBuf(ACTUATOR_ADRESS,turnHeatOn,size,I2C_I2C_MODE_COMPLETE_XFER);
 550              		.loc 1 93 0
 551 00dc FA6C     		ldr	r2, [r7, #76]
 552 00de 214B     		ldr	r3, .L21
 553 00e0 1B68     		ldr	r3, [r3]
 554 00e2 4220     		mov	r0, #66
 555 00e4 111C     		mov	r1, r2
 556 00e6 1A1C     		mov	r2, r3
 557 00e8 0023     		mov	r3, #0
 558 00ea FFF7FEFF 		bl	I2C_I2CMasterWriteBuf
 559 00ee 021C     		mov	r2, r0
 560 00f0 3B1C     		mov	r3, r7
 561 00f2 5733     		add	r3, r3, #87
 562 00f4 1A70     		strb	r2, [r3]
 563 00f6 11E0     		b	.L16
 564              	.L15:
  94:.\I2C_Class.c ****     }
  95:.\I2C_Class.c ****     else if(heat == 0b0){
 565              		.loc 1 95 0
 566 00f8 3B1C     		mov	r3, r7
 567 00fa 3F33     		add	r3, r3, #63
 568 00fc 1B78     		ldrb	r3, [r3]
 569 00fe 002B     		cmp	r3, #0
 570 0100 0CD1     		bne	.L16
  96:.\I2C_Class.c ****         // Turn off heat
  97:.\I2C_Class.c ****         result = I2C_I2CMasterWriteBuf(ACTUATOR_ADRESS,turnOffHeat,size,I2C_I2C_MODE_COMPLETE_XFER)
 571              		.loc 1 97 0
 572 0102 7A6C     		ldr	r2, [r7, #68]
 573 0104 174B     		ldr	r3, .L21
 574 0106 1B68     		ldr	r3, [r3]
 575 0108 4220     		mov	r0, #66
 576 010a 111C     		mov	r1, r2
 577 010c 1A1C     		mov	r2, r3
 578 010e 0023     		mov	r3, #0
 579 0110 FFF7FEFF 		bl	I2C_I2CMasterWriteBuf
 580 0114 021C     		mov	r2, r0
 581 0116 3B1C     		mov	r3, r7
 582 0118 5733     		add	r3, r3, #87
 583 011a 1A70     		strb	r2, [r3]
 584              	.L16:
  98:.\I2C_Class.c ****     }
  99:.\I2C_Class.c **** 
 100:.\I2C_Class.c ****     if ((result == I2C_I2C_MSTR_NO_ERROR) && (!getActuatorStatus(NULL, &temp, NULL, NULL))){
ARM GAS  C:\Users\Snufkin\AppData\Local\Temp\ccDxhUWt.s 			page 13


 585              		.loc 1 100 0
 586 011c 3B1C     		mov	r3, r7
 587 011e 5733     		add	r3, r3, #87
 588 0120 1B78     		ldrb	r3, [r3]
 589 0122 002B     		cmp	r3, #0
 590 0124 16D1     		bne	.L17
 591              		.loc 1 100 0 is_stmt 0 discriminator 1
 592 0126 3B1C     		mov	r3, r7
 593 0128 4333     		add	r3, r3, #67
 594 012a 0020     		mov	r0, #0
 595 012c 191C     		mov	r1, r3
 596 012e 0022     		mov	r2, #0
 597 0130 0023     		mov	r3, #0
 598 0132 FFF7FEFF 		bl	getActuatorStatus
 599 0136 031C     		mov	r3, r0
 600 0138 002B     		cmp	r3, #0
 601 013a 0BD1     		bne	.L17
 101:.\I2C_Class.c ****         if (temp == heat){
 602              		.loc 1 101 0 is_stmt 1
 603 013c 3B1C     		mov	r3, r7
 604 013e 4333     		add	r3, r3, #67
 605 0140 1B78     		ldrb	r3, [r3]
 606 0142 3A1C     		mov	r2, r7
 607 0144 3F32     		add	r2, r2, #63
 608 0146 1278     		ldrb	r2, [r2]
 609 0148 9A42     		cmp	r2, r3
 610 014a 01D1     		bne	.L18
 102:.\I2C_Class.c ****             return 0;
 611              		.loc 1 102 0
 612 014c 0023     		mov	r3, #0
 613 014e 02E0     		b	.L19
 614              	.L18:
 103:.\I2C_Class.c ****         }
 104:.\I2C_Class.c ****         else {
 105:.\I2C_Class.c ****             return -1;   
 615              		.loc 1 105 0
 616 0150 FF23     		mov	r3, #255
 617 0152 00E0     		b	.L19
 618              	.L17:
 106:.\I2C_Class.c ****         }
 107:.\I2C_Class.c ****     }
 108:.\I2C_Class.c ****     else {
 109:.\I2C_Class.c ****         return -1;
 619              		.loc 1 109 0
 620 0154 FF23     		mov	r3, #255
 621              	.L19:
 622 0156 B546     		mov	sp, r6
 623 0158 5BB2     		sxtb	r3, r3
 110:.\I2C_Class.c ****     }
 111:.\I2C_Class.c **** }
 624              		.loc 1 111 0
 625 015a 181C     		mov	r0, r3
 626 015c BD46     		mov	sp, r7
 627 015e 17B0     		add	sp, sp, #92
 628              		@ sp needed
 629 0160 F0BD     		pop	{r4, r5, r6, r7, pc}
 630              	.L22:
ARM GAS  C:\Users\Snufkin\AppData\Local\Temp\ccDxhUWt.s 			page 14


 631 0162 C046     		.align	2
 632              	.L21:
 633 0164 04000000 		.word	size
 634              		.cfi_endproc
 635              	.LFE35:
 636              		.size	adjustHeat, .-adjustHeat
 637              		.section	.text.adjustVentilation,"ax",%progbits
 638              		.align	2
 639              		.global	adjustVentilation
 640              		.code	16
 641              		.thumb_func
 642              		.type	adjustVentilation, %function
 643              	adjustVentilation:
 644              	.LFB36:
 112:.\I2C_Class.c **** 
 113:.\I2C_Class.c **** int8 adjustVentilation(uint8 speed){
 645              		.loc 1 113 0
 646              		.cfi_startproc
 647 0000 F0B5     		push	{r4, r5, r6, r7, lr}
 648              		.cfi_def_cfa_offset 20
 649              		.cfi_offset 4, -20
 650              		.cfi_offset 5, -16
 651              		.cfi_offset 6, -12
 652              		.cfi_offset 7, -8
 653              		.cfi_offset 14, -4
 654 0002 97B0     		sub	sp, sp, #92
 655              		.cfi_def_cfa_offset 112
 656 0004 00AF     		add	r7, sp, #0
 657              		.cfi_def_cfa_register 7
 658 0006 031C     		mov	r3, r0
 659 0008 3A1C     		mov	r2, r7
 660 000a 3F32     		add	r2, r2, #63
 661 000c 1370     		strb	r3, [r2]
 662 000e 6B46     		mov	r3, sp
 663 0010 1E1C     		mov	r6, r3
 114:.\I2C_Class.c ****     uint8 turnOnVent[size], turnOffVent[size];
 664              		.loc 1 114 0
 665 0012 544B     		ldr	r3, .L30
 666 0014 1A68     		ldr	r2, [r3]
 667 0016 531E     		sub	r3, r2, #1
 668 0018 3B65     		str	r3, [r7, #80]
 669 001a 131C     		mov	r3, r2
 670 001c 1C1C     		mov	r4, r3
 671 001e 0023     		mov	r3, #0
 672 0020 1D1C     		mov	r5, r3
 673 0022 630F     		lsr	r3, r4, #29
 674 0024 E900     		lsl	r1, r5, #3
 675 0026 7963     		str	r1, [r7, #52]
 676 0028 796B     		ldr	r1, [r7, #52]
 677 002a 1943     		orr	r1, r3
 678 002c 7963     		str	r1, [r7, #52]
 679 002e E300     		lsl	r3, r4, #3
 680 0030 131C     		mov	r3, r2
 681 0032 BB62     		str	r3, [r7, #40]
 682 0034 0023     		mov	r3, #0
 683 0036 FB62     		str	r3, [r7, #44]
 684 0038 B96A     		ldr	r1, [r7, #40]
ARM GAS  C:\Users\Snufkin\AppData\Local\Temp\ccDxhUWt.s 			page 15


 685 003a 4B0F     		lsr	r3, r1, #29
 686 003c F96A     		ldr	r1, [r7, #44]
 687 003e C900     		lsl	r1, r1, #3
 688 0040 7962     		str	r1, [r7, #36]
 689 0042 796A     		ldr	r1, [r7, #36]
 690 0044 1943     		orr	r1, r3
 691 0046 7962     		str	r1, [r7, #36]
 692 0048 BB6A     		ldr	r3, [r7, #40]
 693 004a DB00     		lsl	r3, r3, #3
 694 004c 131C     		mov	r3, r2
 695 004e 0733     		add	r3, r3, #7
 696 0050 DB08     		lsr	r3, r3, #3
 697 0052 DB00     		lsl	r3, r3, #3
 698 0054 6946     		mov	r1, sp
 699 0056 C91A     		sub	r1, r1, r3
 700 0058 8D46     		mov	sp, r1
 701 005a 6B46     		mov	r3, sp
 702 005c 0033     		add	r3, r3, #0
 703 005e FB64     		str	r3, [r7, #76]
 704 0060 404B     		ldr	r3, .L30
 705 0062 1B68     		ldr	r3, [r3]
 706 0064 5A1E     		sub	r2, r3, #1
 707 0066 BA64     		str	r2, [r7, #72]
 708 0068 1A1C     		mov	r2, r3
 709 006a BA61     		str	r2, [r7, #24]
 710 006c 0022     		mov	r2, #0
 711 006e FA61     		str	r2, [r7, #28]
 712 0070 B969     		ldr	r1, [r7, #24]
 713 0072 4A0F     		lsr	r2, r1, #29
 714 0074 F969     		ldr	r1, [r7, #28]
 715 0076 C900     		lsl	r1, r1, #3
 716 0078 7961     		str	r1, [r7, #20]
 717 007a 7969     		ldr	r1, [r7, #20]
 718 007c 1143     		orr	r1, r2
 719 007e 7961     		str	r1, [r7, #20]
 720 0080 BA69     		ldr	r2, [r7, #24]
 721 0082 D200     		lsl	r2, r2, #3
 722 0084 1A1C     		mov	r2, r3
 723 0086 BA60     		str	r2, [r7, #8]
 724 0088 0022     		mov	r2, #0
 725 008a FA60     		str	r2, [r7, #12]
 726 008c B968     		ldr	r1, [r7, #8]
 727 008e 4A0F     		lsr	r2, r1, #29
 728 0090 F968     		ldr	r1, [r7, #12]
 729 0092 C900     		lsl	r1, r1, #3
 730 0094 7960     		str	r1, [r7, #4]
 731 0096 7968     		ldr	r1, [r7, #4]
 732 0098 1143     		orr	r1, r2
 733 009a 7960     		str	r1, [r7, #4]
 734 009c BA68     		ldr	r2, [r7, #8]
 735 009e D200     		lsl	r2, r2, #3
 736 00a0 0733     		add	r3, r3, #7
 737 00a2 DB08     		lsr	r3, r3, #3
 738 00a4 DB00     		lsl	r3, r3, #3
 739 00a6 6946     		mov	r1, sp
 740 00a8 C91A     		sub	r1, r1, r3
 741 00aa 8D46     		mov	sp, r1
ARM GAS  C:\Users\Snufkin\AppData\Local\Temp\ccDxhUWt.s 			page 16


 742 00ac 6B46     		mov	r3, sp
 743 00ae 0033     		add	r3, r3, #0
 744 00b0 7B64     		str	r3, [r7, #68]
 115:.\I2C_Class.c ****     turnOnVent[0] = 0b10000111;
 745              		.loc 1 115 0
 746 00b2 FB6C     		ldr	r3, [r7, #76]
 747 00b4 8722     		mov	r2, #135
 748 00b6 1A70     		strb	r2, [r3]
 116:.\I2C_Class.c ****     turnOffVent[0] = 0b10000000;
 749              		.loc 1 116 0
 750 00b8 7B6C     		ldr	r3, [r7, #68]
 751 00ba 8022     		mov	r2, #128
 752 00bc 1A70     		strb	r2, [r3]
 117:.\I2C_Class.c ****     uint8 result = 0;
 753              		.loc 1 117 0
 754 00be 3B1C     		mov	r3, r7
 755 00c0 5733     		add	r3, r3, #87
 756 00c2 0022     		mov	r2, #0
 757 00c4 1A70     		strb	r2, [r3]
 118:.\I2C_Class.c ****     uint8 temp = 0xFF;
 758              		.loc 1 118 0
 759 00c6 3B1C     		mov	r3, r7
 760 00c8 4333     		add	r3, r3, #67
 761 00ca FF22     		mov	r2, #255
 762 00cc 1A70     		strb	r2, [r3]
 119:.\I2C_Class.c ****         
 120:.\I2C_Class.c ****     if(speed == 0xFF){
 763              		.loc 1 120 0
 764 00ce 3B1C     		mov	r3, r7
 765 00d0 3F33     		add	r3, r3, #63
 766 00d2 1B78     		ldrb	r3, [r3]
 767 00d4 FF2B     		cmp	r3, #255
 768 00d6 0DD1     		bne	.L24
 121:.\I2C_Class.c ****         // Turn vent on
 122:.\I2C_Class.c ****         result = I2C_I2CMasterWriteBuf(ACTUATOR_ADRESS,turnOnVent,size,I2C_I2C_MODE_COMPLETE_XFER);
 769              		.loc 1 122 0
 770 00d8 FA6C     		ldr	r2, [r7, #76]
 771 00da 224B     		ldr	r3, .L30
 772 00dc 1B68     		ldr	r3, [r3]
 773 00de 4220     		mov	r0, #66
 774 00e0 111C     		mov	r1, r2
 775 00e2 1A1C     		mov	r2, r3
 776 00e4 0023     		mov	r3, #0
 777 00e6 FFF7FEFF 		bl	I2C_I2CMasterWriteBuf
 778 00ea 021C     		mov	r2, r0
 779 00ec 3B1C     		mov	r3, r7
 780 00ee 5733     		add	r3, r3, #87
 781 00f0 1A70     		strb	r2, [r3]
 782 00f2 11E0     		b	.L25
 783              	.L24:
 123:.\I2C_Class.c ****     }
 124:.\I2C_Class.c ****     else if(speed == 0b0){
 784              		.loc 1 124 0
 785 00f4 3B1C     		mov	r3, r7
 786 00f6 3F33     		add	r3, r3, #63
 787 00f8 1B78     		ldrb	r3, [r3]
 788 00fa 002B     		cmp	r3, #0
ARM GAS  C:\Users\Snufkin\AppData\Local\Temp\ccDxhUWt.s 			page 17


 789 00fc 0CD1     		bne	.L25
 125:.\I2C_Class.c ****         // Turn vent off
 126:.\I2C_Class.c ****         result = I2C_I2CMasterWriteBuf(ACTUATOR_ADRESS,turnOffVent,size,I2C_I2C_MODE_COMPLETE_XFER)
 790              		.loc 1 126 0
 791 00fe 7A6C     		ldr	r2, [r7, #68]
 792 0100 184B     		ldr	r3, .L30
 793 0102 1B68     		ldr	r3, [r3]
 794 0104 4220     		mov	r0, #66
 795 0106 111C     		mov	r1, r2
 796 0108 1A1C     		mov	r2, r3
 797 010a 0023     		mov	r3, #0
 798 010c FFF7FEFF 		bl	I2C_I2CMasterWriteBuf
 799 0110 021C     		mov	r2, r0
 800 0112 3B1C     		mov	r3, r7
 801 0114 5733     		add	r3, r3, #87
 802 0116 1A70     		strb	r2, [r3]
 803              	.L25:
 127:.\I2C_Class.c ****     }
 128:.\I2C_Class.c ****     
 129:.\I2C_Class.c ****     if ((result == I2C_I2C_MSTR_NO_ERROR) && (!getActuatorStatus(NULL, NULL, &temp, NULL))){
 804              		.loc 1 129 0
 805 0118 3B1C     		mov	r3, r7
 806 011a 5733     		add	r3, r3, #87
 807 011c 1B78     		ldrb	r3, [r3]
 808 011e 002B     		cmp	r3, #0
 809 0120 18D1     		bne	.L26
 810              		.loc 1 129 0 is_stmt 0 discriminator 1
 811 0122 3B1C     		mov	r3, r7
 812 0124 4333     		add	r3, r3, #67
 813 0126 0020     		mov	r0, #0
 814 0128 0021     		mov	r1, #0
 815 012a 1A1C     		mov	r2, r3
 816 012c 0023     		mov	r3, #0
 817 012e FFF7FEFF 		bl	getActuatorStatus
 818 0132 031C     		mov	r3, r0
 819 0134 002B     		cmp	r3, #0
 820 0136 0DD1     		bne	.L26
 130:.\I2C_Class.c ****         if (temp == speed >> 5){ //Hacky solution when not dealing with more than 2 steps
 821              		.loc 1 130 0 is_stmt 1
 822 0138 3B1C     		mov	r3, r7
 823 013a 3F33     		add	r3, r3, #63
 824 013c 1B78     		ldrb	r3, [r3]
 825 013e 5B09     		lsr	r3, r3, #5
 826 0140 DAB2     		uxtb	r2, r3
 827 0142 3B1C     		mov	r3, r7
 828 0144 4333     		add	r3, r3, #67
 829 0146 1B78     		ldrb	r3, [r3]
 830 0148 9A42     		cmp	r2, r3
 831 014a 01D1     		bne	.L27
 131:.\I2C_Class.c ****             return 0;
 832              		.loc 1 131 0
 833 014c 0023     		mov	r3, #0
 834 014e 02E0     		b	.L28
 835              	.L27:
 132:.\I2C_Class.c ****             }
 133:.\I2C_Class.c ****         else {
 134:.\I2C_Class.c ****             return -1;       
ARM GAS  C:\Users\Snufkin\AppData\Local\Temp\ccDxhUWt.s 			page 18


 836              		.loc 1 134 0
 837 0150 FF23     		mov	r3, #255
 838 0152 00E0     		b	.L28
 839              	.L26:
 135:.\I2C_Class.c ****         }
 136:.\I2C_Class.c ****     }
 137:.\I2C_Class.c ****     else {
 138:.\I2C_Class.c ****         return -1;
 840              		.loc 1 138 0
 841 0154 FF23     		mov	r3, #255
 842              	.L28:
 843 0156 B546     		mov	sp, r6
 844 0158 5BB2     		sxtb	r3, r3
 139:.\I2C_Class.c ****     }
 140:.\I2C_Class.c **** }
 845              		.loc 1 140 0
 846 015a 181C     		mov	r0, r3
 847 015c BD46     		mov	sp, r7
 848 015e 17B0     		add	sp, sp, #92
 849              		@ sp needed
 850 0160 F0BD     		pop	{r4, r5, r6, r7, pc}
 851              	.L31:
 852 0162 C046     		.align	2
 853              	.L30:
 854 0164 04000000 		.word	size
 855              		.cfi_endproc
 856              	.LFE36:
 857              		.size	adjustVentilation, .-adjustVentilation
 858              		.section	.text.adjustIrrigation,"ax",%progbits
 859              		.align	2
 860              		.global	adjustIrrigation
 861              		.code	16
 862              		.thumb_func
 863              		.type	adjustIrrigation, %function
 864              	adjustIrrigation:
 865              	.LFB37:
 141:.\I2C_Class.c **** 
 142:.\I2C_Class.c **** int8 adjustIrrigation(uint8 index, uint8 onOff){
 866              		.loc 1 142 0
 867              		.cfi_startproc
 868 0000 F0B5     		push	{r4, r5, r6, r7, lr}
 869              		.cfi_def_cfa_offset 20
 870              		.cfi_offset 4, -20
 871              		.cfi_offset 5, -16
 872              		.cfi_offset 6, -12
 873              		.cfi_offset 7, -8
 874              		.cfi_offset 14, -4
 875 0002 4746     		mov	r7, r8
 876 0004 80B4     		push	{r7}
 877              		.cfi_def_cfa_offset 24
 878              		.cfi_offset 8, -24
 879 0006 8AB0     		sub	sp, sp, #40
 880              		.cfi_def_cfa_offset 64
 881 0008 00AF     		add	r7, sp, #0
 882              		.cfi_def_cfa_register 7
 883 000a 3A1C     		mov	r2, r7
 884 000c 1732     		add	r2, r2, #23
ARM GAS  C:\Users\Snufkin\AppData\Local\Temp\ccDxhUWt.s 			page 19


 885 000e 1070     		strb	r0, [r2]
 886 0010 3A1C     		mov	r2, r7
 887 0012 1632     		add	r2, r2, #22
 888 0014 1170     		strb	r1, [r2]
 889 0016 6A46     		mov	r2, sp
 890 0018 9046     		mov	r8, r2
 143:.\I2C_Class.c ****     uint8 irriTransfer[size];
 891              		.loc 1 143 0
 892 001a 4C4A     		ldr	r2, .L40
 893 001c 1268     		ldr	r2, [r2]
 894 001e 511E     		sub	r1, r2, #1
 895 0020 7962     		str	r1, [r7, #36]
 896 0022 111C     		mov	r1, r2
 897 0024 0D1C     		mov	r5, r1
 898 0026 0021     		mov	r1, #0
 899 0028 0E1C     		mov	r6, r1
 900 002a 690F     		lsr	r1, r5, #29
 901 002c F000     		lsl	r0, r6, #3
 902 002e F860     		str	r0, [r7, #12]
 903 0030 FB68     		ldr	r3, [r7, #12]
 904 0032 0B43     		orr	r3, r1
 905 0034 FB60     		str	r3, [r7, #12]
 906 0036 E800     		lsl	r0, r5, #3
 907 0038 111C     		mov	r1, r2
 908 003a 0B1C     		mov	r3, r1
 909 003c 0021     		mov	r1, #0
 910 003e 0C1C     		mov	r4, r1
 911 0040 590F     		lsr	r1, r3, #29
 912 0042 E000     		lsl	r0, r4, #3
 913 0044 7860     		str	r0, [r7, #4]
 914 0046 7868     		ldr	r0, [r7, #4]
 915 0048 0843     		orr	r0, r1
 916 004a 7860     		str	r0, [r7, #4]
 917 004c D900     		lsl	r1, r3, #3
 918 004e 131C     		mov	r3, r2
 919 0050 0733     		add	r3, r3, #7
 920 0052 DB08     		lsr	r3, r3, #3
 921 0054 DB00     		lsl	r3, r3, #3
 922 0056 6A46     		mov	r2, sp
 923 0058 D21A     		sub	r2, r2, r3
 924 005a 9546     		mov	sp, r2
 925 005c 6B46     		mov	r3, sp
 926 005e 0033     		add	r3, r3, #0
 927 0060 3B62     		str	r3, [r7, #32]
 144:.\I2C_Class.c ****     uint8 temp = 0xFF;
 928              		.loc 1 144 0
 929 0062 3B1C     		mov	r3, r7
 930 0064 1E33     		add	r3, r3, #30
 931 0066 FF22     		mov	r2, #255
 932 0068 1A70     		strb	r2, [r3]
 145:.\I2C_Class.c ****     uint8 result = 0;
 933              		.loc 1 145 0
 934 006a 3B1C     		mov	r3, r7
 935 006c 1F33     		add	r3, r3, #31
 936 006e 0022     		mov	r2, #0
 937 0070 1A70     		strb	r2, [r3]
 146:.\I2C_Class.c **** 
ARM GAS  C:\Users\Snufkin\AppData\Local\Temp\ccDxhUWt.s 			page 20


 147:.\I2C_Class.c ****         /* In order for this code to function properly, the static int "irrigation" 
 148:.\I2C_Class.c ****         has to get updated each time this function is called. */
 149:.\I2C_Class.c ****     if (onOff == 1){    // Irrigation turn on
 938              		.loc 1 149 0
 939 0072 3B1C     		mov	r3, r7
 940 0074 1633     		add	r3, r3, #22
 941 0076 1B78     		ldrb	r3, [r3]
 942 0078 012B     		cmp	r3, #1
 943 007a 18D1     		bne	.L33
 150:.\I2C_Class.c ****         irriTransfer[0] = (irrigationStatus |= (1 << index));
 944              		.loc 1 150 0
 945 007c 3B1C     		mov	r3, r7
 946 007e 1733     		add	r3, r3, #23
 947 0080 1B78     		ldrb	r3, [r3]
 948 0082 0122     		mov	r2, #1
 949 0084 101C     		mov	r0, r2
 950 0086 9840     		lsl	r0, r0, r3
 951 0088 031C     		mov	r3, r0
 952 008a DAB2     		uxtb	r2, r3
 953 008c 304B     		ldr	r3, .L40+4
 954 008e 1B78     		ldrb	r3, [r3]
 955 0090 DBB2     		uxtb	r3, r3
 956 0092 1343     		orr	r3, r2
 957 0094 DBB2     		uxtb	r3, r3
 958 0096 DAB2     		uxtb	r2, r3
 959 0098 2D4B     		ldr	r3, .L40+4
 960 009a 1A70     		strb	r2, [r3]
 961 009c 2C4B     		ldr	r3, .L40+4
 962 009e 1A78     		ldrb	r2, [r3]
 963 00a0 3B6A     		ldr	r3, [r7, #32]
 964 00a2 1A70     		strb	r2, [r3]
 151:.\I2C_Class.c ****         irrigationStatus = irriTransfer[0];
 965              		.loc 1 151 0
 966 00a4 3B6A     		ldr	r3, [r7, #32]
 967 00a6 1A78     		ldrb	r2, [r3]
 968 00a8 294B     		ldr	r3, .L40+4
 969 00aa 1A70     		strb	r2, [r3]
 970 00ac 21E0     		b	.L34
 971              	.L33:
 152:.\I2C_Class.c ****     }
 153:.\I2C_Class.c ****     else if (onOff == 0){   // Irrigation turn off
 972              		.loc 1 153 0
 973 00ae 3B1C     		mov	r3, r7
 974 00b0 1633     		add	r3, r3, #22
 975 00b2 1B78     		ldrb	r3, [r3]
 976 00b4 002B     		cmp	r3, #0
 977 00b6 1AD1     		bne	.L35
 154:.\I2C_Class.c ****         irriTransfer[0] = (irrigationStatus &= ~(1 << index));
 978              		.loc 1 154 0
 979 00b8 3B1C     		mov	r3, r7
 980 00ba 1733     		add	r3, r3, #23
 981 00bc 1B78     		ldrb	r3, [r3]
 982 00be 0122     		mov	r2, #1
 983 00c0 111C     		mov	r1, r2
 984 00c2 9940     		lsl	r1, r1, r3
 985 00c4 0B1C     		mov	r3, r1
 986 00c6 DBB2     		uxtb	r3, r3
ARM GAS  C:\Users\Snufkin\AppData\Local\Temp\ccDxhUWt.s 			page 21


 987 00c8 DB43     		mvn	r3, r3
 988 00ca DBB2     		uxtb	r3, r3
 989 00cc 204A     		ldr	r2, .L40+4
 990 00ce 1278     		ldrb	r2, [r2]
 991 00d0 D2B2     		uxtb	r2, r2
 992 00d2 1340     		and	r3, r2
 993 00d4 DBB2     		uxtb	r3, r3
 994 00d6 DAB2     		uxtb	r2, r3
 995 00d8 1D4B     		ldr	r3, .L40+4
 996 00da 1A70     		strb	r2, [r3]
 997 00dc 1C4B     		ldr	r3, .L40+4
 998 00de 1A78     		ldrb	r2, [r3]
 999 00e0 3B6A     		ldr	r3, [r7, #32]
 1000 00e2 1A70     		strb	r2, [r3]
 155:.\I2C_Class.c ****         irrigationStatus = irriTransfer[0];
 1001              		.loc 1 155 0
 1002 00e4 3B6A     		ldr	r3, [r7, #32]
 1003 00e6 1A78     		ldrb	r2, [r3]
 1004 00e8 194B     		ldr	r3, .L40+4
 1005 00ea 1A70     		strb	r2, [r3]
 1006 00ec 01E0     		b	.L34
 1007              	.L35:
 156:.\I2C_Class.c ****     }
 157:.\I2C_Class.c ****     else{
 158:.\I2C_Class.c ****     // Bad argument.
 159:.\I2C_Class.c ****     return -1;
 1008              		.loc 1 159 0
 1009 00ee FF23     		mov	r3, #255
 1010 00f0 24E0     		b	.L36
 1011              	.L34:
 160:.\I2C_Class.c ****     }
 161:.\I2C_Class.c ****     
 162:.\I2C_Class.c ****     result = I2C_I2CMasterWriteBuf(ACTUATOR_ADRESS, irriTransfer,size,I2C_I2C_MODE_COMPLETE_XFER);
 1012              		.loc 1 162 0
 1013 00f2 3A6A     		ldr	r2, [r7, #32]
 1014 00f4 154B     		ldr	r3, .L40
 1015 00f6 1B68     		ldr	r3, [r3]
 1016 00f8 4220     		mov	r0, #66
 1017 00fa 111C     		mov	r1, r2
 1018 00fc 1A1C     		mov	r2, r3
 1019 00fe 0023     		mov	r3, #0
 1020 0100 FFF7FEFF 		bl	I2C_I2CMasterWriteBuf
 1021 0104 021C     		mov	r2, r0
 1022 0106 3B1C     		mov	r3, r7
 1023 0108 1F33     		add	r3, r3, #31
 1024 010a 1A70     		strb	r2, [r3]
 163:.\I2C_Class.c ****  
 164:.\I2C_Class.c ****     getActuatorStatus(NULL, NULL, NULL, &temp);
 1025              		.loc 1 164 0
 1026 010c 3B1C     		mov	r3, r7
 1027 010e 1E33     		add	r3, r3, #30
 1028 0110 0020     		mov	r0, #0
 1029 0112 0021     		mov	r1, #0
 1030 0114 0022     		mov	r2, #0
 1031 0116 FFF7FEFF 		bl	getActuatorStatus
 165:.\I2C_Class.c ****     
 166:.\I2C_Class.c ****     if (result == I2C_I2C_MSTR_NO_ERROR){
ARM GAS  C:\Users\Snufkin\AppData\Local\Temp\ccDxhUWt.s 			page 22


 1032              		.loc 1 166 0
 1033 011a 3B1C     		mov	r3, r7
 1034 011c 1F33     		add	r3, r3, #31
 1035 011e 1B78     		ldrb	r3, [r3]
 1036 0120 002B     		cmp	r3, #0
 1037 0122 0AD1     		bne	.L37
 167:.\I2C_Class.c ****         if(temp == irrigationStatus){
 1038              		.loc 1 167 0
 1039 0124 3B1C     		mov	r3, r7
 1040 0126 1E33     		add	r3, r3, #30
 1041 0128 1A78     		ldrb	r2, [r3]
 1042 012a 094B     		ldr	r3, .L40+4
 1043 012c 1B78     		ldrb	r3, [r3]
 1044 012e 9A42     		cmp	r2, r3
 1045 0130 01D1     		bne	.L38
 168:.\I2C_Class.c ****             return 0;
 1046              		.loc 1 168 0
 1047 0132 0023     		mov	r3, #0
 1048 0134 02E0     		b	.L36
 1049              	.L38:
 169:.\I2C_Class.c ****         }
 170:.\I2C_Class.c ****         else {
 171:.\I2C_Class.c ****             return -1;
 1050              		.loc 1 171 0
 1051 0136 FF23     		mov	r3, #255
 1052 0138 00E0     		b	.L36
 1053              	.L37:
 172:.\I2C_Class.c ****         }
 173:.\I2C_Class.c ****     }
 174:.\I2C_Class.c ****     else {
 175:.\I2C_Class.c ****         return -1;
 1054              		.loc 1 175 0
 1055 013a FF23     		mov	r3, #255
 1056              	.L36:
 1057 013c C546     		mov	sp, r8
 1058 013e 5BB2     		sxtb	r3, r3
 176:.\I2C_Class.c ****     }
 177:.\I2C_Class.c **** }
 1059              		.loc 1 177 0
 1060 0140 181C     		mov	r0, r3
 1061 0142 BD46     		mov	sp, r7
 1062 0144 0AB0     		add	sp, sp, #40
 1063              		@ sp needed
 1064 0146 04BC     		pop	{r2}
 1065 0148 9046     		mov	r8, r2
 1066 014a F0BD     		pop	{r4, r5, r6, r7, pc}
 1067              	.L41:
 1068              		.align	2
 1069              	.L40:
 1070 014c 04000000 		.word	size
 1071 0150 00000000 		.word	irrigationStatus
 1072              		.cfi_endproc
 1073              	.LFE37:
 1074              		.size	adjustIrrigation, .-adjustIrrigation
 1075              		.section	.text.getActuatorStatus,"ax",%progbits
 1076              		.align	2
 1077              		.global	getActuatorStatus
ARM GAS  C:\Users\Snufkin\AppData\Local\Temp\ccDxhUWt.s 			page 23


 1078              		.code	16
 1079              		.thumb_func
 1080              		.type	getActuatorStatus, %function
 1081              	getActuatorStatus:
 1082              	.LFB38:
 178:.\I2C_Class.c **** 
 179:.\I2C_Class.c **** int8 getActuatorStatus(uint8* window, uint8* heat, uint8* vent, uint8* irrigation){
 1083              		.loc 1 179 0
 1084              		.cfi_startproc
 1085 0000 F0B5     		push	{r4, r5, r6, r7, lr}
 1086              		.cfi_def_cfa_offset 20
 1087              		.cfi_offset 4, -20
 1088              		.cfi_offset 5, -16
 1089              		.cfi_offset 6, -12
 1090              		.cfi_offset 7, -8
 1091              		.cfi_offset 14, -4
 1092 0002 8FB0     		sub	sp, sp, #60
 1093              		.cfi_def_cfa_offset 80
 1094 0004 00AF     		add	r7, sp, #0
 1095              		.cfi_def_cfa_register 7
 1096 0006 7862     		str	r0, [r7, #36]
 1097 0008 3962     		str	r1, [r7, #32]
 1098 000a FA61     		str	r2, [r7, #28]
 1099 000c BB61     		str	r3, [r7, #24]
 1100 000e 6B46     		mov	r3, sp
 1101 0010 1E1C     		mov	r6, r3
 180:.\I2C_Class.c ****     uint8 result = 0;
 1102              		.loc 1 180 0
 1103 0012 3B1C     		mov	r3, r7
 1104 0014 3733     		add	r3, r3, #55
 1105 0016 0022     		mov	r2, #0
 1106 0018 1A70     		strb	r2, [r3]
 181:.\I2C_Class.c ****     int RDbuf = 2;
 1107              		.loc 1 181 0
 1108 001a 0223     		mov	r3, #2
 1109 001c 3B63     		str	r3, [r7, #48]
 182:.\I2C_Class.c ****     uint8 dataget[RDbuf];
 1110              		.loc 1 182 0
 1111 001e 3B6B     		ldr	r3, [r7, #48]
 1112 0020 5A1E     		sub	r2, r3, #1
 1113 0022 FA62     		str	r2, [r7, #44]
 1114 0024 1A1C     		mov	r2, r3
 1115 0026 3A61     		str	r2, [r7, #16]
 1116 0028 0022     		mov	r2, #0
 1117 002a 7A61     		str	r2, [r7, #20]
 1118 002c 3969     		ldr	r1, [r7, #16]
 1119 002e 4A0F     		lsr	r2, r1, #29
 1120 0030 7969     		ldr	r1, [r7, #20]
 1121 0032 C900     		lsl	r1, r1, #3
 1122 0034 F960     		str	r1, [r7, #12]
 1123 0036 F968     		ldr	r1, [r7, #12]
 1124 0038 1143     		orr	r1, r2
 1125 003a F960     		str	r1, [r7, #12]
 1126 003c 3A69     		ldr	r2, [r7, #16]
 1127 003e D200     		lsl	r2, r2, #3
 1128 0040 1A1C     		mov	r2, r3
 1129 0042 141C     		mov	r4, r2
ARM GAS  C:\Users\Snufkin\AppData\Local\Temp\ccDxhUWt.s 			page 24


 1130 0044 0022     		mov	r2, #0
 1131 0046 151C     		mov	r5, r2
 1132 0048 620F     		lsr	r2, r4, #29
 1133 004a E900     		lsl	r1, r5, #3
 1134 004c 7960     		str	r1, [r7, #4]
 1135 004e 7968     		ldr	r1, [r7, #4]
 1136 0050 1143     		orr	r1, r2
 1137 0052 7960     		str	r1, [r7, #4]
 1138 0054 E200     		lsl	r2, r4, #3
 1139 0056 0733     		add	r3, r3, #7
 1140 0058 DB08     		lsr	r3, r3, #3
 1141 005a DB00     		lsl	r3, r3, #3
 1142 005c 6946     		mov	r1, sp
 1143 005e C91A     		sub	r1, r1, r3
 1144 0060 8D46     		mov	sp, r1
 1145 0062 6B46     		mov	r3, sp
 1146 0064 0033     		add	r3, r3, #0
 1147 0066 BB62     		str	r3, [r7, #40]
 183:.\I2C_Class.c ****     
 184:.\I2C_Class.c ****     //I2C_I2CMasterClearStatus();     // Clear status flags TODO test
 185:.\I2C_Class.c ****     
 186:.\I2C_Class.c ****     while (0u == (I2C_I2CMasterStatus() & I2C_I2C_MSTAT_WR_CMPLT)); //Wait for the bus to be ready
 1148              		.loc 1 186 0
 1149 0068 C046     		mov	r8, r8
 1150              	.L43:
 1151              		.loc 1 186 0 is_stmt 0 discriminator 1
 1152 006a FFF7FEFF 		bl	I2C_I2CMasterStatus
 1153 006e 021C     		mov	r2, r0
 1154 0070 0223     		mov	r3, #2
 1155 0072 1340     		and	r3, r2
 1156 0074 F9D0     		beq	.L43
 187:.\I2C_Class.c ****     
 188:.\I2C_Class.c ****     CyDelay(60);
 1157              		.loc 1 188 0 is_stmt 1
 1158 0076 3C20     		mov	r0, #60
 1159 0078 FFF7FEFF 		bl	CyDelay
 189:.\I2C_Class.c ****     
 190:.\I2C_Class.c ****     I2C_I2CMasterClearReadBuf();
 1160              		.loc 1 190 0
 1161 007c FFF7FEFF 		bl	I2C_I2CMasterClearReadBuf
 191:.\I2C_Class.c ****     result = I2C_I2CMasterReadBuf(ACTUATOR_ADRESS, dataget, RDbuf, I2C_I2C_MODE_COMPLETE_XFER);
 1162              		.loc 1 191 0
 1163 0080 BA6A     		ldr	r2, [r7, #40]
 1164 0082 3B6B     		ldr	r3, [r7, #48]
 1165 0084 4220     		mov	r0, #66
 1166 0086 111C     		mov	r1, r2
 1167 0088 1A1C     		mov	r2, r3
 1168 008a 0023     		mov	r3, #0
 1169 008c FFF7FEFF 		bl	I2C_I2CMasterReadBuf
 1170 0090 021C     		mov	r2, r0
 1171 0092 3B1C     		mov	r3, r7
 1172 0094 3733     		add	r3, r3, #55
 1173 0096 1A70     		strb	r2, [r3]
 192:.\I2C_Class.c ****     
 193:.\I2C_Class.c ****     while (0u == (I2C_I2CMasterStatus() & I2C_I2C_MSTAT_RD_CMPLT)); //Wait for the dataget array to
 1174              		.loc 1 193 0
 1175 0098 C046     		mov	r8, r8
ARM GAS  C:\Users\Snufkin\AppData\Local\Temp\ccDxhUWt.s 			page 25


 1176              	.L44:
 1177              		.loc 1 193 0 is_stmt 0 discriminator 1
 1178 009a FFF7FEFF 		bl	I2C_I2CMasterStatus
 1179 009e 021C     		mov	r2, r0
 1180 00a0 0123     		mov	r3, #1
 1181 00a2 1340     		and	r3, r2
 1182 00a4 F9D0     		beq	.L44
 194:.\I2C_Class.c ****     
 195:.\I2C_Class.c ****     if ((result == I2C_I2C_MSTR_NO_ERROR) && (I2C_I2CMasterGetReadBufSize() != 0)){
 1183              		.loc 1 195 0 is_stmt 1
 1184 00a6 3B1C     		mov	r3, r7
 1185 00a8 3733     		add	r3, r3, #55
 1186 00aa 1B78     		ldrb	r3, [r3]
 1187 00ac 002B     		cmp	r3, #0
 1188 00ae 3ED1     		bne	.L45
 1189              		.loc 1 195 0 is_stmt 0 discriminator 1
 1190 00b0 FFF7FEFF 		bl	I2C_I2CMasterGetReadBufSize
 1191 00b4 031C     		mov	r3, r0
 1192 00b6 002B     		cmp	r3, #0
 1193 00b8 39D0     		beq	.L45
 196:.\I2C_Class.c ****         if (window){                                   // Expecting to receive MSB first 
 1194              		.loc 1 196 0 is_stmt 1
 1195 00ba 7B6A     		ldr	r3, [r7, #36]
 1196 00bc 002B     		cmp	r3, #0
 1197 00be 05D0     		beq	.L46
 197:.\I2C_Class.c ****             *window = (dataget[0] >> 4);      // Shifting out the 4 least significant bits.
 1198              		.loc 1 197 0
 1199 00c0 BB6A     		ldr	r3, [r7, #40]
 1200 00c2 1B78     		ldrb	r3, [r3]
 1201 00c4 1B09     		lsr	r3, r3, #4
 1202 00c6 DAB2     		uxtb	r2, r3
 1203 00c8 7B6A     		ldr	r3, [r7, #36]
 1204 00ca 1A70     		strb	r2, [r3]
 1205              	.L46:
 198:.\I2C_Class.c ****             #ifdef debugging
 199:.\I2C_Class.c ****                 UART_UartPutChar(*window+48);
 200:.\I2C_Class.c ****             #endif
 201:.\I2C_Class.c ****         }
 202:.\I2C_Class.c ****         if (heat){
 1206              		.loc 1 202 0
 1207 00cc 3B6A     		ldr	r3, [r7, #32]
 1208 00ce 002B     		cmp	r3, #0
 1209 00d0 08D0     		beq	.L47
 203:.\I2C_Class.c ****             *heat = ((dataget[0] & 0b00001110) >> 1);       // Ignoring everything but bit 1-3 and 
 1210              		.loc 1 203 0
 1211 00d2 BB6A     		ldr	r3, [r7, #40]
 1212 00d4 1B78     		ldrb	r3, [r3]
 1213 00d6 1A1C     		mov	r2, r3
 1214 00d8 0E23     		mov	r3, #14
 1215 00da 1340     		and	r3, r2
 1216 00dc 5B10     		asr	r3, r3, #1
 1217 00de DAB2     		uxtb	r2, r3
 1218 00e0 3B6A     		ldr	r3, [r7, #32]
 1219 00e2 1A70     		strb	r2, [r3]
 1220              	.L47:
 204:.\I2C_Class.c ****             #ifdef debugging
 205:.\I2C_Class.c ****                 UART_UartPutChar(*heat+48);
ARM GAS  C:\Users\Snufkin\AppData\Local\Temp\ccDxhUWt.s 			page 26


 206:.\I2C_Class.c ****             #endif
 207:.\I2C_Class.c ****         }
 208:.\I2C_Class.c ****         if (vent){
 1221              		.loc 1 208 0
 1222 00e4 FB69     		ldr	r3, [r7, #28]
 1223 00e6 002B     		cmp	r3, #0
 1224 00e8 15D0     		beq	.L48
 209:.\I2C_Class.c ****             if ((dataget[0] & 0b00000001) == 0b00000001){        // Maybe we can find a smarter way
 1225              		.loc 1 209 0
 1226 00ea BB6A     		ldr	r3, [r7, #40]
 1227 00ec 1B78     		ldrb	r3, [r3]
 1228 00ee 1A1C     		mov	r2, r3
 1229 00f0 0123     		mov	r3, #1
 1230 00f2 1340     		and	r3, r2
 1231 00f4 09D0     		beq	.L49
 210:.\I2C_Class.c ****                 *vent = (dataget[1] >> 6) | 0b00000100;          // The if statements checks if bit
 1232              		.loc 1 210 0
 1233 00f6 BB6A     		ldr	r3, [r7, #40]
 1234 00f8 5B78     		ldrb	r3, [r3, #1]
 1235 00fa 9B09     		lsr	r3, r3, #6
 1236 00fc DBB2     		uxtb	r3, r3
 1237 00fe 0422     		mov	r2, #4
 1238 0100 1343     		orr	r3, r2
 1239 0102 DAB2     		uxtb	r2, r3
 1240 0104 FB69     		ldr	r3, [r7, #28]
 1241 0106 1A70     		strb	r2, [r3]
 1242 0108 05E0     		b	.L48
 1243              	.L49:
 211:.\I2C_Class.c ****                 #ifdef debugging
 212:.\I2C_Class.c ****                     UART_UartPutChar(*vent+48);                         // Shifting 5 right so only
 213:.\I2C_Class.c ****                 #endif
 214:.\I2C_Class.c ****             }                                                    
 215:.\I2C_Class.c ****             else {
 216:.\I2C_Class.c ****                 *vent = (dataget[1] >> 6) | 0b00000000;          // shifting 5 right since only the
 1244              		.loc 1 216 0
 1245 010a BB6A     		ldr	r3, [r7, #40]
 1246 010c 5B78     		ldrb	r3, [r3, #1]
 1247 010e 9B09     		lsr	r3, r3, #6
 1248 0110 DAB2     		uxtb	r2, r3
 1249 0112 FB69     		ldr	r3, [r7, #28]
 1250 0114 1A70     		strb	r2, [r3]
 1251              	.L48:
 217:.\I2C_Class.c ****                 #ifdef debugging
 218:.\I2C_Class.c ****                     UART_UartPutChar(*vent+48);
 219:.\I2C_Class.c ****                 #endif
 220:.\I2C_Class.c ****             }
 221:.\I2C_Class.c ****         }
 222:.\I2C_Class.c ****         if (irrigation){
 1252              		.loc 1 222 0
 1253 0116 BB69     		ldr	r3, [r7, #24]
 1254 0118 002B     		cmp	r3, #0
 1255 011a 06D0     		beq	.L50
 223:.\I2C_Class.c ****             *irrigation = (dataget[1] & 0b00111111);             // Ignoring two most significant b
 1256              		.loc 1 223 0
 1257 011c BB6A     		ldr	r3, [r7, #40]
 1258 011e 5A78     		ldrb	r2, [r3, #1]
 1259 0120 3F23     		mov	r3, #63
ARM GAS  C:\Users\Snufkin\AppData\Local\Temp\ccDxhUWt.s 			page 27


 1260 0122 1340     		and	r3, r2
 1261 0124 DAB2     		uxtb	r2, r3
 1262 0126 BB69     		ldr	r3, [r7, #24]
 1263 0128 1A70     		strb	r2, [r3]
 1264              	.L50:
 224:.\I2C_Class.c ****             #ifdef debugging
 225:.\I2C_Class.c ****                 UART_UartPutChar(*irrigation);
 226:.\I2C_Class.c ****             #endif
 227:.\I2C_Class.c ****         }   
 228:.\I2C_Class.c ****         return 0;
 1265              		.loc 1 228 0
 1266 012a 0023     		mov	r3, #0
 1267 012c 00E0     		b	.L51
 1268              	.L45:
 229:.\I2C_Class.c ****     }
 230:.\I2C_Class.c ****     else {
 231:.\I2C_Class.c ****         return -1;   
 1269              		.loc 1 231 0
 1270 012e FF23     		mov	r3, #255
 1271              	.L51:
 1272 0130 B546     		mov	sp, r6
 1273 0132 5BB2     		sxtb	r3, r3
 232:.\I2C_Class.c ****     }
 233:.\I2C_Class.c **** }
 1274              		.loc 1 233 0
 1275 0134 181C     		mov	r0, r3
 1276 0136 BD46     		mov	sp, r7
 1277 0138 0FB0     		add	sp, sp, #60
 1278              		@ sp needed
 1279 013a F0BD     		pop	{r4, r5, r6, r7, pc}
 1280              		.cfi_endproc
 1281              	.LFE38:
 1282              		.size	getActuatorStatus, .-getActuatorStatus
 1283              		.section	.text.getTempAndHum,"ax",%progbits
 1284              		.align	2
 1285              		.global	getTempAndHum
 1286              		.code	16
 1287              		.thumb_func
 1288              		.type	getTempAndHum, %function
 1289              	getTempAndHum:
 1290              	.LFB39:
 234:.\I2C_Class.c **** 
 235:.\I2C_Class.c **** int8 getTempAndHum(int32* temp, int32* hum){
 1291              		.loc 1 235 0
 1292              		.cfi_startproc
 1293 0000 F0B5     		push	{r4, r5, r6, r7, lr}
 1294              		.cfi_def_cfa_offset 20
 1295              		.cfi_offset 4, -20
 1296              		.cfi_offset 5, -16
 1297              		.cfi_offset 6, -12
 1298              		.cfi_offset 7, -8
 1299              		.cfi_offset 14, -4
 1300 0002 4746     		mov	r7, r8
 1301 0004 80B4     		push	{r7}
 1302              		.cfi_def_cfa_offset 24
 1303              		.cfi_offset 8, -24
 1304 0006 8AB0     		sub	sp, sp, #40
ARM GAS  C:\Users\Snufkin\AppData\Local\Temp\ccDxhUWt.s 			page 28


 1305              		.cfi_def_cfa_offset 64
 1306 0008 00AF     		add	r7, sp, #0
 1307              		.cfi_def_cfa_register 7
 1308 000a 7861     		str	r0, [r7, #20]
 1309 000c 3961     		str	r1, [r7, #16]
 1310 000e 6A46     		mov	r2, sp
 1311 0010 9046     		mov	r8, r2
 236:.\I2C_Class.c ****     int32 RDbuf = 4;
 1312              		.loc 1 236 0
 1313 0012 0422     		mov	r2, #4
 1314 0014 7A62     		str	r2, [r7, #36]
 237:.\I2C_Class.c ****     uint8 dataget[RDbuf];
 1315              		.loc 1 237 0
 1316 0016 7A6A     		ldr	r2, [r7, #36]
 1317 0018 511E     		sub	r1, r2, #1
 1318 001a 3962     		str	r1, [r7, #32]
 1319 001c 111C     		mov	r1, r2
 1320 001e 0D1C     		mov	r5, r1
 1321 0020 0021     		mov	r1, #0
 1322 0022 0E1C     		mov	r6, r1
 1323 0024 690F     		lsr	r1, r5, #29
 1324 0026 F000     		lsl	r0, r6, #3
 1325 0028 F860     		str	r0, [r7, #12]
 1326 002a FB68     		ldr	r3, [r7, #12]
 1327 002c 0B43     		orr	r3, r1
 1328 002e FB60     		str	r3, [r7, #12]
 1329 0030 E800     		lsl	r0, r5, #3
 1330 0032 111C     		mov	r1, r2
 1331 0034 0B1C     		mov	r3, r1
 1332 0036 0021     		mov	r1, #0
 1333 0038 0C1C     		mov	r4, r1
 1334 003a 590F     		lsr	r1, r3, #29
 1335 003c E000     		lsl	r0, r4, #3
 1336 003e 7860     		str	r0, [r7, #4]
 1337 0040 7868     		ldr	r0, [r7, #4]
 1338 0042 0843     		orr	r0, r1
 1339 0044 7860     		str	r0, [r7, #4]
 1340 0046 D900     		lsl	r1, r3, #3
 1341 0048 131C     		mov	r3, r2
 1342 004a 0733     		add	r3, r3, #7
 1343 004c DB08     		lsr	r3, r3, #3
 1344 004e DB00     		lsl	r3, r3, #3
 1345 0050 6A46     		mov	r2, sp
 1346 0052 D21A     		sub	r2, r2, r3
 1347 0054 9546     		mov	sp, r2
 1348 0056 6B46     		mov	r3, sp
 1349 0058 0033     		add	r3, r3, #0
 1350 005a FB61     		str	r3, [r7, #28]
 238:.\I2C_Class.c ****     uint8 result = 0;
 1351              		.loc 1 238 0
 1352 005c 3B1C     		mov	r3, r7
 1353 005e 1B33     		add	r3, r3, #27
 1354 0060 0022     		mov	r2, #0
 1355 0062 1A70     		strb	r2, [r3]
 239:.\I2C_Class.c ****     
 240:.\I2C_Class.c ****     result = I2C_I2CMasterReadBuf(TEMP_AND_HUM_SENSOR_ADDRESS, dataget, RDbuf, I2C_I2C_MODE_COMPLET
 1356              		.loc 1 240 0
ARM GAS  C:\Users\Snufkin\AppData\Local\Temp\ccDxhUWt.s 			page 29


 1357 0064 FA69     		ldr	r2, [r7, #28]
 1358 0066 7B6A     		ldr	r3, [r7, #36]
 1359 0068 2720     		mov	r0, #39
 1360 006a 111C     		mov	r1, r2
 1361 006c 1A1C     		mov	r2, r3
 1362 006e 0023     		mov	r3, #0
 1363 0070 FFF7FEFF 		bl	I2C_I2CMasterReadBuf
 1364 0074 021C     		mov	r2, r0
 1365 0076 3B1C     		mov	r3, r7
 1366 0078 1B33     		add	r3, r3, #27
 1367 007a 1A70     		strb	r2, [r3]
 241:.\I2C_Class.c ****     
 242:.\I2C_Class.c ****     if (result == I2C_I2C_MSTR_NO_ERROR){
 1368              		.loc 1 242 0
 1369 007c 3B1C     		mov	r3, r7
 1370 007e 1B33     		add	r3, r3, #27
 1371 0080 1B78     		ldrb	r3, [r3]
 1372 0082 002B     		cmp	r3, #0
 1373 0084 12D1     		bne	.L54
 243:.\I2C_Class.c ****         // Expecting to receive MSB first.
 244:.\I2C_Class.c ****         *hum = ((dataget[0] << 8) | dataget[1]);   
 1374              		.loc 1 244 0
 1375 0086 FB69     		ldr	r3, [r7, #28]
 1376 0088 1B78     		ldrb	r3, [r3]
 1377 008a 1A02     		lsl	r2, r3, #8
 1378 008c FB69     		ldr	r3, [r7, #28]
 1379 008e 5B78     		ldrb	r3, [r3, #1]
 1380 0090 1A43     		orr	r2, r3
 1381 0092 3B69     		ldr	r3, [r7, #16]
 1382 0094 1A60     		str	r2, [r3]
 245:.\I2C_Class.c ****         *temp = (((dataget[2] << 8) | dataget[3]) >> 2);
 1383              		.loc 1 245 0
 1384 0096 FB69     		ldr	r3, [r7, #28]
 1385 0098 9B78     		ldrb	r3, [r3, #2]
 1386 009a 1A02     		lsl	r2, r3, #8
 1387 009c FB69     		ldr	r3, [r7, #28]
 1388 009e DB78     		ldrb	r3, [r3, #3]
 1389 00a0 1343     		orr	r3, r2
 1390 00a2 9A10     		asr	r2, r3, #2
 1391 00a4 7B69     		ldr	r3, [r7, #20]
 1392 00a6 1A60     		str	r2, [r3]
 246:.\I2C_Class.c ****         return 0;   // No error 
 1393              		.loc 1 246 0
 1394 00a8 0023     		mov	r3, #0
 1395 00aa 00E0     		b	.L55
 1396              	.L54:
 247:.\I2C_Class.c ****     }
 248:.\I2C_Class.c ****     else {
 249:.\I2C_Class.c ****         return -1;
 1397              		.loc 1 249 0
 1398 00ac FF23     		mov	r3, #255
 1399              	.L55:
 1400 00ae C546     		mov	sp, r8
 1401 00b0 5BB2     		sxtb	r3, r3
 250:.\I2C_Class.c ****     }
 251:.\I2C_Class.c **** }
 1402              		.loc 1 251 0
ARM GAS  C:\Users\Snufkin\AppData\Local\Temp\ccDxhUWt.s 			page 30


 1403 00b2 181C     		mov	r0, r3
 1404 00b4 BD46     		mov	sp, r7
 1405 00b6 0AB0     		add	sp, sp, #40
 1406              		@ sp needed
 1407 00b8 04BC     		pop	{r2}
 1408 00ba 9046     		mov	r8, r2
 1409 00bc F0BD     		pop	{r4, r5, r6, r7, pc}
 1410              		.cfi_endproc
 1411              	.LFE39:
 1412              		.size	getTempAndHum, .-getTempAndHum
 1413 00be C046     		.section	.text.getLight,"ax",%progbits
 1414              		.align	2
 1415              		.global	getLight
 1416              		.code	16
 1417              		.thumb_func
 1418              		.type	getLight, %function
 1419              	getLight:
 1420              	.LFB40:
 252:.\I2C_Class.c **** 
 253:.\I2C_Class.c **** int8 getLight(int32* light){
 1421              		.loc 1 253 0
 1422              		.cfi_startproc
 1423 0000 F0B5     		push	{r4, r5, r6, r7, lr}
 1424              		.cfi_def_cfa_offset 20
 1425              		.cfi_offset 4, -20
 1426              		.cfi_offset 5, -16
 1427              		.cfi_offset 6, -12
 1428              		.cfi_offset 7, -8
 1429              		.cfi_offset 14, -4
 1430 0002 4746     		mov	r7, r8
 1431 0004 80B4     		push	{r7}
 1432              		.cfi_def_cfa_offset 24
 1433              		.cfi_offset 8, -24
 1434 0006 88B0     		sub	sp, sp, #32
 1435              		.cfi_def_cfa_offset 56
 1436 0008 00AF     		add	r7, sp, #0
 1437              		.cfi_def_cfa_register 7
 1438 000a F860     		str	r0, [r7, #12]
 1439 000c 6846     		mov	r0, sp
 1440 000e 8046     		mov	r8, r0
 254:.\I2C_Class.c ****     
 255:.\I2C_Class.c ****     /* 
 256:.\I2C_Class.c ****     Command register: Adress 0x00.
 257:.\I2C_Class.c ****     Bit 7: resets '0' or enables '1' ADC.
 258:.\I2C_Class.c ****     Bit 6: Power down mode. Normal operation '0' or power down mode '1'.
 259:.\I2C_Class.c ****     Bit 5: Decides whether integration time (ADC is of integration type) is done internally '0' or 
 260:.\I2C_Class.c ****     Bit 4: Has to be zero.
 261:.\I2C_Class.c ****     Bit 3-2: Photodiode select 0:0 and 0:1 = disable ADC. 1:0 = Light count DATA output in signed (
 262:.\I2C_Class.c ****     Bit 1-0: Prescaler or number of clockcycles 2^(n). 0:0 = 2^(16), 0:1 = 2^(12), 1:0 = 2^(8) and 
 263:.\I2C_Class.c ****     
 264:.\I2C_Class.c ****     RW Control register: Adress 0x01.
 265:.\I2C_Class.c ****     Bit 3-2: Set lux range. watch table in page 6.
 266:.\I2C_Class.c ****     All other bits has to be zero.
 267:.\I2C_Class.c ****     
 268:.\I2C_Class.c ****     I2C Sensor data reg: Adress 0x04(LSB) and 0x05()
 269:.\I2C_Class.c ****     The sensor sends a 15 bit value that can be acceMSBssed by the adresses 0x04 and 0x05
 270:.\I2C_Class.c ****     these registers are automatically refreshed each new integration period.
ARM GAS  C:\Users\Snufkin\AppData\Local\Temp\ccDxhUWt.s 			page 31


 271:.\I2C_Class.c ****     */
 272:.\I2C_Class.c ****     
 273:.\I2C_Class.c ****     uint8 dataget[size];
 1441              		.loc 1 273 0
 1442 0010 3348     		ldr	r0, .L62
 1443 0012 0068     		ldr	r0, [r0]
 1444 0014 421E     		sub	r2, r0, #1
 1445 0016 9446     		mov	ip, r2
 1446 0018 6346     		mov	r3, ip
 1447 001a FB61     		str	r3, [r7, #28]
 1448 001c 8446     		mov	ip, r0
 1449 001e 6146     		mov	r1, ip
 1450 0020 0024     		mov	r4, #0
 1451 0022 A446     		mov	ip, r4
 1452 0024 6246     		mov	r2, ip
 1453 0026 4B0F     		lsr	r3, r1, #29
 1454 0028 9C46     		mov	ip, r3
 1455 002a D400     		lsl	r4, r2, #3
 1456 002c 7C60     		str	r4, [r7, #4]
 1457 002e 6346     		mov	r3, ip
 1458 0030 7C68     		ldr	r4, [r7, #4]
 1459 0032 2343     		orr	r3, r4
 1460 0034 7B60     		str	r3, [r7, #4]
 1461 0036 CB00     		lsl	r3, r1, #3
 1462 0038 021C     		mov	r2, r0
 1463 003a 131C     		mov	r3, r2
 1464 003c 0022     		mov	r2, #0
 1465 003e 141C     		mov	r4, r2
 1466 0040 5A0F     		lsr	r2, r3, #29
 1467 0042 E600     		lsl	r6, r4, #3
 1468 0044 1643     		orr	r6, r2
 1469 0046 DD00     		lsl	r5, r3, #3
 1470 0048 031C     		mov	r3, r0
 1471 004a 0733     		add	r3, r3, #7
 1472 004c DB08     		lsr	r3, r3, #3
 1473 004e DB00     		lsl	r3, r3, #3
 1474 0050 6C46     		mov	r4, sp
 1475 0052 E41A     		sub	r4, r4, r3
 1476 0054 A546     		mov	sp, r4
 1477 0056 6B46     		mov	r3, sp
 1478 0058 0033     		add	r3, r3, #0
 1479 005a BB61     		str	r3, [r7, #24]
 274:.\I2C_Class.c ****     uint8 result = 0;
 1480              		.loc 1 274 0
 1481 005c 3B1C     		mov	r3, r7
 1482 005e 1733     		add	r3, r3, #23
 1483 0060 0022     		mov	r2, #0
 1484 0062 1A70     		strb	r2, [r3]
 275:.\I2C_Class.c ****     
 276:.\I2C_Class.c ****     result = I2C_I2CMasterReadBuf(LIGHT_SENSOR_MSB, dataget, size, I2C_I2C_MODE_COMPLETE_XFER); 
 1485              		.loc 1 276 0
 1486 0064 BA69     		ldr	r2, [r7, #24]
 1487 0066 1E4B     		ldr	r3, .L62
 1488 0068 1B68     		ldr	r3, [r3]
 1489 006a 0520     		mov	r0, #5
 1490 006c 111C     		mov	r1, r2
 1491 006e 1A1C     		mov	r2, r3
ARM GAS  C:\Users\Snufkin\AppData\Local\Temp\ccDxhUWt.s 			page 32


 1492 0070 0023     		mov	r3, #0
 1493 0072 FFF7FEFF 		bl	I2C_I2CMasterReadBuf
 1494 0076 021C     		mov	r2, r0
 1495 0078 3B1C     		mov	r3, r7
 1496 007a 1733     		add	r3, r3, #23
 1497 007c 1A70     		strb	r2, [r3]
 277:.\I2C_Class.c ****         
 278:.\I2C_Class.c ****     if (result == I2C_I2C_MSTR_NO_ERROR){
 1498              		.loc 1 278 0
 1499 007e 3B1C     		mov	r3, r7
 1500 0080 1733     		add	r3, r3, #23
 1501 0082 1B78     		ldrb	r3, [r3]
 1502 0084 002B     		cmp	r3, #0
 1503 0086 21D1     		bne	.L58
 279:.\I2C_Class.c ****         // Expecting to receive MSB first.
 280:.\I2C_Class.c ****         *light = (dataget[0] << 7);     // TODO: TEST THIS WITH THE PROPER SENSOR!!
 1504              		.loc 1 280 0
 1505 0088 BB69     		ldr	r3, [r7, #24]
 1506 008a 1B78     		ldrb	r3, [r3]
 1507 008c DA01     		lsl	r2, r3, #7
 1508 008e FB68     		ldr	r3, [r7, #12]
 1509 0090 1A60     		str	r2, [r3]
 281:.\I2C_Class.c ****         result = I2C_I2CMasterReadBuf(LIGHT_SENSOR_LSB, dataget, size, I2C_I2C_MODE_COMPLETE_XFER);
 1510              		.loc 1 281 0
 1511 0092 BA69     		ldr	r2, [r7, #24]
 1512 0094 124B     		ldr	r3, .L62
 1513 0096 1B68     		ldr	r3, [r3]
 1514 0098 0420     		mov	r0, #4
 1515 009a 111C     		mov	r1, r2
 1516 009c 1A1C     		mov	r2, r3
 1517 009e 0023     		mov	r3, #0
 1518 00a0 FFF7FEFF 		bl	I2C_I2CMasterReadBuf
 1519 00a4 021C     		mov	r2, r0
 1520 00a6 3B1C     		mov	r3, r7
 1521 00a8 1733     		add	r3, r3, #23
 1522 00aa 1A70     		strb	r2, [r3]
 282:.\I2C_Class.c ****             if (result == I2C_I2C_MSTR_NO_ERROR){
 1523              		.loc 1 282 0
 1524 00ac 3B1C     		mov	r3, r7
 1525 00ae 1733     		add	r3, r3, #23
 1526 00b0 1B78     		ldrb	r3, [r3]
 1527 00b2 002B     		cmp	r3, #0
 1528 00b4 08D1     		bne	.L59
 283:.\I2C_Class.c ****                 *light |= dataget[0]; 
 1529              		.loc 1 283 0
 1530 00b6 FB68     		ldr	r3, [r7, #12]
 1531 00b8 1A68     		ldr	r2, [r3]
 1532 00ba BB69     		ldr	r3, [r7, #24]
 1533 00bc 1B78     		ldrb	r3, [r3]
 1534 00be 1A43     		orr	r2, r3
 1535 00c0 FB68     		ldr	r3, [r7, #12]
 1536 00c2 1A60     		str	r2, [r3]
 284:.\I2C_Class.c ****                 return 0;   // No error 
 1537              		.loc 1 284 0
 1538 00c4 0023     		mov	r3, #0
 1539 00c6 02E0     		b	.L60
 1540              	.L59:
ARM GAS  C:\Users\Snufkin\AppData\Local\Temp\ccDxhUWt.s 			page 33


 285:.\I2C_Class.c **** 	        }
 286:.\I2C_Class.c ****             else {
 287:.\I2C_Class.c ****                 return -1;
 1541              		.loc 1 287 0
 1542 00c8 FF23     		mov	r3, #255
 1543 00ca 00E0     		b	.L60
 1544              	.L58:
 288:.\I2C_Class.c ****             }
 289:.\I2C_Class.c ****     }
 290:.\I2C_Class.c ****     else {
 291:.\I2C_Class.c ****         return -1;
 1545              		.loc 1 291 0
 1546 00cc FF23     		mov	r3, #255
 1547              	.L60:
 1548 00ce C546     		mov	sp, r8
 1549 00d0 5BB2     		sxtb	r3, r3
 292:.\I2C_Class.c ****     }
 293:.\I2C_Class.c **** }
 1550              		.loc 1 293 0
 1551 00d2 181C     		mov	r0, r3
 1552 00d4 BD46     		mov	sp, r7
 1553 00d6 08B0     		add	sp, sp, #32
 1554              		@ sp needed
 1555 00d8 04BC     		pop	{r2}
 1556 00da 9046     		mov	r8, r2
 1557 00dc F0BD     		pop	{r4, r5, r6, r7, pc}
 1558              	.L63:
 1559 00de C046     		.align	2
 1560              	.L62:
 1561 00e0 04000000 		.word	size
 1562              		.cfi_endproc
 1563              	.LFE40:
 1564              		.size	getLight, .-getLight
 1565              		.section	.text.getSoilHum,"ax",%progbits
 1566              		.align	2
 1567              		.global	getSoilHum
 1568              		.code	16
 1569              		.thumb_func
 1570              		.type	getSoilHum, %function
 1571              	getSoilHum:
 1572              	.LFB41:
 294:.\I2C_Class.c **** 
 295:.\I2C_Class.c **** int8 getSoilHum(uint8 index, int16* soilHum){   // TODO: THIS HAS NOT BEEN IMPLEMENTED.
 1573              		.loc 1 295 0
 1574              		.cfi_startproc
 1575 0000 80B5     		push	{r7, lr}
 1576              		.cfi_def_cfa_offset 8
 1577              		.cfi_offset 7, -8
 1578              		.cfi_offset 14, -4
 1579 0002 84B0     		sub	sp, sp, #16
 1580              		.cfi_def_cfa_offset 24
 1581 0004 00AF     		add	r7, sp, #0
 1582              		.cfi_def_cfa_register 7
 1583 0006 021C     		mov	r2, r0
 1584 0008 3960     		str	r1, [r7]
 1585 000a FB1D     		add	r3, r7, #7
 1586 000c 1A70     		strb	r2, [r3]
ARM GAS  C:\Users\Snufkin\AppData\Local\Temp\ccDxhUWt.s 			page 34


 296:.\I2C_Class.c ****     index = 0;
 1587              		.loc 1 296 0
 1588 000e 3B1C     		mov	r3, r7
 1589 0010 0F33     		add	r3, r3, #15
 1590 0012 0022     		mov	r2, #0
 1591 0014 1A70     		strb	r2, [r3]
 297:.\I2C_Class.c ****     *soilHum = 0;
 1592              		.loc 1 297 0
 1593 0016 3B68     		ldr	r3, [r7]
 1594 0018 0022     		mov	r2, #0
 1595 001a 1A80     		strh	r2, [r3]
 298:.\I2C_Class.c ****     return 0;
 1596              		.loc 1 298 0
 1597 001c 0023     		mov	r3, #0
 1598 001e 5BB2     		sxtb	r3, r3
 299:.\I2C_Class.c **** }
 1599              		.loc 1 299 0
 1600 0020 181C     		mov	r0, r3
 1601 0022 BD46     		mov	sp, r7
 1602 0024 04B0     		add	sp, sp, #16
 1603              		@ sp needed
 1604 0026 80BD     		pop	{r7, pc}
 1605              		.cfi_endproc
 1606              	.LFE41:
 1607              		.size	getSoilHum, .-getSoilHum
 1608              		.text
 1609              	.Letext0:
 1610              		.file 2 ".\\Generated_Source\\PSoC4/cytypes.h"