ARM GAS  C:\Users\Snufkin\AppData\Local\Temp\ccV2IXte.s 			page 1


   1              		.cpu cortex-m0
   2              		.fpu softvfp
   3              		.eabi_attribute 20, 1
   4              		.eabi_attribute 21, 1
   5              		.eabi_attribute 23, 3
   6              		.eabi_attribute 24, 1
   7              		.eabi_attribute 25, 1
   8              		.eabi_attribute 26, 1
   9              		.eabi_attribute 30, 6
  10              		.eabi_attribute 34, 0
  11              		.eabi_attribute 18, 4
  12              		.code	16
  13              		.file	"PSoC_Master_Class.c"
  14              		.text
  15              	.Ltext0:
  16              		.cfi_sections	.debug_frame
  17              		.comm	receivedCommand,1,1
  18              		.comm	tempTemp,4,4
  19              		.comm	tempHum,4,4
  20              		.comm	tempSoilHum,12,4
  21              		.comm	tempLight,4,4
  22              		.global	theState
  23              		.bss
  24              		.type	theState, %object
  25              		.size	theState, 1
  26              	theState:
  27 0000 00       		.space	1
  28              		.global	irrigationIndex
  29              		.type	irrigationIndex, %object
  30              		.size	irrigationIndex, 1
  31              	irrigationIndex:
  32 0001 00       		.space	1
  33              		.global	uartInt
  34              		.type	uartInt, %object
  35              		.size	uartInt, 1
  36              	uartInt:
  37 0002 00       		.space	1
  38              		.comm	buff,1,1
  39              		.global	timerInt
  40              		.type	timerInt, %object
  41              		.size	timerInt, 1
  42              	timerInt:
  43 0003 00       		.space	1
  44              		.section	.text.initPSoC_Master,"ax",%progbits
  45              		.align	2
  46              		.global	initPSoC_Master
  47              		.code	16
  48              		.thumb_func
  49              		.type	initPSoC_Master, %function
  50              	initPSoC_Master:
  51              	.LFB33:
  52              		.file 1 ".\\PSoC_Master_Class.c"
   1:.\PSoC_Master_Class.c **** /* ========================================
   2:.\PSoC_Master_Class.c ****  * 
   3:.\PSoC_Master_Class.c ****  * AutoGreen - PSoC_Master
   4:.\PSoC_Master_Class.c ****  * PSoC_Master_Class.c
   5:.\PSoC_Master_Class.c ****  * (Description)
ARM GAS  C:\Users\Snufkin\AppData\Local\Temp\ccV2IXte.s 			page 2


   6:.\PSoC_Master_Class.c ****  * PRJ3 - GRP9
   7:.\PSoC_Master_Class.c ****  * 2015-04-15
   8:.\PSoC_Master_Class.c ****  *
   9:.\PSoC_Master_Class.c ****  * ========================================
  10:.\PSoC_Master_Class.c **** */
  11:.\PSoC_Master_Class.c **** 
  12:.\PSoC_Master_Class.c **** // Include files
  13:.\PSoC_Master_Class.c **** #include "PSoC_Master_Class.h"
  14:.\PSoC_Master_Class.c **** #include "DSP_Class.h"
  15:.\PSoC_Master_Class.c **** #include "I2C_Class.h"
  16:.\PSoC_Master_Class.c **** #include "UART_Class.h"
  17:.\PSoC_Master_Class.c **** 
  18:.\PSoC_Master_Class.c **** //Definitions
  19:.\PSoC_Master_Class.c **** #define CONVERT_TO_ASCII 48
  20:.\PSoC_Master_Class.c **** #define LED_ON 0
  21:.\PSoC_Master_Class.c **** #define LED_OFF 1
  22:.\PSoC_Master_Class.c **** 
  23:.\PSoC_Master_Class.c **** // Private data members
  24:.\PSoC_Master_Class.c **** int32 tempTemp;
  25:.\PSoC_Master_Class.c **** int32 tempHum;
  26:.\PSoC_Master_Class.c **** int16 tempSoilHum[6];
  27:.\PSoC_Master_Class.c **** int32 tempLight;
  28:.\PSoC_Master_Class.c **** 
  29:.\PSoC_Master_Class.c **** 
  30:.\PSoC_Master_Class.c **** // Private prototypes
  31:.\PSoC_Master_Class.c **** CY_ISR_PROTO(timer_ISR);
  32:.\PSoC_Master_Class.c **** CY_ISR_PROTO(UART_ISR);
  33:.\PSoC_Master_Class.c **** 
  34:.\PSoC_Master_Class.c **** // Buffers / flags
  35:.\PSoC_Master_Class.c **** typedef enum {IDLE, ADJW, ADJH, ADJV, ADJI, RESP_SOIL_HUM} state;
  36:.\PSoC_Master_Class.c **** volatile state theState = IDLE;
  37:.\PSoC_Master_Class.c **** volatile int8 irrigationIndex = 0;
  38:.\PSoC_Master_Class.c **** uint8 uartInt = 0;
  39:.\PSoC_Master_Class.c **** uint8 buff;
  40:.\PSoC_Master_Class.c **** uint8 timerInt = 0;
  41:.\PSoC_Master_Class.c **** 
  42:.\PSoC_Master_Class.c **** void initPSoC_Master(void){
  53              		.loc 1 42 0
  54              		.cfi_startproc
  55 0000 80B5     		push	{r7, lr}
  56              		.cfi_def_cfa_offset 8
  57              		.cfi_offset 7, -8
  58              		.cfi_offset 14, -4
  59 0002 00AF     		add	r7, sp, #0
  60              		.cfi_def_cfa_register 7
  43:.\PSoC_Master_Class.c **** 	tempTemp = 0;
  61              		.loc 1 43 0
  62 0004 174B     		ldr	r3, .L2
  63 0006 0022     		mov	r2, #0
  64 0008 1A60     		str	r2, [r3]
  44:.\PSoC_Master_Class.c ****     tempHum = 0;
  65              		.loc 1 44 0
  66 000a 174B     		ldr	r3, .L2+4
  67 000c 0022     		mov	r2, #0
  68 000e 1A60     		str	r2, [r3]
  45:.\PSoC_Master_Class.c ****     tempSoilHum[0] = 0;
  69              		.loc 1 45 0
ARM GAS  C:\Users\Snufkin\AppData\Local\Temp\ccV2IXte.s 			page 3


  70 0010 164B     		ldr	r3, .L2+8
  71 0012 0022     		mov	r2, #0
  72 0014 1A80     		strh	r2, [r3]
  46:.\PSoC_Master_Class.c ****     tempSoilHum[1] = 0;
  73              		.loc 1 46 0
  74 0016 154B     		ldr	r3, .L2+8
  75 0018 0022     		mov	r2, #0
  76 001a 5A80     		strh	r2, [r3, #2]
  47:.\PSoC_Master_Class.c ****     tempSoilHum[2] = 0;
  77              		.loc 1 47 0
  78 001c 134B     		ldr	r3, .L2+8
  79 001e 0022     		mov	r2, #0
  80 0020 9A80     		strh	r2, [r3, #4]
  48:.\PSoC_Master_Class.c ****     tempSoilHum[3] = 0;
  81              		.loc 1 48 0
  82 0022 124B     		ldr	r3, .L2+8
  83 0024 0022     		mov	r2, #0
  84 0026 DA80     		strh	r2, [r3, #6]
  49:.\PSoC_Master_Class.c ****     tempSoilHum[4] = 0;
  85              		.loc 1 49 0
  86 0028 104B     		ldr	r3, .L2+8
  87 002a 0022     		mov	r2, #0
  88 002c 1A81     		strh	r2, [r3, #8]
  50:.\PSoC_Master_Class.c ****     tempSoilHum[5] = 0;
  89              		.loc 1 50 0
  90 002e 0F4B     		ldr	r3, .L2+8
  91 0030 0022     		mov	r2, #0
  92 0032 5A81     		strh	r2, [r3, #10]
  51:.\PSoC_Master_Class.c ****     tempLight = 0;
  93              		.loc 1 51 0
  94 0034 0E4B     		ldr	r3, .L2+12
  95 0036 0022     		mov	r2, #0
  96 0038 1A60     		str	r2, [r3]
  52:.\PSoC_Master_Class.c **** 	
  53:.\PSoC_Master_Class.c ****     // ISR
  54:.\PSoC_Master_Class.c ****     UART_ISR_StartEx(UART_ISR);     // Starts UART interrupt component
  97              		.loc 1 54 0
  98 003a 0E4B     		ldr	r3, .L2+16
  99 003c 181C     		mov	r0, r3
 100 003e FFF7FEFF 		bl	UART_ISR_StartEx
  55:.\PSoC_Master_Class.c ****     timer_ISR_StartEx(timer_ISR);   // Starts timer interrupt component
 101              		.loc 1 55 0
 102 0042 0D4B     		ldr	r3, .L2+20
 103 0044 181C     		mov	r0, r3
 104 0046 FFF7FEFF 		bl	timer_ISR_StartEx
  56:.\PSoC_Master_Class.c ****     
  57:.\PSoC_Master_Class.c ****     UART_Start();                   //  Starts UART component
 105              		.loc 1 57 0
 106 004a FFF7FEFF 		bl	UART_Start
  58:.\PSoC_Master_Class.c ****     Timer_Start();                  // Starts timer component
 107              		.loc 1 58 0
 108 004e FFF7FEFF 		bl	Timer_Start
  59:.\PSoC_Master_Class.c ****     
  60:.\PSoC_Master_Class.c ****     RedLED_Write(LED_OFF);              // Turn off red LED
 109              		.loc 1 60 0
 110 0052 0120     		mov	r0, #1
 111 0054 FFF7FEFF 		bl	RedLED_Write
ARM GAS  C:\Users\Snufkin\AppData\Local\Temp\ccV2IXte.s 			page 4


  61:.\PSoC_Master_Class.c ****     BlueLED_Write(LED_OFF);             // Turn off blue LED
 112              		.loc 1 61 0
 113 0058 0120     		mov	r0, #1
 114 005a FFF7FEFF 		bl	BlueLED_Write
  62:.\PSoC_Master_Class.c **** 
  63:.\PSoC_Master_Class.c **** }
 115              		.loc 1 63 0
 116 005e BD46     		mov	sp, r7
 117              		@ sp needed
 118 0060 80BD     		pop	{r7, pc}
 119              	.L3:
 120 0062 C046     		.align	2
 121              	.L2:
 122 0064 00000000 		.word	tempTemp
 123 0068 00000000 		.word	tempHum
 124 006c 00000000 		.word	tempSoilHum
 125 0070 00000000 		.word	tempLight
 126 0074 00000000 		.word	UART_ISR
 127 0078 00000000 		.word	timer_ISR
 128              		.cfi_endproc
 129              	.LFE33:
 130              		.size	initPSoC_Master, .-initPSoC_Master
 131              		.section	.text.timer_ISR,"ax",%progbits
 132              		.align	2
 133              		.global	timer_ISR
 134              		.code	16
 135              		.thumb_func
 136              		.type	timer_ISR, %function
 137              	timer_ISR:
 138              	.LFB34:
  64:.\PSoC_Master_Class.c **** 
  65:.\PSoC_Master_Class.c **** // Timer ISR
  66:.\PSoC_Master_Class.c **** CY_ISR(timer_ISR){
 139              		.loc 1 66 0
 140              		.cfi_startproc
 141 0000 80B5     		push	{r7, lr}
 142              		.cfi_def_cfa_offset 8
 143              		.cfi_offset 7, -8
 144              		.cfi_offset 14, -4
 145 0002 00AF     		add	r7, sp, #0
 146              		.cfi_def_cfa_register 7
  67:.\PSoC_Master_Class.c ****     Timer_ReadStatusRegister(); //Resets the interrupt
 147              		.loc 1 67 0
 148 0004 FFF7FEFF 		bl	Timer_ReadStatusRegister
  68:.\PSoC_Master_Class.c ****     timerInt = 1;
 149              		.loc 1 68 0
 150 0008 024B     		ldr	r3, .L5
 151 000a 0122     		mov	r2, #1
 152 000c 1A70     		strb	r2, [r3]
  69:.\PSoC_Master_Class.c **** }
 153              		.loc 1 69 0
 154 000e BD46     		mov	sp, r7
 155              		@ sp needed
 156 0010 80BD     		pop	{r7, pc}
 157              	.L6:
 158 0012 C046     		.align	2
 159              	.L5:
ARM GAS  C:\Users\Snufkin\AppData\Local\Temp\ccV2IXte.s 			page 5


 160 0014 00000000 		.word	timerInt
 161              		.cfi_endproc
 162              	.LFE34:
 163              		.size	timer_ISR, .-timer_ISR
 164              		.section	.text.UART_ISR,"ax",%progbits
 165              		.align	2
 166              		.global	UART_ISR
 167              		.code	16
 168              		.thumb_func
 169              		.type	UART_ISR, %function
 170              	UART_ISR:
 171              	.LFB35:
  70:.\PSoC_Master_Class.c **** 
  71:.\PSoC_Master_Class.c **** // UART ISR
  72:.\PSoC_Master_Class.c **** CY_ISR(UART_ISR){
 172              		.loc 1 72 0
 173              		.cfi_startproc
 174 0000 80B5     		push	{r7, lr}
 175              		.cfi_def_cfa_offset 8
 176              		.cfi_offset 7, -8
 177              		.cfi_offset 14, -4
 178 0002 00AF     		add	r7, sp, #0
 179              		.cfi_def_cfa_register 7
  73:.\PSoC_Master_Class.c ****     uartInt = 1;
 180              		.loc 1 73 0
 181 0004 074B     		ldr	r3, .L8
 182 0006 0122     		mov	r2, #1
 183 0008 1A70     		strb	r2, [r3]
  74:.\PSoC_Master_Class.c ****     buff = dkRequest();
 184              		.loc 1 74 0
 185 000a FFF7FEFF 		bl	dkRequest
 186 000e 031C     		mov	r3, r0
 187 0010 1A1C     		mov	r2, r3
 188 0012 054B     		ldr	r3, .L8+4
 189 0014 1A70     		strb	r2, [r3]
  75:.\PSoC_Master_Class.c ****     UART_ClearRxInterruptSource(UART_GetRxInterruptSourceMasked());     // Clear interrupt flag
 190              		.loc 1 75 0
 191 0016 054B     		ldr	r3, .L8+8
 192 0018 054A     		ldr	r2, .L8+12
 193 001a 1268     		ldr	r2, [r2]
 194 001c 1A60     		str	r2, [r3]
  76:.\PSoC_Master_Class.c **** }
 195              		.loc 1 76 0
 196 001e BD46     		mov	sp, r7
 197              		@ sp needed
 198 0020 80BD     		pop	{r7, pc}
 199              	.L9:
 200 0022 C046     		.align	2
 201              	.L8:
 202 0024 00000000 		.word	uartInt
 203 0028 00000000 		.word	buff
 204 002c C00F0740 		.word	1074204608
 205 0030 CC0F0740 		.word	1074204620
 206              		.cfi_endproc
 207              	.LFE35:
 208              		.size	UART_ISR, .-UART_ISR
 209              		.section	.text.uartIntHandler,"ax",%progbits
ARM GAS  C:\Users\Snufkin\AppData\Local\Temp\ccV2IXte.s 			page 6


 210              		.align	2
 211              		.global	uartIntHandler
 212              		.code	16
 213              		.thumb_func
 214              		.type	uartIntHandler, %function
 215              	uartIntHandler:
 216              	.LFB36:
  77:.\PSoC_Master_Class.c **** 
  78:.\PSoC_Master_Class.c **** void uartIntHandler(void){
 217              		.loc 1 78 0
 218              		.cfi_startproc
 219 0000 80B5     		push	{r7, lr}
 220              		.cfi_def_cfa_offset 8
 221              		.cfi_offset 7, -8
 222              		.cfi_offset 14, -4
 223 0002 82B0     		sub	sp, sp, #8
 224              		.cfi_def_cfa_offset 16
 225 0004 00AF     		add	r7, sp, #0
 226              		.cfi_def_cfa_register 7
  79:.\PSoC_Master_Class.c ****     if (uartInt){
 227              		.loc 1 79 0
 228 0006 744B     		ldr	r3, .L38
 229 0008 1B78     		ldrb	r3, [r3]
 230 000a 002B     		cmp	r3, #0
 231 000c 00D1     		bne	.LCB147
 232 000e E0E0     		b	.L10	@long jump
 233              	.LCB147:
  80:.\PSoC_Master_Class.c ****         uartInt = 0;
 234              		.loc 1 80 0
 235 0010 714B     		ldr	r3, .L38
 236 0012 0022     		mov	r2, #0
 237 0014 1A70     		strb	r2, [r3]
  81:.\PSoC_Master_Class.c ****         BlueLED_Write(LED_ON);       // Turn on blue LED
 238              		.loc 1 81 0
 239 0016 0020     		mov	r0, #0
 240 0018 FFF7FEFF 		bl	BlueLED_Write
  82:.\PSoC_Master_Class.c ****         
  83:.\PSoC_Master_Class.c ****         if(theState == IDLE){
 241              		.loc 1 83 0
 242 001c 6F4B     		ldr	r3, .L38+4
 243 001e 1B78     		ldrb	r3, [r3]
 244 0020 DBB2     		uxtb	r3, r3
 245 0022 002B     		cmp	r3, #0
 246 0024 42D1     		bne	.L12
  84:.\PSoC_Master_Class.c ****             switch (buff){
 247              		.loc 1 84 0
 248 0026 6E4B     		ldr	r3, .L38+8
 249 0028 1B78     		ldrb	r3, [r3]
 250 002a 413B     		sub	r3, r3, #65
 251 002c 162B     		cmp	r3, #22
 252 002e 3BD8     		bhi	.L37
 253 0030 9A00     		lsl	r2, r3, #2
 254 0032 6C4B     		ldr	r3, .L38+12
 255 0034 D318     		add	r3, r2, r3
 256 0036 1B68     		ldr	r3, [r3]
 257 0038 9F46     		mov	pc, r3
 258              		.section	.rodata
ARM GAS  C:\Users\Snufkin\AppData\Local\Temp\ccV2IXte.s 			page 7


 259              		.align	2
 260              	.L15:
 261 0000 56000000 		.word	.L14
 262 0004 A8000000 		.word	.L37
 263 0008 A8000000 		.word	.L37
 264 000c A8000000 		.word	.L37
 265 0010 A8000000 		.word	.L37
 266 0014 98000000 		.word	.L16
 267 0018 A8000000 		.word	.L37
 268 001c 64000000 		.word	.L17
 269 0020 A8000000 		.word	.L37
 270 0024 A8000000 		.word	.L37
 271 0028 76000000 		.word	.L18
 272 002c 48000000 		.word	.L19
 273 0030 A8000000 		.word	.L37
 274 0034 A8000000 		.word	.L37
 275 0038 A8000000 		.word	.L37
 276 003c A8000000 		.word	.L37
 277 0040 A8000000 		.word	.L37
 278 0044 A8000000 		.word	.L37
 279 0048 A0000000 		.word	.L20
 280 004c 3A000000 		.word	.L21
 281 0050 A8000000 		.word	.L37
 282 0054 90000000 		.word	.L22
 283 0058 88000000 		.word	.L23
 284              		.section	.text.uartIntHandler
 285              	.L21:
  85:.\PSoC_Master_Class.c ****                 case 'T':{ //RequestTemp
  86:.\PSoC_Master_Class.c ****                     respondTemp(getTemp_DSP());		
 286              		.loc 1 86 0
 287 003a FFF7FEFF 		bl	getTemp_DSP
 288 003e 031C     		mov	r3, r0
 289 0040 181C     		mov	r0, r3
 290 0042 FFF7FEFF 		bl	respondTemp
  87:.\PSoC_Master_Class.c ****                     break;
 291              		.loc 1 87 0
 292 0046 30E0     		b	.L24
 293              	.L19:
  88:.\PSoC_Master_Class.c ****                 }
  89:.\PSoC_Master_Class.c ****                 case 'L':{ //RequestLight
  90:.\PSoC_Master_Class.c ****                     respondLight(getLight_DSP());
 294              		.loc 1 90 0
 295 0048 FFF7FEFF 		bl	getLight_DSP
 296 004c 031C     		mov	r3, r0
 297 004e 181C     		mov	r0, r3
 298 0050 FFF7FEFF 		bl	respondLight
  91:.\PSoC_Master_Class.c ****                     break;
 299              		.loc 1 91 0
 300 0054 29E0     		b	.L24
 301              	.L14:
  92:.\PSoC_Master_Class.c ****                 }
  93:.\PSoC_Master_Class.c ****                 case 'A':{ //RequestAirhum
  94:.\PSoC_Master_Class.c ****                     respondHum(getHum_DSP());
 302              		.loc 1 94 0
 303 0056 FFF7FEFF 		bl	getHum_DSP
 304 005a 031C     		mov	r3, r0
 305 005c 181C     		mov	r0, r3
ARM GAS  C:\Users\Snufkin\AppData\Local\Temp\ccV2IXte.s 			page 8


 306 005e FFF7FEFF 		bl	respondHum
  95:.\PSoC_Master_Class.c ****                     break;
 307              		.loc 1 95 0
 308 0062 22E0     		b	.L24
 309              	.L17:
  96:.\PSoC_Master_Class.c ****                 }        
  97:.\PSoC_Master_Class.c ****                 case 'H':{ //TurnHeatOn
  98:.\PSoC_Master_Class.c ****                     // 0x7 is the maximum value.
  99:.\PSoC_Master_Class.c ****                     respondHeat(adjustHeat(0x7), 'H');
 310              		.loc 1 99 0
 311 0064 0720     		mov	r0, #7
 312 0066 FFF7FEFF 		bl	adjustHeat
 313 006a 031C     		mov	r3, r0
 314 006c 181C     		mov	r0, r3
 315 006e 4821     		mov	r1, #72
 316 0070 FFF7FEFF 		bl	respondHeat
 100:.\PSoC_Master_Class.c ****                     break;
 317              		.loc 1 100 0
 318 0074 19E0     		b	.L24
 319              	.L18:
 101:.\PSoC_Master_Class.c ****                 }
 102:.\PSoC_Master_Class.c ****                 case 'K':{ //TurnHeatOff
 103:.\PSoC_Master_Class.c ****                     // 0x0 is the minimum value.
 104:.\PSoC_Master_Class.c ****                     respondHeat(adjustHeat(0x0), 'K');
 320              		.loc 1 104 0
 321 0076 0020     		mov	r0, #0
 322 0078 FFF7FEFF 		bl	adjustHeat
 323 007c 031C     		mov	r3, r0
 324 007e 181C     		mov	r0, r3
 325 0080 4B21     		mov	r1, #75
 326 0082 FFF7FEFF 		bl	respondHeat
 105:.\PSoC_Master_Class.c ****                     break;
 327              		.loc 1 105 0
 328 0086 10E0     		b	.L24
 329              	.L23:
 106:.\PSoC_Master_Class.c ****                 }
 107:.\PSoC_Master_Class.c ****                 case 'W':{ //AdjustWindow
 108:.\PSoC_Master_Class.c ****                     theState = ADJW;
 330              		.loc 1 108 0
 331 0088 544B     		ldr	r3, .L38+4
 332 008a 0122     		mov	r2, #1
 333 008c 1A70     		strb	r2, [r3]
 109:.\PSoC_Master_Class.c ****                     break;
 334              		.loc 1 109 0
 335 008e 0CE0     		b	.L24
 336              	.L22:
 110:.\PSoC_Master_Class.c ****                 }
 111:.\PSoC_Master_Class.c ****                 case 'V':{ //Ventilation
 112:.\PSoC_Master_Class.c ****                     theState = ADJV;
 337              		.loc 1 112 0
 338 0090 524B     		ldr	r3, .L38+4
 339 0092 0322     		mov	r2, #3
 340 0094 1A70     		strb	r2, [r3]
 113:.\PSoC_Master_Class.c ****                     break;
 341              		.loc 1 113 0
 342 0096 08E0     		b	.L24
 343              	.L16:
ARM GAS  C:\Users\Snufkin\AppData\Local\Temp\ccV2IXte.s 			page 9


 114:.\PSoC_Master_Class.c ****                 }
 115:.\PSoC_Master_Class.c ****                 case 'F':{ //Watering
 116:.\PSoC_Master_Class.c ****                     theState = ADJI;
 344              		.loc 1 116 0
 345 0098 504B     		ldr	r3, .L38+4
 346 009a 0422     		mov	r2, #4
 347 009c 1A70     		strb	r2, [r3]
 117:.\PSoC_Master_Class.c ****                     break;
 348              		.loc 1 117 0
 349 009e 04E0     		b	.L24
 350              	.L20:
 118:.\PSoC_Master_Class.c ****                 }
 119:.\PSoC_Master_Class.c ****                 case 'S':{
 120:.\PSoC_Master_Class.c ****                     theState = RESP_SOIL_HUM;
 351              		.loc 1 120 0
 352 00a0 4E4B     		ldr	r3, .L38+4
 353 00a2 0522     		mov	r2, #5
 354 00a4 1A70     		strb	r2, [r3]
 121:.\PSoC_Master_Class.c ****                     break;
 355              		.loc 1 121 0
 356 00a6 00E0     		b	.L24
 357              	.L37:
 122:.\PSoC_Master_Class.c ****                 }
 123:.\PSoC_Master_Class.c ****                 default:{
 124:.\PSoC_Master_Class.c ****                     // Do nothing - let the DevKit8000 timeout
 125:.\PSoC_Master_Class.c ****                     break;
 358              		.loc 1 125 0
 359 00a8 C046     		mov	r8, r8
 360              	.L24:
 361 00aa 8CE0     		b	.L25
 362              	.L12:
 126:.\PSoC_Master_Class.c ****                 }
 127:.\PSoC_Master_Class.c ****             }
 128:.\PSoC_Master_Class.c ****         }
 129:.\PSoC_Master_Class.c ****         else if(theState == ADJW){
 363              		.loc 1 129 0
 364 00ac 4B4B     		ldr	r3, .L38+4
 365 00ae 1B78     		ldrb	r3, [r3]
 366 00b0 DBB2     		uxtb	r3, r3
 367 00b2 012B     		cmp	r3, #1
 368 00b4 16D1     		bne	.L26
 130:.\PSoC_Master_Class.c ****             if(buff-CONVERT_TO_ASCII == 1){
 369              		.loc 1 130 0
 370 00b6 4A4B     		ldr	r3, .L38+8
 371 00b8 1B78     		ldrb	r3, [r3]
 372 00ba 312B     		cmp	r3, #49
 373 00bc 07D1     		bne	.L27
 131:.\PSoC_Master_Class.c ****                 respondWin(adjustWindow(0xFF));
 374              		.loc 1 131 0
 375 00be FF20     		mov	r0, #255
 376 00c0 FFF7FEFF 		bl	adjustWindow
 377 00c4 031C     		mov	r3, r0
 378 00c6 181C     		mov	r0, r3
 379 00c8 FFF7FEFF 		bl	respondWin
 380 00cc 06E0     		b	.L28
 381              	.L27:
 132:.\PSoC_Master_Class.c ****             }
ARM GAS  C:\Users\Snufkin\AppData\Local\Temp\ccV2IXte.s 			page 10


 133:.\PSoC_Master_Class.c ****             else{
 134:.\PSoC_Master_Class.c ****                 respondWin(adjustWindow(0x00));
 382              		.loc 1 134 0
 383 00ce 0020     		mov	r0, #0
 384 00d0 FFF7FEFF 		bl	adjustWindow
 385 00d4 031C     		mov	r3, r0
 386 00d6 181C     		mov	r0, r3
 387 00d8 FFF7FEFF 		bl	respondWin
 388              	.L28:
 135:.\PSoC_Master_Class.c ****             }
 136:.\PSoC_Master_Class.c ****             theState = IDLE;
 389              		.loc 1 136 0 discriminator 1
 390 00dc 3F4B     		ldr	r3, .L38+4
 391 00de 0022     		mov	r2, #0
 392 00e0 1A70     		strb	r2, [r3]
 393 00e2 70E0     		b	.L25
 394              	.L26:
 137:.\PSoC_Master_Class.c ****         }
 138:.\PSoC_Master_Class.c ****         else if(theState == ADJV){
 395              		.loc 1 138 0
 396 00e4 3D4B     		ldr	r3, .L38+4
 397 00e6 1B78     		ldrb	r3, [r3]
 398 00e8 DBB2     		uxtb	r3, r3
 399 00ea 032B     		cmp	r3, #3
 400 00ec 16D1     		bne	.L29
 139:.\PSoC_Master_Class.c ****             if(buff-CONVERT_TO_ASCII == 1){
 401              		.loc 1 139 0
 402 00ee 3C4B     		ldr	r3, .L38+8
 403 00f0 1B78     		ldrb	r3, [r3]
 404 00f2 312B     		cmp	r3, #49
 405 00f4 07D1     		bne	.L30
 140:.\PSoC_Master_Class.c ****                 respondVent(adjustVentilation(0xFF));
 406              		.loc 1 140 0
 407 00f6 FF20     		mov	r0, #255
 408 00f8 FFF7FEFF 		bl	adjustVentilation
 409 00fc 031C     		mov	r3, r0
 410 00fe 181C     		mov	r0, r3
 411 0100 FFF7FEFF 		bl	respondVent
 412 0104 06E0     		b	.L31
 413              	.L30:
 141:.\PSoC_Master_Class.c ****             }
 142:.\PSoC_Master_Class.c ****             else{
 143:.\PSoC_Master_Class.c ****                 respondVent(adjustVentilation(0x00));
 414              		.loc 1 143 0
 415 0106 0020     		mov	r0, #0
 416 0108 FFF7FEFF 		bl	adjustVentilation
 417 010c 031C     		mov	r3, r0
 418 010e 181C     		mov	r0, r3
 419 0110 FFF7FEFF 		bl	respondVent
 420              	.L31:
 144:.\PSoC_Master_Class.c ****             }
 145:.\PSoC_Master_Class.c ****             theState = IDLE;
 421              		.loc 1 145 0 discriminator 2
 422 0114 314B     		ldr	r3, .L38+4
 423 0116 0022     		mov	r2, #0
 424 0118 1A70     		strb	r2, [r3]
 425 011a 54E0     		b	.L25
ARM GAS  C:\Users\Snufkin\AppData\Local\Temp\ccV2IXte.s 			page 11


 426              	.L29:
 146:.\PSoC_Master_Class.c ****         }
 147:.\PSoC_Master_Class.c ****         else if(theState == ADJI){
 427              		.loc 1 147 0
 428 011c 2F4B     		ldr	r3, .L38+4
 429 011e 1B78     		ldrb	r3, [r3]
 430 0120 DBB2     		uxtb	r3, r3
 431 0122 042B     		cmp	r3, #4
 432 0124 32D1     		bne	.L32
 148:.\PSoC_Master_Class.c ****             if (!irrigationIndex){
 433              		.loc 1 148 0
 434 0126 304B     		ldr	r3, .L38+16
 435 0128 1B78     		ldrb	r3, [r3]
 436 012a DBB2     		uxtb	r3, r3
 437 012c 002B     		cmp	r3, #0
 438 012e 05D1     		bne	.L33
 149:.\PSoC_Master_Class.c ****                 irrigationIndex = buff;
 439              		.loc 1 149 0
 440 0130 2B4B     		ldr	r3, .L38+8
 441 0132 1B78     		ldrb	r3, [r3]
 442 0134 DAB2     		uxtb	r2, r3
 443 0136 2C4B     		ldr	r3, .L38+16
 444 0138 1A70     		strb	r2, [r3]
 445 013a 44E0     		b	.L25
 446              	.L33:
 150:.\PSoC_Master_Class.c ****             }
 151:.\PSoC_Master_Class.c ****             else{
 152:.\PSoC_Master_Class.c ****                 if (buff-CONVERT_TO_ASCII == 1){
 447              		.loc 1 152 0
 448 013c 284B     		ldr	r3, .L38+8
 449 013e 1B78     		ldrb	r3, [r3]
 450 0140 312B     		cmp	r3, #49
 451 0142 0ED1     		bne	.L35
 153:.\PSoC_Master_Class.c ****                     respondIrri(adjustIrrigation(irrigationIndex-CONVERT_TO_ASCII-1, 0xFF));
 452              		.loc 1 153 0
 453 0144 284B     		ldr	r3, .L38+16
 454 0146 1B78     		ldrb	r3, [r3]
 455 0148 DBB2     		uxtb	r3, r3
 456 014a DBB2     		uxtb	r3, r3
 457 014c 313B     		sub	r3, r3, #49
 458 014e DBB2     		uxtb	r3, r3
 459 0150 181C     		mov	r0, r3
 460 0152 FF21     		mov	r1, #255
 461 0154 FFF7FEFF 		bl	adjustIrrigation
 462 0158 031C     		mov	r3, r0
 463 015a 181C     		mov	r0, r3
 464 015c FFF7FEFF 		bl	respondIrri
 465 0160 0DE0     		b	.L36
 466              	.L35:
 154:.\PSoC_Master_Class.c ****                 }
 155:.\PSoC_Master_Class.c ****                 else{
 156:.\PSoC_Master_Class.c ****                     respondIrri(adjustIrrigation(irrigationIndex-CONVERT_TO_ASCII-1, 0x00));
 467              		.loc 1 156 0
 468 0162 214B     		ldr	r3, .L38+16
 469 0164 1B78     		ldrb	r3, [r3]
 470 0166 DBB2     		uxtb	r3, r3
 471 0168 DBB2     		uxtb	r3, r3
ARM GAS  C:\Users\Snufkin\AppData\Local\Temp\ccV2IXte.s 			page 12


 472 016a 313B     		sub	r3, r3, #49
 473 016c DBB2     		uxtb	r3, r3
 474 016e 181C     		mov	r0, r3
 475 0170 0021     		mov	r1, #0
 476 0172 FFF7FEFF 		bl	adjustIrrigation
 477 0176 031C     		mov	r3, r0
 478 0178 181C     		mov	r0, r3
 479 017a FFF7FEFF 		bl	respondIrri
 480              	.L36:
 157:.\PSoC_Master_Class.c ****                 }
 158:.\PSoC_Master_Class.c ****                 irrigationIndex = 0;
 481              		.loc 1 158 0
 482 017e 1A4B     		ldr	r3, .L38+16
 483 0180 0022     		mov	r2, #0
 484 0182 1A70     		strb	r2, [r3]
 159:.\PSoC_Master_Class.c ****                 theState = IDLE;
 485              		.loc 1 159 0
 486 0184 154B     		ldr	r3, .L38+4
 487 0186 0022     		mov	r2, #0
 488 0188 1A70     		strb	r2, [r3]
 489 018a 1CE0     		b	.L25
 490              	.L32:
 160:.\PSoC_Master_Class.c ****             }
 161:.\PSoC_Master_Class.c ****         }
 162:.\PSoC_Master_Class.c ****         else if(theState == RESP_SOIL_HUM){
 491              		.loc 1 162 0
 492 018c 134B     		ldr	r3, .L38+4
 493 018e 1B78     		ldrb	r3, [r3]
 494 0190 DBB2     		uxtb	r3, r3
 495 0192 052B     		cmp	r3, #5
 496 0194 17D1     		bne	.L25
 497              	.LBB2:
 163:.\PSoC_Master_Class.c ****             uint8 temp = buff - CONVERT_TO_ASCII - 1; //incoming number is in ASCII 1-6, DSP works 
 498              		.loc 1 163 0
 499 0196 124B     		ldr	r3, .L38+8
 500 0198 1A78     		ldrb	r2, [r3]
 501 019a FB1D     		add	r3, r7, #7
 502 019c 313A     		sub	r2, r2, #49
 503 019e 1A70     		strb	r2, [r3]
 164:.\PSoC_Master_Class.c ****             if (temp <= 5 && temp >= 0){
 504              		.loc 1 164 0
 505 01a0 FB1D     		add	r3, r7, #7
 506 01a2 1B78     		ldrb	r3, [r3]
 507 01a4 052B     		cmp	r3, #5
 508 01a6 0ED8     		bhi	.L25
 165:.\PSoC_Master_Class.c ****                 respondSoilHum(temp, getSoilHum_DSP(temp));
 509              		.loc 1 165 0
 510 01a8 FB1D     		add	r3, r7, #7
 511 01aa 1B78     		ldrb	r3, [r3]
 512 01ac 181C     		mov	r0, r3
 513 01ae FFF7FEFF 		bl	getSoilHum_DSP
 514 01b2 031C     		mov	r3, r0
 515 01b4 FA1D     		add	r2, r7, #7
 516 01b6 1278     		ldrb	r2, [r2]
 517 01b8 101C     		mov	r0, r2
 518 01ba 191C     		mov	r1, r3
 519 01bc FFF7FEFF 		bl	respondSoilHum
ARM GAS  C:\Users\Snufkin\AppData\Local\Temp\ccV2IXte.s 			page 13


 166:.\PSoC_Master_Class.c ****                 theState = IDLE;
 520              		.loc 1 166 0
 521 01c0 064B     		ldr	r3, .L38+4
 522 01c2 0022     		mov	r2, #0
 523 01c4 1A70     		strb	r2, [r3]
 524              	.L25:
 525              	.LBE2:
 167:.\PSoC_Master_Class.c ****             }
 168:.\PSoC_Master_Class.c ****         }
 169:.\PSoC_Master_Class.c ****         buff = 0;
 526              		.loc 1 169 0
 527 01c6 064B     		ldr	r3, .L38+8
 528 01c8 0022     		mov	r2, #0
 529 01ca 1A70     		strb	r2, [r3]
 170:.\PSoC_Master_Class.c ****         BlueLED_Write(LED_OFF);         // Turn off blue LED
 530              		.loc 1 170 0
 531 01cc 0120     		mov	r0, #1
 532 01ce FFF7FEFF 		bl	BlueLED_Write
 533              	.L10:
 171:.\PSoC_Master_Class.c ****     }
 172:.\PSoC_Master_Class.c **** }
 534              		.loc 1 172 0
 535 01d2 BD46     		mov	sp, r7
 536 01d4 02B0     		add	sp, sp, #8
 537              		@ sp needed
 538 01d6 80BD     		pop	{r7, pc}
 539              	.L39:
 540              		.align	2
 541              	.L38:
 542 01d8 00000000 		.word	uartInt
 543 01dc 00000000 		.word	theState
 544 01e0 00000000 		.word	buff
 545 01e4 00000000 		.word	.L15
 546 01e8 00000000 		.word	irrigationIndex
 547              		.cfi_endproc
 548              	.LFE36:
 549              		.size	uartIntHandler, .-uartIntHandler
 550              		.section	.text.timerIntHandler,"ax",%progbits
 551              		.align	2
 552              		.global	timerIntHandler
 553              		.code	16
 554              		.thumb_func
 555              		.type	timerIntHandler, %function
 556              	timerIntHandler:
 557              	.LFB37:
 173:.\PSoC_Master_Class.c **** 
 174:.\PSoC_Master_Class.c **** void timerIntHandler(void){
 558              		.loc 1 174 0
 559              		.cfi_startproc
 560 0000 80B5     		push	{r7, lr}
 561              		.cfi_def_cfa_offset 8
 562              		.cfi_offset 7, -8
 563              		.cfi_offset 14, -4
 564 0002 82B0     		sub	sp, sp, #8
 565              		.cfi_def_cfa_offset 16
 566 0004 00AF     		add	r7, sp, #0
 567              		.cfi_def_cfa_register 7
ARM GAS  C:\Users\Snufkin\AppData\Local\Temp\ccV2IXte.s 			page 14


 175:.\PSoC_Master_Class.c ****     if(timerInt){
 568              		.loc 1 175 0
 569 0006 214B     		ldr	r3, .L44
 570 0008 1B78     		ldrb	r3, [r3]
 571 000a 002B     		cmp	r3, #0
 572 000c 3BD0     		beq	.L40
 176:.\PSoC_Master_Class.c ****         timerInt = 0;   // Reset flag
 573              		.loc 1 176 0
 574 000e 1F4B     		ldr	r3, .L44
 575 0010 0022     		mov	r2, #0
 576 0012 1A70     		strb	r2, [r3]
 177:.\PSoC_Master_Class.c ****         RedLED_Write(LED_ON);           // Turn on red LED
 577              		.loc 1 177 0
 578 0014 0020     		mov	r0, #0
 579 0016 FFF7FEFF 		bl	RedLED_Write
 178:.\PSoC_Master_Class.c ****         
 179:.\PSoC_Master_Class.c ****         // getTempAndHum(&tempTemp, &tempHum);  // TODO this is old
 180:.\PSoC_Master_Class.c ****         getTemp(&tempTemp);
 580              		.loc 1 180 0
 581 001a 1D4B     		ldr	r3, .L44+4
 582 001c 181C     		mov	r0, r3
 583 001e FFF7FEFF 		bl	getTemp
 181:.\PSoC_Master_Class.c ****         
 182:.\PSoC_Master_Class.c ****         inputTemp(&tempTemp);
 584              		.loc 1 182 0
 585 0022 1B4B     		ldr	r3, .L44+4
 586 0024 181C     		mov	r0, r3
 587 0026 FFF7FEFF 		bl	inputTemp
 588              	.LBB3:
 183:.\PSoC_Master_Class.c ****         // inputHum(&tempHum);      // TODO there is no way to take Hum measurements
 184:.\PSoC_Master_Class.c ****         {
 185:.\PSoC_Master_Class.c ****             uint8 i;
 186:.\PSoC_Master_Class.c ****             for(i = 0; i<6 ; i++){
 589              		.loc 1 186 0
 590 002a FB1D     		add	r3, r7, #7
 591 002c 0022     		mov	r2, #0
 592 002e 1A70     		strb	r2, [r3]
 593 0030 1AE0     		b	.L42
 594              	.L43:
 187:.\PSoC_Master_Class.c ****                 getSoilHum(i, &tempSoilHum[i]);
 595              		.loc 1 187 0 discriminator 2
 596 0032 FB1D     		add	r3, r7, #7
 597 0034 1B78     		ldrb	r3, [r3]
 598 0036 5A00     		lsl	r2, r3, #1
 599 0038 164B     		ldr	r3, .L44+8
 600 003a D318     		add	r3, r2, r3
 601 003c FA1D     		add	r2, r7, #7
 602 003e 1278     		ldrb	r2, [r2]
 603 0040 101C     		mov	r0, r2
 604 0042 191C     		mov	r1, r3
 605 0044 FFF7FEFF 		bl	getSoilHum
 188:.\PSoC_Master_Class.c ****                 inputSoilHum(i, &tempSoilHum[i]);
 606              		.loc 1 188 0 discriminator 2
 607 0048 FB1D     		add	r3, r7, #7
 608 004a 1B78     		ldrb	r3, [r3]
 609 004c 5A00     		lsl	r2, r3, #1
 610 004e 114B     		ldr	r3, .L44+8
ARM GAS  C:\Users\Snufkin\AppData\Local\Temp\ccV2IXte.s 			page 15


 611 0050 D318     		add	r3, r2, r3
 612 0052 FA1D     		add	r2, r7, #7
 613 0054 1278     		ldrb	r2, [r2]
 614 0056 101C     		mov	r0, r2
 615 0058 191C     		mov	r1, r3
 616 005a FFF7FEFF 		bl	inputSoilHum
 186:.\PSoC_Master_Class.c ****             for(i = 0; i<6 ; i++){
 617              		.loc 1 186 0 discriminator 2
 618 005e FB1D     		add	r3, r7, #7
 619 0060 1A78     		ldrb	r2, [r3]
 620 0062 FB1D     		add	r3, r7, #7
 621 0064 0132     		add	r2, r2, #1
 622 0066 1A70     		strb	r2, [r3]
 623              	.L42:
 186:.\PSoC_Master_Class.c ****             for(i = 0; i<6 ; i++){
 624              		.loc 1 186 0 is_stmt 0 discriminator 1
 625 0068 FB1D     		add	r3, r7, #7
 626 006a 1B78     		ldrb	r3, [r3]
 627 006c 052B     		cmp	r3, #5
 628 006e E0D9     		bls	.L43
 629              	.LBE3:
 189:.\PSoC_Master_Class.c ****             }
 190:.\PSoC_Master_Class.c ****         }
 191:.\PSoC_Master_Class.c ****         getLight(&tempLight);
 630              		.loc 1 191 0 is_stmt 1
 631 0070 094B     		ldr	r3, .L44+12
 632 0072 181C     		mov	r0, r3
 633 0074 FFF7FEFF 		bl	getLight
 192:.\PSoC_Master_Class.c ****         inputLight(&tempLight);
 634              		.loc 1 192 0
 635 0078 074B     		ldr	r3, .L44+12
 636 007a 181C     		mov	r0, r3
 637 007c FFF7FEFF 		bl	inputLight
 193:.\PSoC_Master_Class.c ****         
 194:.\PSoC_Master_Class.c ****         RedLED_Write(LED_OFF);              // Turn off red LED    
 638              		.loc 1 194 0
 639 0080 0120     		mov	r0, #1
 640 0082 FFF7FEFF 		bl	RedLED_Write
 641              	.L40:
 195:.\PSoC_Master_Class.c ****     }    
 196:.\PSoC_Master_Class.c **** }
 642              		.loc 1 196 0
 643 0086 BD46     		mov	sp, r7
 644 0088 02B0     		add	sp, sp, #8
 645              		@ sp needed
 646 008a 80BD     		pop	{r7, pc}
 647              	.L45:
 648              		.align	2
 649              	.L44:
 650 008c 00000000 		.word	timerInt
 651 0090 00000000 		.word	tempTemp
 652 0094 00000000 		.word	tempSoilHum
 653 0098 00000000 		.word	tempLight
 654              		.cfi_endproc
 655              	.LFE37:
 656              		.size	timerIntHandler, .-timerIntHandler
 657              		.text
ARM GAS  C:\Users\Snufkin\AppData\Local\Temp\ccV2IXte.s 			page 16


 658              	.Letext0:
 659              		.file 2 ".\\Generated_Source\\PSoC4/cytypes.h"
 660              		.file 3 ".\\UART_Class.h"
 661              		.section	.debug_info,"",%progbits
 662              	.Ldebug_info0:
 663 0000 55020000 		.4byte	0x255
 664 0004 0400     		.2byte	0x4
 665 0006 00000000 		.4byte	.Ldebug_abbrev0
 666 000a 04       		.byte	0x4
 667 000b 01       		.uleb128 0x1
 668 000c 77000000 		.4byte	.LASF42
 669 0010 01       		.byte	0x1
 670 0011 22000000 		.4byte	.LASF43
 671 0015 A9010000 		.4byte	.LASF44
 672 0019 00000000 		.4byte	.Ldebug_ranges0+0
 673 001d 00000000 		.4byte	0
 674 0021 00000000 		.4byte	.Ldebug_line0
 675 0025 02       		.uleb128 0x2
 676 0026 01       		.byte	0x1
 677 0027 06       		.byte	0x6
 678 0028 60020000 		.4byte	.LASF0
 679 002c 02       		.uleb128 0x2
 680 002d 01       		.byte	0x1
 681 002e 08       		.byte	0x8
 682 002f 01010000 		.4byte	.LASF1
 683 0033 02       		.uleb128 0x2
 684 0034 02       		.byte	0x2
 685 0035 05       		.byte	0x5
 686 0036 37020000 		.4byte	.LASF2
 687 003a 02       		.uleb128 0x2
 688 003b 02       		.byte	0x2
 689 003c 07       		.byte	0x7
 690 003d 48000000 		.4byte	.LASF3
 691 0041 02       		.uleb128 0x2
 692 0042 04       		.byte	0x4
 693 0043 05       		.byte	0x5
 694 0044 57020000 		.4byte	.LASF4
 695 0048 02       		.uleb128 0x2
 696 0049 04       		.byte	0x4
 697 004a 07       		.byte	0x7
 698 004b 15010000 		.4byte	.LASF5
 699 004f 02       		.uleb128 0x2
 700 0050 08       		.byte	0x8
 701 0051 05       		.byte	0x5
 702 0052 1F020000 		.4byte	.LASF6
 703 0056 02       		.uleb128 0x2
 704 0057 08       		.byte	0x8
 705 0058 07       		.byte	0x7
 706 0059 92010000 		.4byte	.LASF7
 707 005d 03       		.uleb128 0x3
 708 005e 04       		.byte	0x4
 709 005f 05       		.byte	0x5
 710 0060 696E7400 		.ascii	"int\000"
 711 0064 02       		.uleb128 0x2
 712 0065 04       		.byte	0x4
 713 0066 07       		.byte	0x7
 714 0067 85010000 		.4byte	.LASF8
ARM GAS  C:\Users\Snufkin\AppData\Local\Temp\ccV2IXte.s 			page 17


 715 006b 04       		.uleb128 0x4
 716 006c 51020000 		.4byte	.LASF9
 717 0070 02       		.byte	0x2
 718 0071 A1       		.byte	0xa1
 719 0072 2C000000 		.4byte	0x2c
 720 0076 04       		.uleb128 0x4
 721 0077 6A010000 		.4byte	.LASF10
 722 007b 02       		.byte	0x2
 723 007c A3       		.byte	0xa3
 724 007d 48000000 		.4byte	0x48
 725 0081 04       		.uleb128 0x4
 726 0082 65010000 		.4byte	.LASF11
 727 0086 02       		.byte	0x2
 728 0087 A4       		.byte	0xa4
 729 0088 25000000 		.4byte	0x25
 730 008c 04       		.uleb128 0x4
 731 008d 0F010000 		.4byte	.LASF12
 732 0091 02       		.byte	0x2
 733 0092 A5       		.byte	0xa5
 734 0093 33000000 		.4byte	0x33
 735 0097 04       		.uleb128 0x4
 736 0098 2C010000 		.4byte	.LASF13
 737 009c 02       		.byte	0x2
 738 009d A6       		.byte	0xa6
 739 009e 41000000 		.4byte	0x41
 740 00a2 02       		.uleb128 0x2
 741 00a3 04       		.byte	0x4
 742 00a4 04       		.byte	0x4
 743 00a5 71000000 		.4byte	.LASF14
 744 00a9 02       		.uleb128 0x2
 745 00aa 08       		.byte	0x8
 746 00ab 04       		.byte	0x4
 747 00ac 55010000 		.4byte	.LASF15
 748 00b0 02       		.uleb128 0x2
 749 00b1 01       		.byte	0x1
 750 00b2 08       		.byte	0x8
 751 00b3 2D020000 		.4byte	.LASF16
 752 00b7 05       		.uleb128 0x5
 753 00b8 00000000 		.4byte	.LASF17
 754 00bc 02       		.byte	0x2
 755 00bd 4D01     		.2byte	0x14d
 756 00bf C3000000 		.4byte	0xc3
 757 00c3 06       		.uleb128 0x6
 758 00c4 76000000 		.4byte	0x76
 759 00c8 02       		.uleb128 0x2
 760 00c9 04       		.byte	0x4
 761 00ca 07       		.byte	0x7
 762 00cb 16020000 		.4byte	.LASF18
 763 00cf 07       		.uleb128 0x7
 764 00d0 01       		.byte	0x1
 765 00d1 01       		.byte	0x1
 766 00d2 23       		.byte	0x23
 767 00d3 FC000000 		.4byte	0xfc
 768 00d7 08       		.uleb128 0x8
 769 00d8 5B000000 		.4byte	.LASF19
 770 00dc 00       		.sleb128 0
 771 00dd 08       		.uleb128 0x8
ARM GAS  C:\Users\Snufkin\AppData\Local\Temp\ccV2IXte.s 			page 18


 772 00de 80010000 		.4byte	.LASF20
 773 00e2 01       		.sleb128 1
 774 00e3 08       		.uleb128 0x8
 775 00e4 32020000 		.4byte	.LASF21
 776 00e8 02       		.sleb128 2
 777 00e9 08       		.uleb128 0x8
 778 00ea 76020000 		.4byte	.LASF22
 779 00ee 03       		.sleb128 3
 780 00ef 08       		.uleb128 0x8
 781 00f0 50010000 		.4byte	.LASF23
 782 00f4 04       		.sleb128 4
 783 00f5 08       		.uleb128 0x8
 784 00f6 F3000000 		.4byte	.LASF24
 785 00fa 05       		.sleb128 5
 786 00fb 00       		.byte	0
 787 00fc 04       		.uleb128 0x4
 788 00fd 1C000000 		.4byte	.LASF25
 789 0101 01       		.byte	0x1
 790 0102 23       		.byte	0x23
 791 0103 CF000000 		.4byte	0xcf
 792 0107 09       		.uleb128 0x9
 793 0108 41020000 		.4byte	.LASF26
 794 010c 01       		.byte	0x1
 795 010d 2A       		.byte	0x2a
 796 010e 00000000 		.4byte	.LFB33
 797 0112 7C000000 		.4byte	.LFE33-.LFB33
 798 0116 01       		.uleb128 0x1
 799 0117 9C       		.byte	0x9c
 800 0118 09       		.uleb128 0x9
 801 0119 06000000 		.4byte	.LASF27
 802 011d 01       		.byte	0x1
 803 011e 42       		.byte	0x42
 804 011f 00000000 		.4byte	.LFB34
 805 0123 18000000 		.4byte	.LFE34-.LFB34
 806 0127 01       		.uleb128 0x1
 807 0128 9C       		.byte	0x9c
 808 0129 09       		.uleb128 0x9
 809 012a F5010000 		.4byte	.LASF28
 810 012e 01       		.byte	0x1
 811 012f 48       		.byte	0x48
 812 0130 00000000 		.4byte	.LFB35
 813 0134 34000000 		.4byte	.LFE35-.LFB35
 814 0138 01       		.uleb128 0x1
 815 0139 9C       		.byte	0x9c
 816 013a 0A       		.uleb128 0xa
 817 013b 71010000 		.4byte	.LASF29
 818 013f 01       		.byte	0x1
 819 0140 4E       		.byte	0x4e
 820 0141 00000000 		.4byte	.LFB36
 821 0145 EC010000 		.4byte	.LFE36-.LFB36
 822 0149 01       		.uleb128 0x1
 823 014a 9C       		.byte	0x9c
 824 014b 68010000 		.4byte	0x168
 825 014f 0B       		.uleb128 0xb
 826 0150 96010000 		.4byte	.LBB2
 827 0154 30000000 		.4byte	.LBE2-.LBB2
 828 0158 0C       		.uleb128 0xc
ARM GAS  C:\Users\Snufkin\AppData\Local\Temp\ccV2IXte.s 			page 19


 829 0159 27010000 		.4byte	.LASF31
 830 015d 01       		.byte	0x1
 831 015e A3       		.byte	0xa3
 832 015f 6B000000 		.4byte	0x6b
 833 0163 02       		.uleb128 0x2
 834 0164 91       		.byte	0x91
 835 0165 77       		.sleb128 -9
 836 0166 00       		.byte	0
 837 0167 00       		.byte	0
 838 0168 0A       		.uleb128 0xa
 839 0169 38000000 		.4byte	.LASF30
 840 016d 01       		.byte	0x1
 841 016e AE       		.byte	0xae
 842 016f 00000000 		.4byte	.LFB37
 843 0173 9C000000 		.4byte	.LFE37-.LFB37
 844 0177 01       		.uleb128 0x1
 845 0178 9C       		.byte	0x9c
 846 0179 94010000 		.4byte	0x194
 847 017d 0B       		.uleb128 0xb
 848 017e 2A000000 		.4byte	.LBB3
 849 0182 46000000 		.4byte	.LBE3-.LBB3
 850 0186 0D       		.uleb128 0xd
 851 0187 6900     		.ascii	"i\000"
 852 0189 01       		.byte	0x1
 853 018a B9       		.byte	0xb9
 854 018b 6B000000 		.4byte	0x6b
 855 018f 02       		.uleb128 0x2
 856 0190 91       		.byte	0x91
 857 0191 77       		.sleb128 -9
 858 0192 00       		.byte	0
 859 0193 00       		.byte	0
 860 0194 0E       		.uleb128 0xe
 861 0195 06020000 		.4byte	.LASF32
 862 0199 03       		.byte	0x3
 863 019a 12       		.byte	0x12
 864 019b 6B000000 		.4byte	0x6b
 865 019f 05       		.uleb128 0x5
 866 01a0 03       		.byte	0x3
 867 01a1 00000000 		.4byte	receivedCommand
 868 01a5 0E       		.uleb128 0xe
 869 01a6 5C010000 		.4byte	.LASF33
 870 01aa 01       		.byte	0x1
 871 01ab 18       		.byte	0x18
 872 01ac 97000000 		.4byte	0x97
 873 01b0 05       		.uleb128 0x5
 874 01b1 03       		.byte	0x3
 875 01b2 00000000 		.4byte	tempTemp
 876 01b6 0E       		.uleb128 0xe
 877 01b7 69000000 		.4byte	.LASF34
 878 01bb 01       		.byte	0x1
 879 01bc 19       		.byte	0x19
 880 01bd 97000000 		.4byte	0x97
 881 01c1 05       		.uleb128 0x5
 882 01c2 03       		.byte	0x3
 883 01c3 00000000 		.4byte	tempHum
 884 01c7 0F       		.uleb128 0xf
 885 01c8 8C000000 		.4byte	0x8c
ARM GAS  C:\Users\Snufkin\AppData\Local\Temp\ccV2IXte.s 			page 20


 886 01cc D7010000 		.4byte	0x1d7
 887 01d0 10       		.uleb128 0x10
 888 01d1 C8000000 		.4byte	0xc8
 889 01d5 05       		.byte	0x5
 890 01d6 00       		.byte	0
 891 01d7 0E       		.uleb128 0xe
 892 01d8 10000000 		.4byte	.LASF35
 893 01dc 01       		.byte	0x1
 894 01dd 1A       		.byte	0x1a
 895 01de C7010000 		.4byte	0x1c7
 896 01e2 05       		.uleb128 0x5
 897 01e3 03       		.byte	0x3
 898 01e4 00000000 		.4byte	tempSoilHum
 899 01e8 0E       		.uleb128 0xe
 900 01e9 6C020000 		.4byte	.LASF36
 901 01ed 01       		.byte	0x1
 902 01ee 1B       		.byte	0x1b
 903 01ef 97000000 		.4byte	0x97
 904 01f3 05       		.uleb128 0x5
 905 01f4 03       		.byte	0x3
 906 01f5 00000000 		.4byte	tempLight
 907 01f9 0E       		.uleb128 0xe
 908 01fa 42010000 		.4byte	.LASF37
 909 01fe 01       		.byte	0x1
 910 01ff 24       		.byte	0x24
 911 0200 0A020000 		.4byte	0x20a
 912 0204 05       		.uleb128 0x5
 913 0205 03       		.byte	0x3
 914 0206 00000000 		.4byte	theState
 915 020a 06       		.uleb128 0x6
 916 020b FC000000 		.4byte	0xfc
 917 020f 0E       		.uleb128 0xe
 918 0210 32010000 		.4byte	.LASF38
 919 0214 01       		.byte	0x1
 920 0215 25       		.byte	0x25
 921 0216 20020000 		.4byte	0x220
 922 021a 05       		.uleb128 0x5
 923 021b 03       		.byte	0x3
 924 021c 00000000 		.4byte	irrigationIndex
 925 0220 06       		.uleb128 0x6
 926 0221 81000000 		.4byte	0x81
 927 0225 0E       		.uleb128 0xe
 928 0226 FE010000 		.4byte	.LASF39
 929 022a 01       		.byte	0x1
 930 022b 26       		.byte	0x26
 931 022c 6B000000 		.4byte	0x6b
 932 0230 05       		.uleb128 0x5
 933 0231 03       		.byte	0x3
 934 0232 00000000 		.4byte	uartInt
 935 0236 0E       		.uleb128 0xe
 936 0237 4B010000 		.4byte	.LASF40
 937 023b 01       		.byte	0x1
 938 023c 27       		.byte	0x27
 939 023d 6B000000 		.4byte	0x6b
 940 0241 05       		.uleb128 0x5
 941 0242 03       		.byte	0x3
 942 0243 00000000 		.4byte	buff
ARM GAS  C:\Users\Snufkin\AppData\Local\Temp\ccV2IXte.s 			page 21


 943 0247 0E       		.uleb128 0xe
 944 0248 60000000 		.4byte	.LASF41
 945 024c 01       		.byte	0x1
 946 024d 28       		.byte	0x28
 947 024e 6B000000 		.4byte	0x6b
 948 0252 05       		.uleb128 0x5
 949 0253 03       		.byte	0x3
 950 0254 00000000 		.4byte	timerInt
 951 0258 00       		.byte	0
 952              		.section	.debug_abbrev,"",%progbits
 953              	.Ldebug_abbrev0:
 954 0000 01       		.uleb128 0x1
 955 0001 11       		.uleb128 0x11
 956 0002 01       		.byte	0x1
 957 0003 25       		.uleb128 0x25
 958 0004 0E       		.uleb128 0xe
 959 0005 13       		.uleb128 0x13
 960 0006 0B       		.uleb128 0xb
 961 0007 03       		.uleb128 0x3
 962 0008 0E       		.uleb128 0xe
 963 0009 1B       		.uleb128 0x1b
 964 000a 0E       		.uleb128 0xe
 965 000b 55       		.uleb128 0x55
 966 000c 17       		.uleb128 0x17
 967 000d 11       		.uleb128 0x11
 968 000e 01       		.uleb128 0x1
 969 000f 10       		.uleb128 0x10
 970 0010 17       		.uleb128 0x17
 971 0011 00       		.byte	0
 972 0012 00       		.byte	0
 973 0013 02       		.uleb128 0x2
 974 0014 24       		.uleb128 0x24
 975 0015 00       		.byte	0
 976 0016 0B       		.uleb128 0xb
 977 0017 0B       		.uleb128 0xb
 978 0018 3E       		.uleb128 0x3e
 979 0019 0B       		.uleb128 0xb
 980 001a 03       		.uleb128 0x3
 981 001b 0E       		.uleb128 0xe
 982 001c 00       		.byte	0
 983 001d 00       		.byte	0
 984 001e 03       		.uleb128 0x3
 985 001f 24       		.uleb128 0x24
 986 0020 00       		.byte	0
 987 0021 0B       		.uleb128 0xb
 988 0022 0B       		.uleb128 0xb
 989 0023 3E       		.uleb128 0x3e
 990 0024 0B       		.uleb128 0xb
 991 0025 03       		.uleb128 0x3
 992 0026 08       		.uleb128 0x8
 993 0027 00       		.byte	0
 994 0028 00       		.byte	0
 995 0029 04       		.uleb128 0x4
 996 002a 16       		.uleb128 0x16
 997 002b 00       		.byte	0
 998 002c 03       		.uleb128 0x3
 999 002d 0E       		.uleb128 0xe
ARM GAS  C:\Users\Snufkin\AppData\Local\Temp\ccV2IXte.s 			page 22


 1000 002e 3A       		.uleb128 0x3a
 1001 002f 0B       		.uleb128 0xb
 1002 0030 3B       		.uleb128 0x3b
 1003 0031 0B       		.uleb128 0xb
 1004 0032 49       		.uleb128 0x49
 1005 0033 13       		.uleb128 0x13
 1006 0034 00       		.byte	0
 1007 0035 00       		.byte	0
 1008 0036 05       		.uleb128 0x5
 1009 0037 16       		.uleb128 0x16
 1010 0038 00       		.byte	0
 1011 0039 03       		.uleb128 0x3
 1012 003a 0E       		.uleb128 0xe
 1013 003b 3A       		.uleb128 0x3a
 1014 003c 0B       		.uleb128 0xb
 1015 003d 3B       		.uleb128 0x3b
 1016 003e 05       		.uleb128 0x5
 1017 003f 49       		.uleb128 0x49
 1018 0040 13       		.uleb128 0x13
 1019 0041 00       		.byte	0
 1020 0042 00       		.byte	0
 1021 0043 06       		.uleb128 0x6
 1022 0044 35       		.uleb128 0x35
 1023 0045 00       		.byte	0
 1024 0046 49       		.uleb128 0x49
 1025 0047 13       		.uleb128 0x13
 1026 0048 00       		.byte	0
 1027 0049 00       		.byte	0
 1028 004a 07       		.uleb128 0x7
 1029 004b 04       		.uleb128 0x4
 1030 004c 01       		.byte	0x1
 1031 004d 0B       		.uleb128 0xb
 1032 004e 0B       		.uleb128 0xb
 1033 004f 3A       		.uleb128 0x3a
 1034 0050 0B       		.uleb128 0xb
 1035 0051 3B       		.uleb128 0x3b
 1036 0052 0B       		.uleb128 0xb
 1037 0053 01       		.uleb128 0x1
 1038 0054 13       		.uleb128 0x13
 1039 0055 00       		.byte	0
 1040 0056 00       		.byte	0
 1041 0057 08       		.uleb128 0x8
 1042 0058 28       		.uleb128 0x28
 1043 0059 00       		.byte	0
 1044 005a 03       		.uleb128 0x3
 1045 005b 0E       		.uleb128 0xe
 1046 005c 1C       		.uleb128 0x1c
 1047 005d 0D       		.uleb128 0xd
 1048 005e 00       		.byte	0
 1049 005f 00       		.byte	0
 1050 0060 09       		.uleb128 0x9
 1051 0061 2E       		.uleb128 0x2e
 1052 0062 00       		.byte	0
 1053 0063 3F       		.uleb128 0x3f
 1054 0064 19       		.uleb128 0x19
 1055 0065 03       		.uleb128 0x3
 1056 0066 0E       		.uleb128 0xe
ARM GAS  C:\Users\Snufkin\AppData\Local\Temp\ccV2IXte.s 			page 23


 1057 0067 3A       		.uleb128 0x3a
 1058 0068 0B       		.uleb128 0xb
 1059 0069 3B       		.uleb128 0x3b
 1060 006a 0B       		.uleb128 0xb
 1061 006b 27       		.uleb128 0x27
 1062 006c 19       		.uleb128 0x19
 1063 006d 11       		.uleb128 0x11
 1064 006e 01       		.uleb128 0x1
 1065 006f 12       		.uleb128 0x12
 1066 0070 06       		.uleb128 0x6
 1067 0071 40       		.uleb128 0x40
 1068 0072 18       		.uleb128 0x18
 1069 0073 9642     		.uleb128 0x2116
 1070 0075 19       		.uleb128 0x19
 1071 0076 00       		.byte	0
 1072 0077 00       		.byte	0
 1073 0078 0A       		.uleb128 0xa
 1074 0079 2E       		.uleb128 0x2e
 1075 007a 01       		.byte	0x1
 1076 007b 3F       		.uleb128 0x3f
 1077 007c 19       		.uleb128 0x19
 1078 007d 03       		.uleb128 0x3
 1079 007e 0E       		.uleb128 0xe
 1080 007f 3A       		.uleb128 0x3a
 1081 0080 0B       		.uleb128 0xb
 1082 0081 3B       		.uleb128 0x3b
 1083 0082 0B       		.uleb128 0xb
 1084 0083 27       		.uleb128 0x27
 1085 0084 19       		.uleb128 0x19
 1086 0085 11       		.uleb128 0x11
 1087 0086 01       		.uleb128 0x1
 1088 0087 12       		.uleb128 0x12
 1089 0088 06       		.uleb128 0x6
 1090 0089 40       		.uleb128 0x40
 1091 008a 18       		.uleb128 0x18
 1092 008b 9642     		.uleb128 0x2116
 1093 008d 19       		.uleb128 0x19
 1094 008e 01       		.uleb128 0x1
 1095 008f 13       		.uleb128 0x13
 1096 0090 00       		.byte	0
 1097 0091 00       		.byte	0
 1098 0092 0B       		.uleb128 0xb
 1099 0093 0B       		.uleb128 0xb
 1100 0094 01       		.byte	0x1
 1101 0095 11       		.uleb128 0x11
 1102 0096 01       		.uleb128 0x1
 1103 0097 12       		.uleb128 0x12
 1104 0098 06       		.uleb128 0x6
 1105 0099 00       		.byte	0
 1106 009a 00       		.byte	0
 1107 009b 0C       		.uleb128 0xc
 1108 009c 34       		.uleb128 0x34
 1109 009d 00       		.byte	0
 1110 009e 03       		.uleb128 0x3
 1111 009f 0E       		.uleb128 0xe
 1112 00a0 3A       		.uleb128 0x3a
 1113 00a1 0B       		.uleb128 0xb
ARM GAS  C:\Users\Snufkin\AppData\Local\Temp\ccV2IXte.s 			page 24


 1114 00a2 3B       		.uleb128 0x3b
 1115 00a3 0B       		.uleb128 0xb
 1116 00a4 49       		.uleb128 0x49
 1117 00a5 13       		.uleb128 0x13
 1118 00a6 02       		.uleb128 0x2
 1119 00a7 18       		.uleb128 0x18
 1120 00a8 00       		.byte	0
 1121 00a9 00       		.byte	0
 1122 00aa 0D       		.uleb128 0xd
 1123 00ab 34       		.uleb128 0x34
 1124 00ac 00       		.byte	0
 1125 00ad 03       		.uleb128 0x3
 1126 00ae 08       		.uleb128 0x8
 1127 00af 3A       		.uleb128 0x3a
 1128 00b0 0B       		.uleb128 0xb
 1129 00b1 3B       		.uleb128 0x3b
 1130 00b2 0B       		.uleb128 0xb
 1131 00b3 49       		.uleb128 0x49
 1132 00b4 13       		.uleb128 0x13
 1133 00b5 02       		.uleb128 0x2
 1134 00b6 18       		.uleb128 0x18
 1135 00b7 00       		.byte	0
 1136 00b8 00       		.byte	0
 1137 00b9 0E       		.uleb128 0xe
 1138 00ba 34       		.uleb128 0x34
 1139 00bb 00       		.byte	0
 1140 00bc 03       		.uleb128 0x3
 1141 00bd 0E       		.uleb128 0xe
 1142 00be 3A       		.uleb128 0x3a
 1143 00bf 0B       		.uleb128 0xb
 1144 00c0 3B       		.uleb128 0x3b
 1145 00c1 0B       		.uleb128 0xb
 1146 00c2 49       		.uleb128 0x49
 1147 00c3 13       		.uleb128 0x13
 1148 00c4 3F       		.uleb128 0x3f
 1149 00c5 19       		.uleb128 0x19
 1150 00c6 02       		.uleb128 0x2
 1151 00c7 18       		.uleb128 0x18
 1152 00c8 00       		.byte	0
 1153 00c9 00       		.byte	0
 1154 00ca 0F       		.uleb128 0xf
 1155 00cb 01       		.uleb128 0x1
 1156 00cc 01       		.byte	0x1
 1157 00cd 49       		.uleb128 0x49
 1158 00ce 13       		.uleb128 0x13
 1159 00cf 01       		.uleb128 0x1
 1160 00d0 13       		.uleb128 0x13
 1161 00d1 00       		.byte	0
 1162 00d2 00       		.byte	0
 1163 00d3 10       		.uleb128 0x10
 1164 00d4 21       		.uleb128 0x21
 1165 00d5 00       		.byte	0
 1166 00d6 49       		.uleb128 0x49
 1167 00d7 13       		.uleb128 0x13
 1168 00d8 2F       		.uleb128 0x2f
 1169 00d9 0B       		.uleb128 0xb
 1170 00da 00       		.byte	0
ARM GAS  C:\Users\Snufkin\AppData\Local\Temp\ccV2IXte.s 			page 25


 1171 00db 00       		.byte	0
 1172 00dc 00       		.byte	0
 1173              		.section	.debug_aranges,"",%progbits
 1174 0000 3C000000 		.4byte	0x3c
 1175 0004 0200     		.2byte	0x2
 1176 0006 00000000 		.4byte	.Ldebug_info0
 1177 000a 04       		.byte	0x4
 1178 000b 00       		.byte	0
 1179 000c 0000     		.2byte	0
 1180 000e 0000     		.2byte	0
 1181 0010 00000000 		.4byte	.LFB33
 1182 0014 7C000000 		.4byte	.LFE33-.LFB33
 1183 0018 00000000 		.4byte	.LFB34
 1184 001c 18000000 		.4byte	.LFE34-.LFB34
 1185 0020 00000000 		.4byte	.LFB35
 1186 0024 34000000 		.4byte	.LFE35-.LFB35
 1187 0028 00000000 		.4byte	.LFB36
 1188 002c EC010000 		.4byte	.LFE36-.LFB36
 1189 0030 00000000 		.4byte	.LFB37
 1190 0034 9C000000 		.4byte	.LFE37-.LFB37
 1191 0038 00000000 		.4byte	0
 1192 003c 00000000 		.4byte	0
 1193              		.section	.debug_ranges,"",%progbits
 1194              	.Ldebug_ranges0:
 1195 0000 00000000 		.4byte	.LFB33
 1196 0004 7C000000 		.4byte	.LFE33
 1197 0008 00000000 		.4byte	.LFB34
 1198 000c 18000000 		.4byte	.LFE34
 1199 0010 00000000 		.4byte	.LFB35
 1200 0014 34000000 		.4byte	.LFE35
 1201 0018 00000000 		.4byte	.LFB36
 1202 001c EC010000 		.4byte	.LFE36
 1203 0020 00000000 		.4byte	.LFB37
 1204 0024 9C000000 		.4byte	.LFE37
 1205 0028 00000000 		.4byte	0
 1206 002c 00000000 		.4byte	0
 1207              		.section	.debug_line,"",%progbits
 1208              	.Ldebug_line0:
 1209 0000 2A010000 		.section	.debug_str,"MS",%progbits,1
 1209      02006400 
 1209      00000201 
 1209      FB0E0D00 
 1209      01010101 
 1210              	.LASF17:
 1211 0000 72656733 		.ascii	"reg32\000"
 1211      3200
 1212              	.LASF27:
 1213 0006 74696D65 		.ascii	"timer_ISR\000"
 1213      725F4953 
 1213      5200
 1214              	.LASF35:
 1215 0010 74656D70 		.ascii	"tempSoilHum\000"
 1215      536F696C 
 1215      48756D00 
 1216              	.LASF25:
 1217 001c 73746174 		.ascii	"state\000"
 1217      6500
ARM GAS  C:\Users\Snufkin\AppData\Local\Temp\ccV2IXte.s 			page 26


 1218              	.LASF43:
 1219 0022 2E5C5053 		.ascii	".\\PSoC_Master_Class.c\000"
 1219      6F435F4D 
 1219      61737465 
 1219      725F436C 
 1219      6173732E 
 1220              	.LASF30:
 1221 0038 74696D65 		.ascii	"timerIntHandler\000"
 1221      72496E74 
 1221      48616E64 
 1221      6C657200 
 1222              	.LASF3:
 1223 0048 73686F72 		.ascii	"short unsigned int\000"
 1223      7420756E 
 1223      7369676E 
 1223      65642069 
 1223      6E7400
 1224              	.LASF19:
 1225 005b 49444C45 		.ascii	"IDLE\000"
 1225      00
 1226              	.LASF41:
 1227 0060 74696D65 		.ascii	"timerInt\000"
 1227      72496E74 
 1227      00
 1228              	.LASF34:
 1229 0069 74656D70 		.ascii	"tempHum\000"
 1229      48756D00 
 1230              	.LASF14:
 1231 0071 666C6F61 		.ascii	"float\000"
 1231      7400
 1232              	.LASF42:
 1233 0077 474E5520 		.ascii	"GNU C 4.8.4 20140526 (release) [ARM/embedded-4_8-br"
 1233      4320342E 
 1233      382E3420 
 1233      32303134 
 1233      30353236 
 1234 00aa 616E6368 		.ascii	"anch revision 211358] -mcpu=cortex-m0 -mthumb -g -O"
 1234      20726576 
 1234      6973696F 
 1234      6E203231 
 1234      31333538 
 1235 00dd 30202D66 		.ascii	"0 -ffunction-sections\000"
 1235      66756E63 
 1235      74696F6E 
 1235      2D736563 
 1235      74696F6E 
 1236              	.LASF24:
 1237 00f3 52455350 		.ascii	"RESP_SOIL_HUM\000"
 1237      5F534F49 
 1237      4C5F4855 
 1237      4D00
 1238              	.LASF1:
 1239 0101 756E7369 		.ascii	"unsigned char\000"
 1239      676E6564 
 1239      20636861 
 1239      7200
 1240              	.LASF12:
ARM GAS  C:\Users\Snufkin\AppData\Local\Temp\ccV2IXte.s 			page 27


 1241 010f 696E7431 		.ascii	"int16\000"
 1241      3600
 1242              	.LASF5:
 1243 0115 6C6F6E67 		.ascii	"long unsigned int\000"
 1243      20756E73 
 1243      69676E65 
 1243      6420696E 
 1243      7400
 1244              	.LASF31:
 1245 0127 74656D70 		.ascii	"temp\000"
 1245      00
 1246              	.LASF13:
 1247 012c 696E7433 		.ascii	"int32\000"
 1247      3200
 1248              	.LASF38:
 1249 0132 69727269 		.ascii	"irrigationIndex\000"
 1249      67617469 
 1249      6F6E496E 
 1249      64657800 
 1250              	.LASF37:
 1251 0142 74686553 		.ascii	"theState\000"
 1251      74617465 
 1251      00
 1252              	.LASF40:
 1253 014b 62756666 		.ascii	"buff\000"
 1253      00
 1254              	.LASF23:
 1255 0150 41444A49 		.ascii	"ADJI\000"
 1255      00
 1256              	.LASF15:
 1257 0155 646F7562 		.ascii	"double\000"
 1257      6C6500
 1258              	.LASF33:
 1259 015c 74656D70 		.ascii	"tempTemp\000"
 1259      54656D70 
 1259      00
 1260              	.LASF11:
 1261 0165 696E7438 		.ascii	"int8\000"
 1261      00
 1262              	.LASF10:
 1263 016a 75696E74 		.ascii	"uint32\000"
 1263      333200
 1264              	.LASF29:
 1265 0171 75617274 		.ascii	"uartIntHandler\000"
 1265      496E7448 
 1265      616E646C 
 1265      657200
 1266              	.LASF20:
 1267 0180 41444A57 		.ascii	"ADJW\000"
 1267      00
 1268              	.LASF8:
 1269 0185 756E7369 		.ascii	"unsigned int\000"
 1269      676E6564 
 1269      20696E74 
 1269      00
 1270              	.LASF7:
 1271 0192 6C6F6E67 		.ascii	"long long unsigned int\000"
ARM GAS  C:\Users\Snufkin\AppData\Local\Temp\ccV2IXte.s 			page 28


 1271      206C6F6E 
 1271      6720756E 
 1271      7369676E 
 1271      65642069 
 1272              	.LASF44:
 1273 01a9 433A5C55 		.ascii	"C:\\Users\\Snufkin\\Documents\\GitHub\\PSoC_Master\\"
 1273      73657273 
 1273      5C536E75 
 1273      666B696E 
 1273      5C446F63 
 1274 01d7 50536F43 		.ascii	"PSoC_Master\\PSoC_Master.cydsn\000"
 1274      5F4D6173 
 1274      7465725C 
 1274      50536F43 
 1274      5F4D6173 
 1275              	.LASF28:
 1276 01f5 55415254 		.ascii	"UART_ISR\000"
 1276      5F495352 
 1276      00
 1277              	.LASF39:
 1278 01fe 75617274 		.ascii	"uartInt\000"
 1278      496E7400 
 1279              	.LASF32:
 1280 0206 72656365 		.ascii	"receivedCommand\000"
 1280      69766564 
 1280      436F6D6D 
 1280      616E6400 
 1281              	.LASF18:
 1282 0216 73697A65 		.ascii	"sizetype\000"
 1282      74797065 
 1282      00
 1283              	.LASF6:
 1284 021f 6C6F6E67 		.ascii	"long long int\000"
 1284      206C6F6E 
 1284      6720696E 
 1284      7400
 1285              	.LASF16:
 1286 022d 63686172 		.ascii	"char\000"
 1286      00
 1287              	.LASF21:
 1288 0232 41444A48 		.ascii	"ADJH\000"
 1288      00
 1289              	.LASF2:
 1290 0237 73686F72 		.ascii	"short int\000"
 1290      7420696E 
 1290      7400
 1291              	.LASF26:
 1292 0241 696E6974 		.ascii	"initPSoC_Master\000"
 1292      50536F43 
 1292      5F4D6173 
 1292      74657200 
 1293              	.LASF9:
 1294 0251 75696E74 		.ascii	"uint8\000"
 1294      3800
 1295              	.LASF4:
 1296 0257 6C6F6E67 		.ascii	"long int\000"
 1296      20696E74 
ARM GAS  C:\Users\Snufkin\AppData\Local\Temp\ccV2IXte.s 			page 29


 1296      00
 1297              	.LASF0:
 1298 0260 7369676E 		.ascii	"signed char\000"
 1298      65642063 
 1298      68617200 
 1299              	.LASF36:
 1300 026c 74656D70 		.ascii	"tempLight\000"
 1300      4C696768 
 1300      7400
 1301              	.LASF22:
 1302 0276 41444A56 		.ascii	"ADJV\000"
 1302      00
 1303              		.ident	"GCC: (GNU Tools for ARM Embedded Processors) 4.8.4 20140526 (release) [ARM/embedded-4_8-br
