ARM GAS  C:\Users\Lasse\AppData\Local\Temp\ccfHLAki.s 			page 1


   1              		.cpu cortex-m0
   2              		.fpu softvfp
   3              		.eabi_attribute 20, 1
   4              		.eabi_attribute 21, 1
   5              		.eabi_attribute 23, 3
   6              		.eabi_attribute 24, 1
   7              		.eabi_attribute 25, 1
   8              		.eabi_attribute 26, 1
   9              		.eabi_attribute 30, 6
  10              		.eabi_attribute 34, 0
  11              		.eabi_attribute 18, 4
  12              		.code	16
  13              		.file	"PSoC_Master_Class.c"
  14              		.text
  15              	.Ltext0:
  16              		.cfi_sections	.debug_frame
  17              		.comm	receivedCommand,1,1
  18              		.comm	tempTemp,4,4
  19              		.comm	tempHum,4,4
  20              		.comm	tempSoilHum,12,4
  21              		.comm	tempLight,4,4
  22              		.global	theState
  23              		.bss
  24              		.type	theState, %object
  25              		.size	theState, 1
  26              	theState:
  27 0000 00       		.space	1
  28              		.global	irrigationIndex
  29              		.type	irrigationIndex, %object
  30              		.size	irrigationIndex, 1
  31              	irrigationIndex:
  32 0001 00       		.space	1
  33              		.comm	blueLEDState,1,1
  34              		.comm	redLEDState,1,1
  35              		.section	.text.initPSoC_Master,"ax",%progbits
  36              		.align	2
  37              		.global	initPSoC_Master
  38              		.code	16
  39              		.thumb_func
  40              		.type	initPSoC_Master, %function
  41              	initPSoC_Master:
  42              	.LFB33:
  43              		.file 1 ".\\PSoC_Master_Class.c"
   1:.\PSoC_Master_Class.c **** /* ========================================
   2:.\PSoC_Master_Class.c ****  * 
   3:.\PSoC_Master_Class.c ****  * AutoGreen - PSoC_Master
   4:.\PSoC_Master_Class.c ****  * PSoC_Master_Class.c
   5:.\PSoC_Master_Class.c ****  * (Description)
   6:.\PSoC_Master_Class.c ****  * PRJ3 - GRP9
   7:.\PSoC_Master_Class.c ****  * 2015-04-15
   8:.\PSoC_Master_Class.c ****  *
   9:.\PSoC_Master_Class.c ****  * ========================================
  10:.\PSoC_Master_Class.c **** */
  11:.\PSoC_Master_Class.c **** 
  12:.\PSoC_Master_Class.c **** // Include files
  13:.\PSoC_Master_Class.c **** #include "PSoC_Master_Class.h"
  14:.\PSoC_Master_Class.c **** #include "DSP_Class.h"
ARM GAS  C:\Users\Lasse\AppData\Local\Temp\ccfHLAki.s 			page 2


  15:.\PSoC_Master_Class.c **** #include "I2C_Class.h"
  16:.\PSoC_Master_Class.c **** #include "UART_Class.h"
  17:.\PSoC_Master_Class.c **** 
  18:.\PSoC_Master_Class.c **** //Definitions
  19:.\PSoC_Master_Class.c **** #define CONVERT_TO_ASCII 48
  20:.\PSoC_Master_Class.c **** #define LED_ON 0
  21:.\PSoC_Master_Class.c **** #define LED_OFF 1
  22:.\PSoC_Master_Class.c **** 
  23:.\PSoC_Master_Class.c **** // Private data members
  24:.\PSoC_Master_Class.c **** int32 tempTemp;
  25:.\PSoC_Master_Class.c **** int32 tempHum;
  26:.\PSoC_Master_Class.c **** int16 tempSoilHum[6];
  27:.\PSoC_Master_Class.c **** int32 tempLight;
  28:.\PSoC_Master_Class.c **** 
  29:.\PSoC_Master_Class.c **** // Private prototypes
  30:.\PSoC_Master_Class.c **** CY_ISR_PROTO(timer_ISR);
  31:.\PSoC_Master_Class.c **** CY_ISR_PROTO(UART_ISR);
  32:.\PSoC_Master_Class.c **** 
  33:.\PSoC_Master_Class.c **** // Buffers / flags
  34:.\PSoC_Master_Class.c **** typedef enum {IDLE, ADJW, ADJH, ADJV, ADJI} state;
  35:.\PSoC_Master_Class.c **** volatile state theState = IDLE;
  36:.\PSoC_Master_Class.c **** volatile int8 irrigationIndex = 0;
  37:.\PSoC_Master_Class.c **** uint8 blueLEDState, redLEDState;
  38:.\PSoC_Master_Class.c **** 
  39:.\PSoC_Master_Class.c **** void initPSoC_Master(void){
  44              		.loc 1 39 0
  45              		.cfi_startproc
  46 0000 80B5     		push	{r7, lr}
  47              		.cfi_def_cfa_offset 8
  48              		.cfi_offset 7, -8
  49              		.cfi_offset 14, -4
  50 0002 00AF     		add	r7, sp, #0
  51              		.cfi_def_cfa_register 7
  40:.\PSoC_Master_Class.c **** 	tempTemp = 0;
  52              		.loc 1 40 0
  53 0004 184B     		ldr	r3, .L2
  54 0006 0022     		mov	r2, #0
  55 0008 1A60     		str	r2, [r3]
  41:.\PSoC_Master_Class.c ****     tempHum = 0;
  56              		.loc 1 41 0
  57 000a 184B     		ldr	r3, .L2+4
  58 000c 0022     		mov	r2, #0
  59 000e 1A60     		str	r2, [r3]
  42:.\PSoC_Master_Class.c ****     tempSoilHum[0] = 0;
  60              		.loc 1 42 0
  61 0010 174B     		ldr	r3, .L2+8
  62 0012 0022     		mov	r2, #0
  63 0014 1A80     		strh	r2, [r3]
  43:.\PSoC_Master_Class.c ****     tempSoilHum[1] = 0;
  64              		.loc 1 43 0
  65 0016 164B     		ldr	r3, .L2+8
  66 0018 0022     		mov	r2, #0
  67 001a 5A80     		strh	r2, [r3, #2]
  44:.\PSoC_Master_Class.c ****     tempSoilHum[2] = 0;
  68              		.loc 1 44 0
  69 001c 144B     		ldr	r3, .L2+8
  70 001e 0022     		mov	r2, #0
ARM GAS  C:\Users\Lasse\AppData\Local\Temp\ccfHLAki.s 			page 3


  71 0020 9A80     		strh	r2, [r3, #4]
  45:.\PSoC_Master_Class.c ****     tempSoilHum[3] = 0;
  72              		.loc 1 45 0
  73 0022 134B     		ldr	r3, .L2+8
  74 0024 0022     		mov	r2, #0
  75 0026 DA80     		strh	r2, [r3, #6]
  46:.\PSoC_Master_Class.c ****     tempSoilHum[4] = 0;
  76              		.loc 1 46 0
  77 0028 114B     		ldr	r3, .L2+8
  78 002a 0022     		mov	r2, #0
  79 002c 1A81     		strh	r2, [r3, #8]
  47:.\PSoC_Master_Class.c ****     tempSoilHum[5] = 0;
  80              		.loc 1 47 0
  81 002e 104B     		ldr	r3, .L2+8
  82 0030 0022     		mov	r2, #0
  83 0032 5A81     		strh	r2, [r3, #10]
  48:.\PSoC_Master_Class.c ****     tempLight = 0;
  84              		.loc 1 48 0
  85 0034 0F4B     		ldr	r3, .L2+12
  86 0036 0022     		mov	r2, #0
  87 0038 1A60     		str	r2, [r3]
  49:.\PSoC_Master_Class.c **** 	
  50:.\PSoC_Master_Class.c ****     // ISR
  51:.\PSoC_Master_Class.c ****     UART_ISR_StartEx(UART_ISR);     // Starts UART interrupt component
  88              		.loc 1 51 0
  89 003a 0F4B     		ldr	r3, .L2+16
  90 003c 181C     		mov	r0, r3
  91 003e FFF7FEFF 		bl	UART_ISR_StartEx
  52:.\PSoC_Master_Class.c ****     //timer_ISR_StartEx(timer_ISR);   // Starts timer interrupt component
  53:.\PSoC_Master_Class.c ****     
  54:.\PSoC_Master_Class.c ****     UART_Start();                   //  Starts UART component
  92              		.loc 1 54 0
  93 0042 FFF7FEFF 		bl	UART_Start
  55:.\PSoC_Master_Class.c ****     Timer_Start();                  // Starts timer component
  94              		.loc 1 55 0
  95 0046 FFF7FEFF 		bl	Timer_Start
  56:.\PSoC_Master_Class.c ****     
  57:.\PSoC_Master_Class.c ****     RedLED_Write(LED_OFF);              // Turn off red LED
  96              		.loc 1 57 0
  97 004a 0120     		mov	r0, #1
  98 004c FFF7FEFF 		bl	RedLED_Write
  58:.\PSoC_Master_Class.c ****     BlueLED_Write(LED_OFF);             // Turn off blue LED
  99              		.loc 1 58 0
 100 0050 0120     		mov	r0, #1
 101 0052 FFF7FEFF 		bl	BlueLED_Write
  59:.\PSoC_Master_Class.c ****     blueLEDState = LED_OFF;
 102              		.loc 1 59 0
 103 0056 094B     		ldr	r3, .L2+20
 104 0058 0122     		mov	r2, #1
 105 005a 1A70     		strb	r2, [r3]
  60:.\PSoC_Master_Class.c ****     redLEDState = LED_OFF;
 106              		.loc 1 60 0
 107 005c 084B     		ldr	r3, .L2+24
 108 005e 0122     		mov	r2, #1
 109 0060 1A70     		strb	r2, [r3]
  61:.\PSoC_Master_Class.c **** }
 110              		.loc 1 61 0
ARM GAS  C:\Users\Lasse\AppData\Local\Temp\ccfHLAki.s 			page 4


 111 0062 BD46     		mov	sp, r7
 112              		@ sp needed
 113 0064 80BD     		pop	{r7, pc}
 114              	.L3:
 115 0066 C046     		.align	2
 116              	.L2:
 117 0068 00000000 		.word	tempTemp
 118 006c 00000000 		.word	tempHum
 119 0070 00000000 		.word	tempSoilHum
 120 0074 00000000 		.word	tempLight
 121 0078 00000000 		.word	UART_ISR
 122 007c 00000000 		.word	blueLEDState
 123 0080 00000000 		.word	redLEDState
 124              		.cfi_endproc
 125              	.LFE33:
 126              		.size	initPSoC_Master, .-initPSoC_Master
 127              		.section	.text.timer_ISR,"ax",%progbits
 128              		.align	2
 129              		.global	timer_ISR
 130              		.code	16
 131              		.thumb_func
 132              		.type	timer_ISR, %function
 133              	timer_ISR:
 134              	.LFB34:
  62:.\PSoC_Master_Class.c **** 
  63:.\PSoC_Master_Class.c **** // Timer ISR
  64:.\PSoC_Master_Class.c **** CY_ISR(timer_ISR)
  65:.\PSoC_Master_Class.c **** {
 135              		.loc 1 65 0
 136              		.cfi_startproc
 137 0000 80B5     		push	{r7, lr}
 138              		.cfi_def_cfa_offset 8
 139              		.cfi_offset 7, -8
 140              		.cfi_offset 14, -4
 141 0002 82B0     		sub	sp, sp, #8
 142              		.cfi_def_cfa_offset 16
 143 0004 00AF     		add	r7, sp, #0
 144              		.cfi_def_cfa_register 7
  66:.\PSoC_Master_Class.c ****     RedLED_Write(LED_ON);           // Turn on red LED
 145              		.loc 1 66 0
 146 0006 0020     		mov	r0, #0
 147 0008 FFF7FEFF 		bl	RedLED_Write
  67:.\PSoC_Master_Class.c ****     
  68:.\PSoC_Master_Class.c ****     getTempAndHum(&tempTemp, &tempHum);
 148              		.loc 1 68 0
 149 000c 204A     		ldr	r2, .L7
 150 000e 214B     		ldr	r3, .L7+4
 151 0010 101C     		mov	r0, r2
 152 0012 191C     		mov	r1, r3
 153 0014 FFF7FEFF 		bl	getTempAndHum
  69:.\PSoC_Master_Class.c ****     inputTemp(&tempTemp);
 154              		.loc 1 69 0
 155 0018 1D4B     		ldr	r3, .L7
 156 001a 181C     		mov	r0, r3
 157 001c FFF7FEFF 		bl	inputTemp
  70:.\PSoC_Master_Class.c ****     inputHum(&tempHum);
 158              		.loc 1 70 0
ARM GAS  C:\Users\Lasse\AppData\Local\Temp\ccfHLAki.s 			page 5


 159 0020 1C4B     		ldr	r3, .L7+4
 160 0022 181C     		mov	r0, r3
 161 0024 FFF7FEFF 		bl	inputHum
 162              	.LBB2:
  71:.\PSoC_Master_Class.c ****     {
  72:.\PSoC_Master_Class.c ****         uint8 i;
  73:.\PSoC_Master_Class.c ****         for(i = 0; i<6 ; i++){
 163              		.loc 1 73 0
 164 0028 FB1D     		add	r3, r7, #7
 165 002a 0022     		mov	r2, #0
 166 002c 1A70     		strb	r2, [r3]
 167 002e 1AE0     		b	.L5
 168              	.L6:
  74:.\PSoC_Master_Class.c ****             getSoilHum(i, &tempSoilHum[i]);
 169              		.loc 1 74 0 discriminator 2
 170 0030 FB1D     		add	r3, r7, #7
 171 0032 1B78     		ldrb	r3, [r3]
 172 0034 5A00     		lsl	r2, r3, #1
 173 0036 184B     		ldr	r3, .L7+8
 174 0038 D318     		add	r3, r2, r3
 175 003a FA1D     		add	r2, r7, #7
 176 003c 1278     		ldrb	r2, [r2]
 177 003e 101C     		mov	r0, r2
 178 0040 191C     		mov	r1, r3
 179 0042 FFF7FEFF 		bl	getSoilHum
  75:.\PSoC_Master_Class.c ****             inputSoilHum(i,&tempSoilHum[i]);
 180              		.loc 1 75 0 discriminator 2
 181 0046 FB1D     		add	r3, r7, #7
 182 0048 1B78     		ldrb	r3, [r3]
 183 004a 5A00     		lsl	r2, r3, #1
 184 004c 124B     		ldr	r3, .L7+8
 185 004e D318     		add	r3, r2, r3
 186 0050 FA1D     		add	r2, r7, #7
 187 0052 1278     		ldrb	r2, [r2]
 188 0054 101C     		mov	r0, r2
 189 0056 191C     		mov	r1, r3
 190 0058 FFF7FEFF 		bl	inputSoilHum
  73:.\PSoC_Master_Class.c ****         for(i = 0; i<6 ; i++){
 191              		.loc 1 73 0 discriminator 2
 192 005c FB1D     		add	r3, r7, #7
 193 005e 1A78     		ldrb	r2, [r3]
 194 0060 FB1D     		add	r3, r7, #7
 195 0062 0132     		add	r2, r2, #1
 196 0064 1A70     		strb	r2, [r3]
 197              	.L5:
  73:.\PSoC_Master_Class.c ****         for(i = 0; i<6 ; i++){
 198              		.loc 1 73 0 is_stmt 0 discriminator 1
 199 0066 FB1D     		add	r3, r7, #7
 200 0068 1B78     		ldrb	r3, [r3]
 201 006a 052B     		cmp	r3, #5
 202 006c E0D9     		bls	.L6
 203              	.LBE2:
  76:.\PSoC_Master_Class.c ****         }
  77:.\PSoC_Master_Class.c ****     }
  78:.\PSoC_Master_Class.c ****     getLight(&tempLight);
 204              		.loc 1 78 0 is_stmt 1
 205 006e 0B4B     		ldr	r3, .L7+12
ARM GAS  C:\Users\Lasse\AppData\Local\Temp\ccfHLAki.s 			page 6


 206 0070 181C     		mov	r0, r3
 207 0072 FFF7FEFF 		bl	getLight
  79:.\PSoC_Master_Class.c ****     inputLight(&tempLight);
 208              		.loc 1 79 0
 209 0076 094B     		ldr	r3, .L7+12
 210 0078 181C     		mov	r0, r3
 211 007a FFF7FEFF 		bl	inputLight
  80:.\PSoC_Master_Class.c ****     
  81:.\PSoC_Master_Class.c ****     RedLED_Write(LED_OFF);              // Turn off red LED
 212              		.loc 1 81 0
 213 007e 0120     		mov	r0, #1
 214 0080 FFF7FEFF 		bl	RedLED_Write
  82:.\PSoC_Master_Class.c ****     Timer_ClearInterrupt(Timer_INTR_MASK_TC);   // Clear interrupt
 215              		.loc 1 82 0
 216 0084 0120     		mov	r0, #1
 217 0086 FFF7FEFF 		bl	Timer_ClearInterrupt
  83:.\PSoC_Master_Class.c **** }
 218              		.loc 1 83 0
 219 008a BD46     		mov	sp, r7
 220 008c 02B0     		add	sp, sp, #8
 221              		@ sp needed
 222 008e 80BD     		pop	{r7, pc}
 223              	.L8:
 224              		.align	2
 225              	.L7:
 226 0090 00000000 		.word	tempTemp
 227 0094 00000000 		.word	tempHum
 228 0098 00000000 		.word	tempSoilHum
 229 009c 00000000 		.word	tempLight
 230              		.cfi_endproc
 231              	.LFE34:
 232              		.size	timer_ISR, .-timer_ISR
 233              		.section	.text.UART_ISR,"ax",%progbits
 234              		.align	2
 235              		.global	UART_ISR
 236              		.code	16
 237              		.thumb_func
 238              		.type	UART_ISR, %function
 239              	UART_ISR:
 240              	.LFB35:
  84:.\PSoC_Master_Class.c **** 
  85:.\PSoC_Master_Class.c **** // UART ISR
  86:.\PSoC_Master_Class.c **** CY_ISR(UART_ISR){
 241              		.loc 1 86 0
 242              		.cfi_startproc
 243 0000 90B5     		push	{r4, r7, lr}
 244              		.cfi_def_cfa_offset 12
 245              		.cfi_offset 4, -12
 246              		.cfi_offset 7, -8
 247              		.cfi_offset 14, -4
 248 0002 83B0     		sub	sp, sp, #12
 249              		.cfi_def_cfa_offset 24
 250 0004 00AF     		add	r7, sp, #0
 251              		.cfi_def_cfa_register 7
  87:.\PSoC_Master_Class.c **** 
  88:.\PSoC_Master_Class.c ****     BlueLED_Write(LED_ON);       // Turn on blue LED
 252              		.loc 1 88 0
ARM GAS  C:\Users\Lasse\AppData\Local\Temp\ccfHLAki.s 			page 7


 253 0006 0020     		mov	r0, #0
 254 0008 FFF7FEFF 		bl	BlueLED_Write
  89:.\PSoC_Master_Class.c **** 
  90:.\PSoC_Master_Class.c ****     uint8 buff;
  91:.\PSoC_Master_Class.c ****     buff = dkRequest();
 255              		.loc 1 91 0
 256 000c FC1D     		add	r4, r7, #7
 257 000e FFF7FEFF 		bl	dkRequest
 258 0012 031C     		mov	r3, r0
 259 0014 2370     		strb	r3, [r4]
  92:.\PSoC_Master_Class.c ****     
  93:.\PSoC_Master_Class.c ****     if(theState == IDLE){
 260              		.loc 1 93 0
 261 0016 5E4B     		ldr	r3, .L33
 262 0018 1B78     		ldrb	r3, [r3]
 263 001a DBB2     		uxtb	r3, r3
 264 001c 002B     		cmp	r3, #0
 265 001e 3ED1     		bne	.L10
  94:.\PSoC_Master_Class.c ****         switch (buff){
 266              		.loc 1 94 0
 267 0020 FB1D     		add	r3, r7, #7
 268 0022 1B78     		ldrb	r3, [r3]
 269 0024 413B     		sub	r3, r3, #65
 270 0026 162B     		cmp	r3, #22
 271 0028 37D8     		bhi	.L32
 272 002a 9A00     		lsl	r2, r3, #2
 273 002c 594B     		ldr	r3, .L33+4
 274 002e D318     		add	r3, r2, r3
 275 0030 1B68     		ldr	r3, [r3]
 276 0032 9F46     		mov	pc, r3
 277              		.section	.rodata
 278              		.align	2
 279              	.L13:
 280 0000 50000000 		.word	.L12
 281 0004 9A000000 		.word	.L32
 282 0008 9A000000 		.word	.L32
 283 000c 9A000000 		.word	.L32
 284 0010 9A000000 		.word	.L32
 285 0014 92000000 		.word	.L14
 286 0018 9A000000 		.word	.L32
 287 001c 5E000000 		.word	.L15
 288 0020 9A000000 		.word	.L32
 289 0024 9A000000 		.word	.L32
 290 0028 70000000 		.word	.L16
 291 002c 42000000 		.word	.L17
 292 0030 9A000000 		.word	.L32
 293 0034 9A000000 		.word	.L32
 294 0038 9A000000 		.word	.L32
 295 003c 9A000000 		.word	.L32
 296 0040 9A000000 		.word	.L32
 297 0044 9A000000 		.word	.L32
 298 0048 9A000000 		.word	.L32
 299 004c 34000000 		.word	.L18
 300 0050 9A000000 		.word	.L32
 301 0054 8A000000 		.word	.L19
 302 0058 82000000 		.word	.L20
 303              		.section	.text.UART_ISR
ARM GAS  C:\Users\Lasse\AppData\Local\Temp\ccfHLAki.s 			page 8


 304              	.L18:
  95:.\PSoC_Master_Class.c ****             case 'T':{ //RequestTemp
  96:.\PSoC_Master_Class.c ****                 respondTemp(getTemp_DSP());		
 305              		.loc 1 96 0
 306 0034 FFF7FEFF 		bl	getTemp_DSP
 307 0038 031C     		mov	r3, r0
 308 003a 181C     		mov	r0, r3
 309 003c FFF7FEFF 		bl	respondTemp
  97:.\PSoC_Master_Class.c ****                 break;
 310              		.loc 1 97 0
 311 0040 2CE0     		b	.L21
 312              	.L17:
  98:.\PSoC_Master_Class.c ****             }
  99:.\PSoC_Master_Class.c ****             case 'L':{ //RequestLight
 100:.\PSoC_Master_Class.c ****                 respondLight(getLight_DSP());
 313              		.loc 1 100 0
 314 0042 FFF7FEFF 		bl	getLight_DSP
 315 0046 031C     		mov	r3, r0
 316 0048 181C     		mov	r0, r3
 317 004a FFF7FEFF 		bl	respondLight
 101:.\PSoC_Master_Class.c ****                 break;
 318              		.loc 1 101 0
 319 004e 25E0     		b	.L21
 320              	.L12:
 102:.\PSoC_Master_Class.c ****             }
 103:.\PSoC_Master_Class.c ****             case 'A':{ //RequestAirhum
 104:.\PSoC_Master_Class.c ****                 respondHum(getHum_DSP());
 321              		.loc 1 104 0
 322 0050 FFF7FEFF 		bl	getHum_DSP
 323 0054 031C     		mov	r3, r0
 324 0056 181C     		mov	r0, r3
 325 0058 FFF7FEFF 		bl	respondHum
 105:.\PSoC_Master_Class.c ****                 break;
 326              		.loc 1 105 0
 327 005c 1EE0     		b	.L21
 328              	.L15:
 106:.\PSoC_Master_Class.c ****             }        
 107:.\PSoC_Master_Class.c ****             case 'H':{ //TurnHeatOn
 108:.\PSoC_Master_Class.c ****                 // 0x7 is the maximum value.
 109:.\PSoC_Master_Class.c ****                 respondHeat(adjustHeat(0x7), 'H');
 329              		.loc 1 109 0
 330 005e 0720     		mov	r0, #7
 331 0060 FFF7FEFF 		bl	adjustHeat
 332 0064 031C     		mov	r3, r0
 333 0066 181C     		mov	r0, r3
 334 0068 4821     		mov	r1, #72
 335 006a FFF7FEFF 		bl	respondHeat
 110:.\PSoC_Master_Class.c ****                 break;
 336              		.loc 1 110 0
 337 006e 15E0     		b	.L21
 338              	.L16:
 111:.\PSoC_Master_Class.c ****             }
 112:.\PSoC_Master_Class.c ****             case 'K':{ //TurnHeatOff
 113:.\PSoC_Master_Class.c ****                 // 0x0 is the minimum value.
 114:.\PSoC_Master_Class.c ****                 respondHeat(adjustHeat(0x0), 'K');
 339              		.loc 1 114 0
 340 0070 0020     		mov	r0, #0
ARM GAS  C:\Users\Lasse\AppData\Local\Temp\ccfHLAki.s 			page 9


 341 0072 FFF7FEFF 		bl	adjustHeat
 342 0076 031C     		mov	r3, r0
 343 0078 181C     		mov	r0, r3
 344 007a 4B21     		mov	r1, #75
 345 007c FFF7FEFF 		bl	respondHeat
 115:.\PSoC_Master_Class.c ****                 break;
 346              		.loc 1 115 0
 347 0080 0CE0     		b	.L21
 348              	.L20:
 116:.\PSoC_Master_Class.c ****             }
 117:.\PSoC_Master_Class.c ****             case 'W':{ //AdjustWindow
 118:.\PSoC_Master_Class.c ****                 theState = ADJW;
 349              		.loc 1 118 0
 350 0082 434B     		ldr	r3, .L33
 351 0084 0122     		mov	r2, #1
 352 0086 1A70     		strb	r2, [r3]
 119:.\PSoC_Master_Class.c ****                 break;
 353              		.loc 1 119 0
 354 0088 08E0     		b	.L21
 355              	.L19:
 120:.\PSoC_Master_Class.c ****             }
 121:.\PSoC_Master_Class.c ****             case 'V':{ //Ventilation
 122:.\PSoC_Master_Class.c ****                 theState = ADJV;
 356              		.loc 1 122 0
 357 008a 414B     		ldr	r3, .L33
 358 008c 0322     		mov	r2, #3
 359 008e 1A70     		strb	r2, [r3]
 123:.\PSoC_Master_Class.c ****                 break;
 360              		.loc 1 123 0
 361 0090 04E0     		b	.L21
 362              	.L14:
 124:.\PSoC_Master_Class.c ****             }
 125:.\PSoC_Master_Class.c ****             case 'F':{ //Watering
 126:.\PSoC_Master_Class.c ****                 theState = ADJI;
 363              		.loc 1 126 0
 364 0092 3F4B     		ldr	r3, .L33
 365 0094 0422     		mov	r2, #4
 366 0096 1A70     		strb	r2, [r3]
 127:.\PSoC_Master_Class.c ****                 break;
 367              		.loc 1 127 0
 368 0098 00E0     		b	.L21
 369              	.L32:
 128:.\PSoC_Master_Class.c ****             }
 129:.\PSoC_Master_Class.c ****             /*case 'S':{ //
 130:.\PSoC_Master_Class.c ****                 respondSoilHum(); //TODO: Add stuff here
 131:.\PSoC_Master_Class.c ****                 break;
 132:.\PSoC_Master_Class.c ****             }*/
 133:.\PSoC_Master_Class.c ****             default:{
 134:.\PSoC_Master_Class.c ****                 // Do nothing - let the DevKit8000 timeout
 135:.\PSoC_Master_Class.c ****                 break;
 370              		.loc 1 135 0
 371 009a C046     		mov	r8, r8
 372              	.L21:
 373 009c 6DE0     		b	.L22
 374              	.L10:
 136:.\PSoC_Master_Class.c ****             }
 137:.\PSoC_Master_Class.c ****         }
ARM GAS  C:\Users\Lasse\AppData\Local\Temp\ccfHLAki.s 			page 10


 138:.\PSoC_Master_Class.c ****     }
 139:.\PSoC_Master_Class.c ****     else if(theState == ADJW){
 375              		.loc 1 139 0
 376 009e 3C4B     		ldr	r3, .L33
 377 00a0 1B78     		ldrb	r3, [r3]
 378 00a2 DBB2     		uxtb	r3, r3
 379 00a4 012B     		cmp	r3, #1
 380 00a6 16D1     		bne	.L23
 140:.\PSoC_Master_Class.c ****         if(buff-CONVERT_TO_ASCII == 1){
 381              		.loc 1 140 0
 382 00a8 FB1D     		add	r3, r7, #7
 383 00aa 1B78     		ldrb	r3, [r3]
 384 00ac 312B     		cmp	r3, #49
 385 00ae 07D1     		bne	.L24
 141:.\PSoC_Master_Class.c ****             respondWin(adjustWindow(0xFF));
 386              		.loc 1 141 0
 387 00b0 FF20     		mov	r0, #255
 388 00b2 FFF7FEFF 		bl	adjustWindow
 389 00b6 031C     		mov	r3, r0
 390 00b8 181C     		mov	r0, r3
 391 00ba FFF7FEFF 		bl	respondWin
 392 00be 06E0     		b	.L25
 393              	.L24:
 142:.\PSoC_Master_Class.c ****         }
 143:.\PSoC_Master_Class.c ****         else{
 144:.\PSoC_Master_Class.c ****             respondWin(adjustWindow(0x00));
 394              		.loc 1 144 0
 395 00c0 0020     		mov	r0, #0
 396 00c2 FFF7FEFF 		bl	adjustWindow
 397 00c6 031C     		mov	r3, r0
 398 00c8 181C     		mov	r0, r3
 399 00ca FFF7FEFF 		bl	respondWin
 400              	.L25:
 145:.\PSoC_Master_Class.c ****         }
 146:.\PSoC_Master_Class.c ****         theState = IDLE;
 401              		.loc 1 146 0 discriminator 1
 402 00ce 304B     		ldr	r3, .L33
 403 00d0 0022     		mov	r2, #0
 404 00d2 1A70     		strb	r2, [r3]
 405 00d4 51E0     		b	.L22
 406              	.L23:
 147:.\PSoC_Master_Class.c ****     }
 148:.\PSoC_Master_Class.c ****     else if(theState == ADJV){
 407              		.loc 1 148 0
 408 00d6 2E4B     		ldr	r3, .L33
 409 00d8 1B78     		ldrb	r3, [r3]
 410 00da DBB2     		uxtb	r3, r3
 411 00dc 032B     		cmp	r3, #3
 412 00de 16D1     		bne	.L26
 149:.\PSoC_Master_Class.c ****         if(buff-CONVERT_TO_ASCII == 1){
 413              		.loc 1 149 0
 414 00e0 FB1D     		add	r3, r7, #7
 415 00e2 1B78     		ldrb	r3, [r3]
 416 00e4 312B     		cmp	r3, #49
 417 00e6 07D1     		bne	.L27
 150:.\PSoC_Master_Class.c ****             respondVent(adjustVentilation(0xFF));
 418              		.loc 1 150 0
ARM GAS  C:\Users\Lasse\AppData\Local\Temp\ccfHLAki.s 			page 11


 419 00e8 FF20     		mov	r0, #255
 420 00ea FFF7FEFF 		bl	adjustVentilation
 421 00ee 031C     		mov	r3, r0
 422 00f0 181C     		mov	r0, r3
 423 00f2 FFF7FEFF 		bl	respondVent
 424 00f6 06E0     		b	.L28
 425              	.L27:
 151:.\PSoC_Master_Class.c ****         }
 152:.\PSoC_Master_Class.c ****         else{
 153:.\PSoC_Master_Class.c ****             respondVent(adjustVentilation(0x00));
 426              		.loc 1 153 0
 427 00f8 0020     		mov	r0, #0
 428 00fa FFF7FEFF 		bl	adjustVentilation
 429 00fe 031C     		mov	r3, r0
 430 0100 181C     		mov	r0, r3
 431 0102 FFF7FEFF 		bl	respondVent
 432              	.L28:
 154:.\PSoC_Master_Class.c ****         }
 155:.\PSoC_Master_Class.c ****         theState = IDLE;
 433              		.loc 1 155 0 discriminator 2
 434 0106 224B     		ldr	r3, .L33
 435 0108 0022     		mov	r2, #0
 436 010a 1A70     		strb	r2, [r3]
 437 010c 35E0     		b	.L22
 438              	.L26:
 156:.\PSoC_Master_Class.c ****     }
 157:.\PSoC_Master_Class.c ****     else if(theState == ADJI){
 439              		.loc 1 157 0
 440 010e 204B     		ldr	r3, .L33
 441 0110 1B78     		ldrb	r3, [r3]
 442 0112 DBB2     		uxtb	r3, r3
 443 0114 042B     		cmp	r3, #4
 444 0116 30D1     		bne	.L22
 158:.\PSoC_Master_Class.c ****         if (!irrigationIndex){
 445              		.loc 1 158 0
 446 0118 1F4B     		ldr	r3, .L33+8
 447 011a 1B78     		ldrb	r3, [r3]
 448 011c DBB2     		uxtb	r3, r3
 449 011e 002B     		cmp	r3, #0
 450 0120 04D1     		bne	.L29
 159:.\PSoC_Master_Class.c ****             irrigationIndex = buff;
 451              		.loc 1 159 0
 452 0122 FB1D     		add	r3, r7, #7
 453 0124 1A78     		ldrb	r2, [r3]
 454 0126 1C4B     		ldr	r3, .L33+8
 455 0128 1A70     		strb	r2, [r3]
 456 012a 26E0     		b	.L22
 457              	.L29:
 160:.\PSoC_Master_Class.c ****         }
 161:.\PSoC_Master_Class.c ****         else{
 162:.\PSoC_Master_Class.c ****             if (buff-CONVERT_TO_ASCII == 1){
 458              		.loc 1 162 0
 459 012c FB1D     		add	r3, r7, #7
 460 012e 1B78     		ldrb	r3, [r3]
 461 0130 312B     		cmp	r3, #49
 462 0132 0ED1     		bne	.L30
 163:.\PSoC_Master_Class.c ****                 respondIrri(adjustIrrigation(irrigationIndex-CONVERT_TO_ASCII-1, 0xFF));
ARM GAS  C:\Users\Lasse\AppData\Local\Temp\ccfHLAki.s 			page 12


 463              		.loc 1 163 0
 464 0134 184B     		ldr	r3, .L33+8
 465 0136 1B78     		ldrb	r3, [r3]
 466 0138 DBB2     		uxtb	r3, r3
 467 013a DBB2     		uxtb	r3, r3
 468 013c 313B     		sub	r3, r3, #49
 469 013e DBB2     		uxtb	r3, r3
 470 0140 181C     		mov	r0, r3
 471 0142 FF21     		mov	r1, #255
 472 0144 FFF7FEFF 		bl	adjustIrrigation
 473 0148 031C     		mov	r3, r0
 474 014a 181C     		mov	r0, r3
 475 014c FFF7FEFF 		bl	respondIrri
 476 0150 0DE0     		b	.L31
 477              	.L30:
 164:.\PSoC_Master_Class.c ****             }
 165:.\PSoC_Master_Class.c ****             else{
 166:.\PSoC_Master_Class.c ****                 respondIrri(adjustIrrigation(irrigationIndex-CONVERT_TO_ASCII-1, 0x00));
 478              		.loc 1 166 0
 479 0152 114B     		ldr	r3, .L33+8
 480 0154 1B78     		ldrb	r3, [r3]
 481 0156 DBB2     		uxtb	r3, r3
 482 0158 DBB2     		uxtb	r3, r3
 483 015a 313B     		sub	r3, r3, #49
 484 015c DBB2     		uxtb	r3, r3
 485 015e 181C     		mov	r0, r3
 486 0160 0021     		mov	r1, #0
 487 0162 FFF7FEFF 		bl	adjustIrrigation
 488 0166 031C     		mov	r3, r0
 489 0168 181C     		mov	r0, r3
 490 016a FFF7FEFF 		bl	respondIrri
 491              	.L31:
 167:.\PSoC_Master_Class.c ****             }
 168:.\PSoC_Master_Class.c ****             irrigationIndex = 0;
 492              		.loc 1 168 0
 493 016e 0A4B     		ldr	r3, .L33+8
 494 0170 0022     		mov	r2, #0
 495 0172 1A70     		strb	r2, [r3]
 169:.\PSoC_Master_Class.c ****             theState = IDLE;
 496              		.loc 1 169 0
 497 0174 064B     		ldr	r3, .L33
 498 0176 0022     		mov	r2, #0
 499 0178 1A70     		strb	r2, [r3]
 500              	.L22:
 170:.\PSoC_Master_Class.c ****         }
 171:.\PSoC_Master_Class.c ****     }
 172:.\PSoC_Master_Class.c ****     BlueLED_Write(LED_OFF);         // Turn off blue LED
 501              		.loc 1 172 0
 502 017a 0120     		mov	r0, #1
 503 017c FFF7FEFF 		bl	BlueLED_Write
 173:.\PSoC_Master_Class.c ****     UART_ClearRxInterruptSource(UART_GetRxInterruptSourceMasked());     // Clear interrupt flag
 504              		.loc 1 173 0
 505 0180 064B     		ldr	r3, .L33+12
 506 0182 074A     		ldr	r2, .L33+16
 507 0184 1268     		ldr	r2, [r2]
 508 0186 1A60     		str	r2, [r3]
 174:.\PSoC_Master_Class.c **** }
ARM GAS  C:\Users\Lasse\AppData\Local\Temp\ccfHLAki.s 			page 13


 509              		.loc 1 174 0
 510 0188 BD46     		mov	sp, r7
 511 018a 03B0     		add	sp, sp, #12
 512              		@ sp needed
 513 018c 90BD     		pop	{r4, r7, pc}
 514              	.L34:
 515 018e C046     		.align	2
 516              	.L33:
 517 0190 00000000 		.word	theState
 518 0194 00000000 		.word	.L13
 519 0198 00000000 		.word	irrigationIndex
 520 019c C00F0740 		.word	1074204608
 521 01a0 CC0F0740 		.word	1074204620
 522              		.cfi_endproc
 523              	.LFE35:
 524              		.size	UART_ISR, .-UART_ISR
 525              		.text
 526              	.Letext0:
 527              		.file 2 ".\\Generated_Source\\PSoC4/cytypes.h"
 528              		.file 3 ".\\UART_Class.h"