ARM GAS  C:\Users\Snufkin\AppData\Local\Temp\ccUyjzAN.s 			page 1


   1              		.cpu cortex-m0
   2              		.fpu softvfp
   3              		.eabi_attribute 20, 1
   4              		.eabi_attribute 21, 1
   5              		.eabi_attribute 23, 3
   6              		.eabi_attribute 24, 1
   7              		.eabi_attribute 25, 1
   8              		.eabi_attribute 26, 1
   9              		.eabi_attribute 30, 6
  10              		.eabi_attribute 34, 0
  11              		.eabi_attribute 18, 4
  12              		.code	16
  13              		.file	"PSoC_Master_Class.c"
  14              		.text
  15              	.Ltext0:
  16              		.cfi_sections	.debug_frame
  17              		.comm	receivedCommand,1,1
  18              		.comm	tempTemp,4,4
  19              		.comm	tempHum,4,4
  20              		.comm	tempSoilHum,12,4
  21              		.comm	tempLight,4,4
  22              		.global	newByte
  23              		.bss
  24              		.type	newByte, %object
  25              		.size	newByte, 1
  26              	newByte:
  27 0000 00       		.space	1
  28              		.comm	buff,1,1
  29              		.global	theState
  30              		.type	theState, %object
  31              		.size	theState, 1
  32              	theState:
  33 0001 00       		.space	1
  34              		.global	irrigationIndex
  35              		.type	irrigationIndex, %object
  36              		.size	irrigationIndex, 1
  37              	irrigationIndex:
  38 0002 00       		.space	1
  39              		.comm	blueLEDState,1,1
  40              		.comm	redLEDState,1,1
  41              		.section	.text.initPSoC_Master,"ax",%progbits
  42              		.align	2
  43              		.global	initPSoC_Master
  44              		.code	16
  45              		.thumb_func
  46              		.type	initPSoC_Master, %function
  47              	initPSoC_Master:
  48              	.LFB33:
  49              		.file 1 ".\\PSoC_Master_Class.c"
   1:.\PSoC_Master_Class.c **** /* ========================================
   2:.\PSoC_Master_Class.c ****  * 
   3:.\PSoC_Master_Class.c ****  * AutoGreen - PSoC_Master
   4:.\PSoC_Master_Class.c ****  * PSoC_Master_Class.c
   5:.\PSoC_Master_Class.c ****  * (Description)
   6:.\PSoC_Master_Class.c ****  * PRJ3 - GRP9
   7:.\PSoC_Master_Class.c ****  * 2015-04-15
   8:.\PSoC_Master_Class.c ****  *
ARM GAS  C:\Users\Snufkin\AppData\Local\Temp\ccUyjzAN.s 			page 2


   9:.\PSoC_Master_Class.c ****  * ========================================
  10:.\PSoC_Master_Class.c **** */
  11:.\PSoC_Master_Class.c **** 
  12:.\PSoC_Master_Class.c **** // Include files
  13:.\PSoC_Master_Class.c **** #include "PSoC_Master_Class.h"
  14:.\PSoC_Master_Class.c **** #include "DSP_Class.h"
  15:.\PSoC_Master_Class.c **** #include "I2C_Class.h"
  16:.\PSoC_Master_Class.c **** #include "UART_Class.h"
  17:.\PSoC_Master_Class.c **** 
  18:.\PSoC_Master_Class.c **** //Definitions
  19:.\PSoC_Master_Class.c **** #define CONVERT_TO_ASCII 48
  20:.\PSoC_Master_Class.c **** #define LED_ON 0
  21:.\PSoC_Master_Class.c **** #define LED_OFF 1
  22:.\PSoC_Master_Class.c **** 
  23:.\PSoC_Master_Class.c **** // Private data members
  24:.\PSoC_Master_Class.c **** int32 tempTemp;
  25:.\PSoC_Master_Class.c **** int32 tempHum;
  26:.\PSoC_Master_Class.c **** int16 tempSoilHum[6];
  27:.\PSoC_Master_Class.c **** int32 tempLight;
  28:.\PSoC_Master_Class.c **** uint8 newByte = 0;
  29:.\PSoC_Master_Class.c **** uint8 buff;
  30:.\PSoC_Master_Class.c **** 
  31:.\PSoC_Master_Class.c **** 
  32:.\PSoC_Master_Class.c **** // Private prototypes
  33:.\PSoC_Master_Class.c **** CY_ISR_PROTO(timer_ISR);
  34:.\PSoC_Master_Class.c **** CY_ISR_PROTO(UART_ISR);
  35:.\PSoC_Master_Class.c **** 
  36:.\PSoC_Master_Class.c **** // Buffers / flags
  37:.\PSoC_Master_Class.c **** typedef enum {IDLE, ADJW, ADJH, ADJV, ADJI} state;
  38:.\PSoC_Master_Class.c **** volatile state theState = IDLE;
  39:.\PSoC_Master_Class.c **** volatile int8 irrigationIndex = 0;
  40:.\PSoC_Master_Class.c **** uint8 blueLEDState, redLEDState;
  41:.\PSoC_Master_Class.c **** 
  42:.\PSoC_Master_Class.c **** void initPSoC_Master(void){
  50              		.loc 1 42 0
  51              		.cfi_startproc
  52 0000 80B5     		push	{r7, lr}
  53              		.cfi_def_cfa_offset 8
  54              		.cfi_offset 7, -8
  55              		.cfi_offset 14, -4
  56 0002 00AF     		add	r7, sp, #0
  57              		.cfi_def_cfa_register 7
  43:.\PSoC_Master_Class.c **** 	tempTemp = 0;
  58              		.loc 1 43 0
  59 0004 1A4B     		ldr	r3, .L2
  60 0006 0022     		mov	r2, #0
  61 0008 1A60     		str	r2, [r3]
  44:.\PSoC_Master_Class.c ****     tempHum = 0;
  62              		.loc 1 44 0
  63 000a 1A4B     		ldr	r3, .L2+4
  64 000c 0022     		mov	r2, #0
  65 000e 1A60     		str	r2, [r3]
  45:.\PSoC_Master_Class.c ****     tempSoilHum[0] = 0;
  66              		.loc 1 45 0
  67 0010 194B     		ldr	r3, .L2+8
  68 0012 0022     		mov	r2, #0
  69 0014 1A80     		strh	r2, [r3]
ARM GAS  C:\Users\Snufkin\AppData\Local\Temp\ccUyjzAN.s 			page 3


  46:.\PSoC_Master_Class.c ****     tempSoilHum[1] = 0;
  70              		.loc 1 46 0
  71 0016 184B     		ldr	r3, .L2+8
  72 0018 0022     		mov	r2, #0
  73 001a 5A80     		strh	r2, [r3, #2]
  47:.\PSoC_Master_Class.c ****     tempSoilHum[2] = 0;
  74              		.loc 1 47 0
  75 001c 164B     		ldr	r3, .L2+8
  76 001e 0022     		mov	r2, #0
  77 0020 9A80     		strh	r2, [r3, #4]
  48:.\PSoC_Master_Class.c ****     tempSoilHum[3] = 0;
  78              		.loc 1 48 0
  79 0022 154B     		ldr	r3, .L2+8
  80 0024 0022     		mov	r2, #0
  81 0026 DA80     		strh	r2, [r3, #6]
  49:.\PSoC_Master_Class.c ****     tempSoilHum[4] = 0;
  82              		.loc 1 49 0
  83 0028 134B     		ldr	r3, .L2+8
  84 002a 0022     		mov	r2, #0
  85 002c 1A81     		strh	r2, [r3, #8]
  50:.\PSoC_Master_Class.c ****     tempSoilHum[5] = 0;
  86              		.loc 1 50 0
  87 002e 124B     		ldr	r3, .L2+8
  88 0030 0022     		mov	r2, #0
  89 0032 5A81     		strh	r2, [r3, #10]
  51:.\PSoC_Master_Class.c ****     tempLight = 0;
  90              		.loc 1 51 0
  91 0034 114B     		ldr	r3, .L2+12
  92 0036 0022     		mov	r2, #0
  93 0038 1A60     		str	r2, [r3]
  52:.\PSoC_Master_Class.c **** 	
  53:.\PSoC_Master_Class.c ****     // ISR
  54:.\PSoC_Master_Class.c ****     UART_ISR_StartEx(UART_ISR);     // Starts UART interrupt component
  94              		.loc 1 54 0
  95 003a 114B     		ldr	r3, .L2+16
  96 003c 181C     		mov	r0, r3
  97 003e FFF7FEFF 		bl	UART_ISR_StartEx
  55:.\PSoC_Master_Class.c ****     timer_ISR_StartEx(timer_ISR);   // Starts timer interrupt component
  98              		.loc 1 55 0
  99 0042 104B     		ldr	r3, .L2+20
 100 0044 181C     		mov	r0, r3
 101 0046 FFF7FEFF 		bl	timer_ISR_StartEx
  56:.\PSoC_Master_Class.c ****     
  57:.\PSoC_Master_Class.c ****     UART_Start();                   //  Starts UART component
 102              		.loc 1 57 0
 103 004a FFF7FEFF 		bl	UART_Start
  58:.\PSoC_Master_Class.c ****     Timer_Start();                  // Starts timer component
 104              		.loc 1 58 0
 105 004e FFF7FEFF 		bl	Timer_Start
  59:.\PSoC_Master_Class.c ****     
  60:.\PSoC_Master_Class.c ****     RedLED_Write(LED_OFF);              // Turn off red LED
 106              		.loc 1 60 0
 107 0052 0120     		mov	r0, #1
 108 0054 FFF7FEFF 		bl	RedLED_Write
  61:.\PSoC_Master_Class.c ****     BlueLED_Write(LED_OFF);             // Turn off blue LED
 109              		.loc 1 61 0
 110 0058 0120     		mov	r0, #1
ARM GAS  C:\Users\Snufkin\AppData\Local\Temp\ccUyjzAN.s 			page 4


 111 005a FFF7FEFF 		bl	BlueLED_Write
  62:.\PSoC_Master_Class.c ****     blueLEDState = LED_OFF;
 112              		.loc 1 62 0
 113 005e 0A4B     		ldr	r3, .L2+24
 114 0060 0122     		mov	r2, #1
 115 0062 1A70     		strb	r2, [r3]
  63:.\PSoC_Master_Class.c ****     redLEDState = LED_OFF;
 116              		.loc 1 63 0
 117 0064 094B     		ldr	r3, .L2+28
 118 0066 0122     		mov	r2, #1
 119 0068 1A70     		strb	r2, [r3]
  64:.\PSoC_Master_Class.c **** }
 120              		.loc 1 64 0
 121 006a BD46     		mov	sp, r7
 122              		@ sp needed
 123 006c 80BD     		pop	{r7, pc}
 124              	.L3:
 125 006e C046     		.align	2
 126              	.L2:
 127 0070 00000000 		.word	tempTemp
 128 0074 00000000 		.word	tempHum
 129 0078 00000000 		.word	tempSoilHum
 130 007c 00000000 		.word	tempLight
 131 0080 00000000 		.word	UART_ISR
 132 0084 00000000 		.word	timer_ISR
 133 0088 00000000 		.word	blueLEDState
 134 008c 00000000 		.word	redLEDState
 135              		.cfi_endproc
 136              	.LFE33:
 137              		.size	initPSoC_Master, .-initPSoC_Master
 138              		.section	.text.timer_ISR,"ax",%progbits
 139              		.align	2
 140              		.global	timer_ISR
 141              		.code	16
 142              		.thumb_func
 143              		.type	timer_ISR, %function
 144              	timer_ISR:
 145              	.LFB34:
  65:.\PSoC_Master_Class.c **** 
  66:.\PSoC_Master_Class.c **** // Timer ISR
  67:.\PSoC_Master_Class.c **** CY_ISR(timer_ISR)
  68:.\PSoC_Master_Class.c **** {
 146              		.loc 1 68 0
 147              		.cfi_startproc
 148 0000 80B5     		push	{r7, lr}
 149              		.cfi_def_cfa_offset 8
 150              		.cfi_offset 7, -8
 151              		.cfi_offset 14, -4
 152 0002 82B0     		sub	sp, sp, #8
 153              		.cfi_def_cfa_offset 16
 154 0004 00AF     		add	r7, sp, #0
 155              		.cfi_def_cfa_register 7
  69:.\PSoC_Master_Class.c ****     RedLED_Write(LED_ON);           // Turn on red LED
 156              		.loc 1 69 0
 157 0006 0020     		mov	r0, #0
 158 0008 FFF7FEFF 		bl	RedLED_Write
  70:.\PSoC_Master_Class.c ****     
ARM GAS  C:\Users\Snufkin\AppData\Local\Temp\ccUyjzAN.s 			page 5


  71:.\PSoC_Master_Class.c ****     getTempAndHum(&tempTemp, &tempHum);
 159              		.loc 1 71 0
 160 000c 204A     		ldr	r2, .L7
 161 000e 214B     		ldr	r3, .L7+4
 162 0010 101C     		mov	r0, r2
 163 0012 191C     		mov	r1, r3
 164 0014 FFF7FEFF 		bl	getTempAndHum
  72:.\PSoC_Master_Class.c ****     inputTemp(&tempTemp);
 165              		.loc 1 72 0
 166 0018 1D4B     		ldr	r3, .L7
 167 001a 181C     		mov	r0, r3
 168 001c FFF7FEFF 		bl	inputTemp
  73:.\PSoC_Master_Class.c ****     inputHum(&tempHum);
 169              		.loc 1 73 0
 170 0020 1C4B     		ldr	r3, .L7+4
 171 0022 181C     		mov	r0, r3
 172 0024 FFF7FEFF 		bl	inputHum
 173              	.LBB2:
  74:.\PSoC_Master_Class.c ****     {
  75:.\PSoC_Master_Class.c ****         uint8 i;
  76:.\PSoC_Master_Class.c ****         for(i = 0; i<6 ; i++){
 174              		.loc 1 76 0
 175 0028 FB1D     		add	r3, r7, #7
 176 002a 0022     		mov	r2, #0
 177 002c 1A70     		strb	r2, [r3]
 178 002e 1AE0     		b	.L5
 179              	.L6:
  77:.\PSoC_Master_Class.c ****             getSoilHum(i, &tempSoilHum[i]);
 180              		.loc 1 77 0 discriminator 2
 181 0030 FB1D     		add	r3, r7, #7
 182 0032 1B78     		ldrb	r3, [r3]
 183 0034 5A00     		lsl	r2, r3, #1
 184 0036 184B     		ldr	r3, .L7+8
 185 0038 D318     		add	r3, r2, r3
 186 003a FA1D     		add	r2, r7, #7
 187 003c 1278     		ldrb	r2, [r2]
 188 003e 101C     		mov	r0, r2
 189 0040 191C     		mov	r1, r3
 190 0042 FFF7FEFF 		bl	getSoilHum
  78:.\PSoC_Master_Class.c ****             inputSoilHum(i,&tempSoilHum[i]);
 191              		.loc 1 78 0 discriminator 2
 192 0046 FB1D     		add	r3, r7, #7
 193 0048 1B78     		ldrb	r3, [r3]
 194 004a 5A00     		lsl	r2, r3, #1
 195 004c 124B     		ldr	r3, .L7+8
 196 004e D318     		add	r3, r2, r3
 197 0050 FA1D     		add	r2, r7, #7
 198 0052 1278     		ldrb	r2, [r2]
 199 0054 101C     		mov	r0, r2
 200 0056 191C     		mov	r1, r3
 201 0058 FFF7FEFF 		bl	inputSoilHum
  76:.\PSoC_Master_Class.c ****         for(i = 0; i<6 ; i++){
 202              		.loc 1 76 0 discriminator 2
 203 005c FB1D     		add	r3, r7, #7
 204 005e 1A78     		ldrb	r2, [r3]
 205 0060 FB1D     		add	r3, r7, #7
 206 0062 0132     		add	r2, r2, #1
ARM GAS  C:\Users\Snufkin\AppData\Local\Temp\ccUyjzAN.s 			page 6


 207 0064 1A70     		strb	r2, [r3]
 208              	.L5:
  76:.\PSoC_Master_Class.c ****         for(i = 0; i<6 ; i++){
 209              		.loc 1 76 0 is_stmt 0 discriminator 1
 210 0066 FB1D     		add	r3, r7, #7
 211 0068 1B78     		ldrb	r3, [r3]
 212 006a 052B     		cmp	r3, #5
 213 006c E0D9     		bls	.L6
 214              	.LBE2:
  79:.\PSoC_Master_Class.c ****         }
  80:.\PSoC_Master_Class.c ****     }
  81:.\PSoC_Master_Class.c ****     getLight(&tempLight);
 215              		.loc 1 81 0 is_stmt 1
 216 006e 0B4B     		ldr	r3, .L7+12
 217 0070 181C     		mov	r0, r3
 218 0072 FFF7FEFF 		bl	getLight
  82:.\PSoC_Master_Class.c ****     inputLight(&tempLight);
 219              		.loc 1 82 0
 220 0076 094B     		ldr	r3, .L7+12
 221 0078 181C     		mov	r0, r3
 222 007a FFF7FEFF 		bl	inputLight
  83:.\PSoC_Master_Class.c ****     
  84:.\PSoC_Master_Class.c ****     RedLED_Write(LED_OFF);              // Turn off red LED
 223              		.loc 1 84 0
 224 007e 0120     		mov	r0, #1
 225 0080 FFF7FEFF 		bl	RedLED_Write
  85:.\PSoC_Master_Class.c ****     Timer_ClearInterrupt(Timer_INTR_MASK_TC);   // Clear interrupt
 226              		.loc 1 85 0
 227 0084 0120     		mov	r0, #1
 228 0086 FFF7FEFF 		bl	Timer_ClearInterrupt
  86:.\PSoC_Master_Class.c **** }
 229              		.loc 1 86 0
 230 008a BD46     		mov	sp, r7
 231 008c 02B0     		add	sp, sp, #8
 232              		@ sp needed
 233 008e 80BD     		pop	{r7, pc}
 234              	.L8:
 235              		.align	2
 236              	.L7:
 237 0090 00000000 		.word	tempTemp
 238 0094 00000000 		.word	tempHum
 239 0098 00000000 		.word	tempSoilHum
 240 009c 00000000 		.word	tempLight
 241              		.cfi_endproc
 242              	.LFE34:
 243              		.size	timer_ISR, .-timer_ISR
 244              		.section	.text.UART_ISR,"ax",%progbits
 245              		.align	2
 246              		.global	UART_ISR
 247              		.code	16
 248              		.thumb_func
 249              		.type	UART_ISR, %function
 250              	UART_ISR:
 251              	.LFB35:
  87:.\PSoC_Master_Class.c **** 
  88:.\PSoC_Master_Class.c **** // UART ISR
  89:.\PSoC_Master_Class.c **** CY_ISR(UART_ISR){
ARM GAS  C:\Users\Snufkin\AppData\Local\Temp\ccUyjzAN.s 			page 7


 252              		.loc 1 89 0
 253              		.cfi_startproc
 254 0000 80B5     		push	{r7, lr}
 255              		.cfi_def_cfa_offset 8
 256              		.cfi_offset 7, -8
 257              		.cfi_offset 14, -4
 258 0002 00AF     		add	r7, sp, #0
 259              		.cfi_def_cfa_register 7
  90:.\PSoC_Master_Class.c ****     newByte = 1;
 260              		.loc 1 90 0
 261 0004 074B     		ldr	r3, .L10
 262 0006 0122     		mov	r2, #1
 263 0008 1A70     		strb	r2, [r3]
  91:.\PSoC_Master_Class.c ****     buff = dkRequest();
 264              		.loc 1 91 0
 265 000a FFF7FEFF 		bl	dkRequest
 266 000e 031C     		mov	r3, r0
 267 0010 1A1C     		mov	r2, r3
 268 0012 054B     		ldr	r3, .L10+4
 269 0014 1A70     		strb	r2, [r3]
  92:.\PSoC_Master_Class.c ****     UART_ClearRxInterruptSource(UART_GetRxInterruptSourceMasked());     // Clear interrupt flag
 270              		.loc 1 92 0
 271 0016 054B     		ldr	r3, .L10+8
 272 0018 054A     		ldr	r2, .L10+12
 273 001a 1268     		ldr	r2, [r2]
 274 001c 1A60     		str	r2, [r3]
  93:.\PSoC_Master_Class.c **** }
 275              		.loc 1 93 0
 276 001e BD46     		mov	sp, r7
 277              		@ sp needed
 278 0020 80BD     		pop	{r7, pc}
 279              	.L11:
 280 0022 C046     		.align	2
 281              	.L10:
 282 0024 00000000 		.word	newByte
 283 0028 00000000 		.word	buff
 284 002c C00F0740 		.word	1074204608
 285 0030 CC0F0740 		.word	1074204620
 286              		.cfi_endproc
 287              	.LFE35:
 288              		.size	UART_ISR, .-UART_ISR
 289              		.section	.text.intHandler,"ax",%progbits
 290              		.align	2
 291              		.global	intHandler
 292              		.code	16
 293              		.thumb_func
 294              		.type	intHandler, %function
 295              	intHandler:
 296              	.LFB36:
  94:.\PSoC_Master_Class.c **** 
  95:.\PSoC_Master_Class.c **** void intHandler(){
 297              		.loc 1 95 0
 298              		.cfi_startproc
 299 0000 80B5     		push	{r7, lr}
 300              		.cfi_def_cfa_offset 8
 301              		.cfi_offset 7, -8
 302              		.cfi_offset 14, -4
ARM GAS  C:\Users\Snufkin\AppData\Local\Temp\ccUyjzAN.s 			page 8


 303 0002 00AF     		add	r7, sp, #0
 304              		.cfi_def_cfa_register 7
  96:.\PSoC_Master_Class.c ****     if (newByte){
 305              		.loc 1 96 0
 306 0004 624B     		ldr	r3, .L37
 307 0006 1B78     		ldrb	r3, [r3]
 308 0008 002B     		cmp	r3, #0
 309 000a 00D1     		bne	.LCB219
 310 000c BEE0     		b	.L12	@long jump
 311              	.LCB219:
  97:.\PSoC_Master_Class.c ****         newByte = 0;
 312              		.loc 1 97 0
 313 000e 604B     		ldr	r3, .L37
 314 0010 0022     		mov	r2, #0
 315 0012 1A70     		strb	r2, [r3]
  98:.\PSoC_Master_Class.c ****         BlueLED_Write(LED_ON);       // Turn on blue LED
 316              		.loc 1 98 0
 317 0014 0020     		mov	r0, #0
 318 0016 FFF7FEFF 		bl	BlueLED_Write
  99:.\PSoC_Master_Class.c ****         
 100:.\PSoC_Master_Class.c ****         if(theState == IDLE){
 319              		.loc 1 100 0
 320 001a 5E4B     		ldr	r3, .L37+4
 321 001c 1B78     		ldrb	r3, [r3]
 322 001e DBB2     		uxtb	r3, r3
 323 0020 002B     		cmp	r3, #0
 324 0022 3ED1     		bne	.L14
 101:.\PSoC_Master_Class.c ****             switch (buff){
 325              		.loc 1 101 0
 326 0024 5C4B     		ldr	r3, .L37+8
 327 0026 1B78     		ldrb	r3, [r3]
 328 0028 413B     		sub	r3, r3, #65
 329 002a 162B     		cmp	r3, #22
 330 002c 37D8     		bhi	.L36
 331 002e 9A00     		lsl	r2, r3, #2
 332 0030 5A4B     		ldr	r3, .L37+12
 333 0032 D318     		add	r3, r2, r3
 334 0034 1B68     		ldr	r3, [r3]
 335 0036 9F46     		mov	pc, r3
 336              		.section	.rodata
 337              		.align	2
 338              	.L17:
 339 0000 54000000 		.word	.L16
 340 0004 9E000000 		.word	.L36
 341 0008 9E000000 		.word	.L36
 342 000c 9E000000 		.word	.L36
 343 0010 9E000000 		.word	.L36
 344 0014 96000000 		.word	.L18
 345 0018 9E000000 		.word	.L36
 346 001c 62000000 		.word	.L19
 347 0020 9E000000 		.word	.L36
 348 0024 9E000000 		.word	.L36
 349 0028 74000000 		.word	.L20
 350 002c 46000000 		.word	.L21
 351 0030 9E000000 		.word	.L36
 352 0034 9E000000 		.word	.L36
 353 0038 9E000000 		.word	.L36
ARM GAS  C:\Users\Snufkin\AppData\Local\Temp\ccUyjzAN.s 			page 9


 354 003c 9E000000 		.word	.L36
 355 0040 9E000000 		.word	.L36
 356 0044 9E000000 		.word	.L36
 357 0048 9E000000 		.word	.L36
 358 004c 38000000 		.word	.L22
 359 0050 9E000000 		.word	.L36
 360 0054 8E000000 		.word	.L23
 361 0058 86000000 		.word	.L24
 362              		.section	.text.intHandler
 363              	.L22:
 102:.\PSoC_Master_Class.c ****                 case 'T':{ //RequestTemp
 103:.\PSoC_Master_Class.c ****                     respondTemp(getTemp_DSP());		
 364              		.loc 1 103 0
 365 0038 FFF7FEFF 		bl	getTemp_DSP
 366 003c 031C     		mov	r3, r0
 367 003e 181C     		mov	r0, r3
 368 0040 FFF7FEFF 		bl	respondTemp
 104:.\PSoC_Master_Class.c ****                     break;
 369              		.loc 1 104 0
 370 0044 2CE0     		b	.L25
 371              	.L21:
 105:.\PSoC_Master_Class.c ****                 }
 106:.\PSoC_Master_Class.c ****                 case 'L':{ //RequestLight
 107:.\PSoC_Master_Class.c ****                     respondLight(getLight_DSP());
 372              		.loc 1 107 0
 373 0046 FFF7FEFF 		bl	getLight_DSP
 374 004a 031C     		mov	r3, r0
 375 004c 181C     		mov	r0, r3
 376 004e FFF7FEFF 		bl	respondLight
 108:.\PSoC_Master_Class.c ****                     break;
 377              		.loc 1 108 0
 378 0052 25E0     		b	.L25
 379              	.L16:
 109:.\PSoC_Master_Class.c ****                 }
 110:.\PSoC_Master_Class.c ****                 case 'A':{ //RequestAirhum
 111:.\PSoC_Master_Class.c ****                     respondHum(getHum_DSP());
 380              		.loc 1 111 0
 381 0054 FFF7FEFF 		bl	getHum_DSP
 382 0058 031C     		mov	r3, r0
 383 005a 181C     		mov	r0, r3
 384 005c FFF7FEFF 		bl	respondHum
 112:.\PSoC_Master_Class.c ****                     break;
 385              		.loc 1 112 0
 386 0060 1EE0     		b	.L25
 387              	.L19:
 113:.\PSoC_Master_Class.c ****                 }        
 114:.\PSoC_Master_Class.c ****                 case 'H':{ //TurnHeatOn
 115:.\PSoC_Master_Class.c ****                     // 0x7 is the maximum value.
 116:.\PSoC_Master_Class.c ****                     respondHeat(adjustHeat(0x7), 'H');
 388              		.loc 1 116 0
 389 0062 0720     		mov	r0, #7
 390 0064 FFF7FEFF 		bl	adjustHeat
 391 0068 031C     		mov	r3, r0
 392 006a 181C     		mov	r0, r3
 393 006c 4821     		mov	r1, #72
 394 006e FFF7FEFF 		bl	respondHeat
 117:.\PSoC_Master_Class.c ****                     break;
ARM GAS  C:\Users\Snufkin\AppData\Local\Temp\ccUyjzAN.s 			page 10


 395              		.loc 1 117 0
 396 0072 15E0     		b	.L25
 397              	.L20:
 118:.\PSoC_Master_Class.c ****                 }
 119:.\PSoC_Master_Class.c ****                 case 'K':{ //TurnHeatOff
 120:.\PSoC_Master_Class.c ****                     // 0x0 is the minimum value.
 121:.\PSoC_Master_Class.c ****                     respondHeat(adjustHeat(0x0), 'K');
 398              		.loc 1 121 0
 399 0074 0020     		mov	r0, #0
 400 0076 FFF7FEFF 		bl	adjustHeat
 401 007a 031C     		mov	r3, r0
 402 007c 181C     		mov	r0, r3
 403 007e 4B21     		mov	r1, #75
 404 0080 FFF7FEFF 		bl	respondHeat
 122:.\PSoC_Master_Class.c ****                     break;
 405              		.loc 1 122 0
 406 0084 0CE0     		b	.L25
 407              	.L24:
 123:.\PSoC_Master_Class.c ****                 }
 124:.\PSoC_Master_Class.c ****                 case 'W':{ //AdjustWindow
 125:.\PSoC_Master_Class.c ****                     theState = ADJW;
 408              		.loc 1 125 0
 409 0086 434B     		ldr	r3, .L37+4
 410 0088 0122     		mov	r2, #1
 411 008a 1A70     		strb	r2, [r3]
 126:.\PSoC_Master_Class.c ****                     break;
 412              		.loc 1 126 0
 413 008c 08E0     		b	.L25
 414              	.L23:
 127:.\PSoC_Master_Class.c ****                 }
 128:.\PSoC_Master_Class.c ****                 case 'V':{ //Ventilation
 129:.\PSoC_Master_Class.c ****                     theState = ADJV;
 415              		.loc 1 129 0
 416 008e 414B     		ldr	r3, .L37+4
 417 0090 0322     		mov	r2, #3
 418 0092 1A70     		strb	r2, [r3]
 130:.\PSoC_Master_Class.c ****                     break;
 419              		.loc 1 130 0
 420 0094 04E0     		b	.L25
 421              	.L18:
 131:.\PSoC_Master_Class.c ****                 }
 132:.\PSoC_Master_Class.c ****                 case 'F':{ //Watering
 133:.\PSoC_Master_Class.c ****                     theState = ADJI;
 422              		.loc 1 133 0
 423 0096 3F4B     		ldr	r3, .L37+4
 424 0098 0422     		mov	r2, #4
 425 009a 1A70     		strb	r2, [r3]
 134:.\PSoC_Master_Class.c ****                     break;
 426              		.loc 1 134 0
 427 009c 00E0     		b	.L25
 428              	.L36:
 135:.\PSoC_Master_Class.c ****                 }
 136:.\PSoC_Master_Class.c ****                 /*case 'S':{ //
 137:.\PSoC_Master_Class.c ****                     respondSoilHum(); //TODO: Add stuff here
 138:.\PSoC_Master_Class.c ****                     break;
 139:.\PSoC_Master_Class.c ****                 }*/
 140:.\PSoC_Master_Class.c ****                 default:{
ARM GAS  C:\Users\Snufkin\AppData\Local\Temp\ccUyjzAN.s 			page 11


 141:.\PSoC_Master_Class.c ****                     // Do nothing - let the DevKit8000 timeout
 142:.\PSoC_Master_Class.c ****                     break;
 429              		.loc 1 142 0
 430 009e C046     		mov	r8, r8
 431              	.L25:
 432 00a0 6EE0     		b	.L26
 433              	.L14:
 143:.\PSoC_Master_Class.c ****                 }
 144:.\PSoC_Master_Class.c ****             }
 145:.\PSoC_Master_Class.c ****         }
 146:.\PSoC_Master_Class.c ****         else if(theState == ADJW){
 434              		.loc 1 146 0
 435 00a2 3C4B     		ldr	r3, .L37+4
 436 00a4 1B78     		ldrb	r3, [r3]
 437 00a6 DBB2     		uxtb	r3, r3
 438 00a8 012B     		cmp	r3, #1
 439 00aa 16D1     		bne	.L27
 147:.\PSoC_Master_Class.c ****             if(buff-CONVERT_TO_ASCII == 1){
 440              		.loc 1 147 0
 441 00ac 3A4B     		ldr	r3, .L37+8
 442 00ae 1B78     		ldrb	r3, [r3]
 443 00b0 312B     		cmp	r3, #49
 444 00b2 07D1     		bne	.L28
 148:.\PSoC_Master_Class.c ****                 respondWin(adjustWindow(0xFF));
 445              		.loc 1 148 0
 446 00b4 FF20     		mov	r0, #255
 447 00b6 FFF7FEFF 		bl	adjustWindow
 448 00ba 031C     		mov	r3, r0
 449 00bc 181C     		mov	r0, r3
 450 00be FFF7FEFF 		bl	respondWin
 451 00c2 06E0     		b	.L29
 452              	.L28:
 149:.\PSoC_Master_Class.c ****             }
 150:.\PSoC_Master_Class.c ****             else{
 151:.\PSoC_Master_Class.c ****                 respondWin(adjustWindow(0x00));
 453              		.loc 1 151 0
 454 00c4 0020     		mov	r0, #0
 455 00c6 FFF7FEFF 		bl	adjustWindow
 456 00ca 031C     		mov	r3, r0
 457 00cc 181C     		mov	r0, r3
 458 00ce FFF7FEFF 		bl	respondWin
 459              	.L29:
 152:.\PSoC_Master_Class.c ****             }
 153:.\PSoC_Master_Class.c ****             theState = IDLE;
 460              		.loc 1 153 0 discriminator 1
 461 00d2 304B     		ldr	r3, .L37+4
 462 00d4 0022     		mov	r2, #0
 463 00d6 1A70     		strb	r2, [r3]
 464 00d8 52E0     		b	.L26
 465              	.L27:
 154:.\PSoC_Master_Class.c ****         }
 155:.\PSoC_Master_Class.c ****         else if(theState == ADJV){
 466              		.loc 1 155 0
 467 00da 2E4B     		ldr	r3, .L37+4
 468 00dc 1B78     		ldrb	r3, [r3]
 469 00de DBB2     		uxtb	r3, r3
 470 00e0 032B     		cmp	r3, #3
ARM GAS  C:\Users\Snufkin\AppData\Local\Temp\ccUyjzAN.s 			page 12


 471 00e2 16D1     		bne	.L30
 156:.\PSoC_Master_Class.c ****             if(buff-CONVERT_TO_ASCII == 1){
 472              		.loc 1 156 0
 473 00e4 2C4B     		ldr	r3, .L37+8
 474 00e6 1B78     		ldrb	r3, [r3]
 475 00e8 312B     		cmp	r3, #49
 476 00ea 07D1     		bne	.L31
 157:.\PSoC_Master_Class.c ****                 respondVent(adjustVentilation(0xFF));
 477              		.loc 1 157 0
 478 00ec FF20     		mov	r0, #255
 479 00ee FFF7FEFF 		bl	adjustVentilation
 480 00f2 031C     		mov	r3, r0
 481 00f4 181C     		mov	r0, r3
 482 00f6 FFF7FEFF 		bl	respondVent
 483 00fa 06E0     		b	.L32
 484              	.L31:
 158:.\PSoC_Master_Class.c ****             }
 159:.\PSoC_Master_Class.c ****             else{
 160:.\PSoC_Master_Class.c ****                 respondVent(adjustVentilation(0x00));
 485              		.loc 1 160 0
 486 00fc 0020     		mov	r0, #0
 487 00fe FFF7FEFF 		bl	adjustVentilation
 488 0102 031C     		mov	r3, r0
 489 0104 181C     		mov	r0, r3
 490 0106 FFF7FEFF 		bl	respondVent
 491              	.L32:
 161:.\PSoC_Master_Class.c ****             }
 162:.\PSoC_Master_Class.c ****             theState = IDLE;
 492              		.loc 1 162 0 discriminator 2
 493 010a 224B     		ldr	r3, .L37+4
 494 010c 0022     		mov	r2, #0
 495 010e 1A70     		strb	r2, [r3]
 496 0110 36E0     		b	.L26
 497              	.L30:
 163:.\PSoC_Master_Class.c ****         }
 164:.\PSoC_Master_Class.c ****         else if(theState == ADJI){
 498              		.loc 1 164 0
 499 0112 204B     		ldr	r3, .L37+4
 500 0114 1B78     		ldrb	r3, [r3]
 501 0116 DBB2     		uxtb	r3, r3
 502 0118 042B     		cmp	r3, #4
 503 011a 31D1     		bne	.L26
 165:.\PSoC_Master_Class.c ****             if (!irrigationIndex){
 504              		.loc 1 165 0
 505 011c 204B     		ldr	r3, .L37+16
 506 011e 1B78     		ldrb	r3, [r3]
 507 0120 DBB2     		uxtb	r3, r3
 508 0122 002B     		cmp	r3, #0
 509 0124 05D1     		bne	.L33
 166:.\PSoC_Master_Class.c ****                 irrigationIndex = buff;
 510              		.loc 1 166 0
 511 0126 1C4B     		ldr	r3, .L37+8
 512 0128 1B78     		ldrb	r3, [r3]
 513 012a DAB2     		uxtb	r2, r3
 514 012c 1C4B     		ldr	r3, .L37+16
 515 012e 1A70     		strb	r2, [r3]
 516 0130 26E0     		b	.L26
ARM GAS  C:\Users\Snufkin\AppData\Local\Temp\ccUyjzAN.s 			page 13


 517              	.L33:
 167:.\PSoC_Master_Class.c ****             }
 168:.\PSoC_Master_Class.c ****             else{
 169:.\PSoC_Master_Class.c ****                 if (buff-CONVERT_TO_ASCII == 1){
 518              		.loc 1 169 0
 519 0132 194B     		ldr	r3, .L37+8
 520 0134 1B78     		ldrb	r3, [r3]
 521 0136 312B     		cmp	r3, #49
 522 0138 0ED1     		bne	.L34
 170:.\PSoC_Master_Class.c ****                     respondIrri(adjustIrrigation(irrigationIndex-CONVERT_TO_ASCII-1, 0xFF));
 523              		.loc 1 170 0
 524 013a 194B     		ldr	r3, .L37+16
 525 013c 1B78     		ldrb	r3, [r3]
 526 013e DBB2     		uxtb	r3, r3
 527 0140 DBB2     		uxtb	r3, r3
 528 0142 313B     		sub	r3, r3, #49
 529 0144 DBB2     		uxtb	r3, r3
 530 0146 181C     		mov	r0, r3
 531 0148 FF21     		mov	r1, #255
 532 014a FFF7FEFF 		bl	adjustIrrigation
 533 014e 031C     		mov	r3, r0
 534 0150 181C     		mov	r0, r3
 535 0152 FFF7FEFF 		bl	respondIrri
 536 0156 0DE0     		b	.L35
 537              	.L34:
 171:.\PSoC_Master_Class.c ****                 }
 172:.\PSoC_Master_Class.c ****                 else{
 173:.\PSoC_Master_Class.c ****                     respondIrri(adjustIrrigation(irrigationIndex-CONVERT_TO_ASCII-1, 0x00));
 538              		.loc 1 173 0
 539 0158 114B     		ldr	r3, .L37+16
 540 015a 1B78     		ldrb	r3, [r3]
 541 015c DBB2     		uxtb	r3, r3
 542 015e DBB2     		uxtb	r3, r3
 543 0160 313B     		sub	r3, r3, #49
 544 0162 DBB2     		uxtb	r3, r3
 545 0164 181C     		mov	r0, r3
 546 0166 0021     		mov	r1, #0
 547 0168 FFF7FEFF 		bl	adjustIrrigation
 548 016c 031C     		mov	r3, r0
 549 016e 181C     		mov	r0, r3
 550 0170 FFF7FEFF 		bl	respondIrri
 551              	.L35:
 174:.\PSoC_Master_Class.c ****                 }
 175:.\PSoC_Master_Class.c ****                 irrigationIndex = 0;
 552              		.loc 1 175 0
 553 0174 0A4B     		ldr	r3, .L37+16
 554 0176 0022     		mov	r2, #0
 555 0178 1A70     		strb	r2, [r3]
 176:.\PSoC_Master_Class.c ****                 theState = IDLE;
 556              		.loc 1 176 0
 557 017a 064B     		ldr	r3, .L37+4
 558 017c 0022     		mov	r2, #0
 559 017e 1A70     		strb	r2, [r3]
 560              	.L26:
 177:.\PSoC_Master_Class.c ****             }
 178:.\PSoC_Master_Class.c ****         }
 179:.\PSoC_Master_Class.c ****         buff = 0;
ARM GAS  C:\Users\Snufkin\AppData\Local\Temp\ccUyjzAN.s 			page 14


 561              		.loc 1 179 0
 562 0180 054B     		ldr	r3, .L37+8
 563 0182 0022     		mov	r2, #0
 564 0184 1A70     		strb	r2, [r3]
 180:.\PSoC_Master_Class.c ****         BlueLED_Write(LED_OFF);         // Turn off blue LED
 565              		.loc 1 180 0
 566 0186 0120     		mov	r0, #1
 567 0188 FFF7FEFF 		bl	BlueLED_Write
 568              	.L12:
 181:.\PSoC_Master_Class.c ****     }
 182:.\PSoC_Master_Class.c **** }
 569              		.loc 1 182 0
 570 018c BD46     		mov	sp, r7
 571              		@ sp needed
 572 018e 80BD     		pop	{r7, pc}
 573              	.L38:
 574              		.align	2
 575              	.L37:
 576 0190 00000000 		.word	newByte
 577 0194 00000000 		.word	theState
 578 0198 00000000 		.word	buff
 579 019c 00000000 		.word	.L17
 580 01a0 00000000 		.word	irrigationIndex
 581              		.cfi_endproc
 582              	.LFE36:
 583              		.size	intHandler, .-intHandler
 584              		.text
 585              	.Letext0:
 586              		.file 2 ".\\Generated_Source\\PSoC4/cytypes.h"
 587              		.file 3 ".\\UART_Class.h"
 588              		.section	.debug_info,"",%progbits
 589              	.Ldebug_info0:
 590 0000 32020000 		.4byte	0x232
 591 0004 0400     		.2byte	0x4
 592 0006 00000000 		.4byte	.Ldebug_abbrev0
 593 000a 04       		.byte	0x4
 594 000b 01       		.uleb128 0x1
 595 000c 6B000000 		.4byte	.LASF38
 596 0010 01       		.byte	0x1
 597 0011 2F000000 		.4byte	.LASF39
 598 0015 85010000 		.4byte	.LASF40
 599 0019 00000000 		.4byte	.Ldebug_ranges0+0
 600 001d 00000000 		.4byte	0
 601 0021 00000000 		.4byte	.Ldebug_line0
 602 0025 02       		.uleb128 0x2
 603 0026 01       		.byte	0x1
 604 0027 06       		.byte	0x6
 605 0028 4E020000 		.4byte	.LASF0
 606 002c 02       		.uleb128 0x2
 607 002d 01       		.byte	0x1
 608 002e 08       		.byte	0x8
 609 002f 53010000 		.4byte	.LASF1
 610 0033 02       		.uleb128 0x2
 611 0034 02       		.byte	0x2
 612 0035 05       		.byte	0x5
 613 0036 25020000 		.4byte	.LASF2
 614 003a 02       		.uleb128 0x2
ARM GAS  C:\Users\Snufkin\AppData\Local\Temp\ccUyjzAN.s 			page 15


 615 003b 02       		.byte	0x2
 616 003c 07       		.byte	0x7
 617 003d 45000000 		.4byte	.LASF3
 618 0041 02       		.uleb128 0x2
 619 0042 04       		.byte	0x4
 620 0043 05       		.byte	0x5
 621 0044 45020000 		.4byte	.LASF4
 622 0048 02       		.uleb128 0x2
 623 0049 04       		.byte	0x4
 624 004a 07       		.byte	0x7
 625 004b F8000000 		.4byte	.LASF5
 626 004f 02       		.uleb128 0x2
 627 0050 08       		.byte	0x8
 628 0051 05       		.byte	0x5
 629 0052 01020000 		.4byte	.LASF6
 630 0056 02       		.uleb128 0x2
 631 0057 08       		.byte	0x8
 632 0058 07       		.byte	0x7
 633 0059 6E010000 		.4byte	.LASF7
 634 005d 03       		.uleb128 0x3
 635 005e 04       		.byte	0x4
 636 005f 05       		.byte	0x5
 637 0060 696E7400 		.ascii	"int\000"
 638 0064 02       		.uleb128 0x2
 639 0065 04       		.byte	0x4
 640 0066 07       		.byte	0x7
 641 0067 61010000 		.4byte	.LASF8
 642 006b 04       		.uleb128 0x4
 643 006c 3F020000 		.4byte	.LASF9
 644 0070 02       		.byte	0x2
 645 0071 A1       		.byte	0xa1
 646 0072 2C000000 		.4byte	0x2c
 647 0076 04       		.uleb128 0x4
 648 0077 42010000 		.4byte	.LASF10
 649 007b 02       		.byte	0x2
 650 007c A3       		.byte	0xa3
 651 007d 48000000 		.4byte	0x48
 652 0081 04       		.uleb128 0x4
 653 0082 3D010000 		.4byte	.LASF11
 654 0086 02       		.byte	0x2
 655 0087 A4       		.byte	0xa4
 656 0088 25000000 		.4byte	0x25
 657 008c 04       		.uleb128 0x4
 658 008d F2000000 		.4byte	.LASF12
 659 0091 02       		.byte	0x2
 660 0092 A5       		.byte	0xa5
 661 0093 33000000 		.4byte	0x33
 662 0097 04       		.uleb128 0x4
 663 0098 EA010000 		.4byte	.LASF13
 664 009c 02       		.byte	0x2
 665 009d A6       		.byte	0xa6
 666 009e 41000000 		.4byte	0x41
 667 00a2 02       		.uleb128 0x2
 668 00a3 04       		.byte	0x4
 669 00a4 04       		.byte	0x4
 670 00a5 65000000 		.4byte	.LASF14
 671 00a9 02       		.uleb128 0x2
ARM GAS  C:\Users\Snufkin\AppData\Local\Temp\ccUyjzAN.s 			page 16


 672 00aa 08       		.byte	0x8
 673 00ab 04       		.byte	0x4
 674 00ac 2D010000 		.4byte	.LASF15
 675 00b0 02       		.uleb128 0x2
 676 00b1 01       		.byte	0x1
 677 00b2 08       		.byte	0x8
 678 00b3 1B020000 		.4byte	.LASF16
 679 00b7 05       		.uleb128 0x5
 680 00b8 00000000 		.4byte	.LASF17
 681 00bc 02       		.byte	0x2
 682 00bd 4D01     		.2byte	0x14d
 683 00bf C3000000 		.4byte	0xc3
 684 00c3 06       		.uleb128 0x6
 685 00c4 76000000 		.4byte	0x76
 686 00c8 02       		.uleb128 0x2
 687 00c9 04       		.byte	0x4
 688 00ca 07       		.byte	0x7
 689 00cb F0010000 		.4byte	.LASF18
 690 00cf 07       		.uleb128 0x7
 691 00d0 01       		.byte	0x1
 692 00d1 01       		.byte	0x1
 693 00d2 25       		.byte	0x25
 694 00d3 F6000000 		.4byte	0xf6
 695 00d7 08       		.uleb128 0x8
 696 00d8 58000000 		.4byte	.LASF19
 697 00dc 00       		.sleb128 0
 698 00dd 08       		.uleb128 0x8
 699 00de 4E010000 		.4byte	.LASF20
 700 00e2 01       		.sleb128 1
 701 00e3 08       		.uleb128 0x8
 702 00e4 49010000 		.4byte	.LASF21
 703 00e8 02       		.sleb128 2
 704 00e9 08       		.uleb128 0x8
 705 00ea 20020000 		.4byte	.LASF22
 706 00ee 03       		.sleb128 3
 707 00ef 08       		.uleb128 0x8
 708 00f0 28010000 		.4byte	.LASF23
 709 00f4 04       		.sleb128 4
 710 00f5 00       		.byte	0
 711 00f6 04       		.uleb128 0x4
 712 00f7 29000000 		.4byte	.LASF24
 713 00fb 01       		.byte	0x1
 714 00fc 25       		.byte	0x25
 715 00fd CF000000 		.4byte	0xcf
 716 0101 09       		.uleb128 0x9
 717 0102 2F020000 		.4byte	.LASF25
 718 0106 01       		.byte	0x1
 719 0107 2A       		.byte	0x2a
 720 0108 00000000 		.4byte	.LFB33
 721 010c 90000000 		.4byte	.LFE33-.LFB33
 722 0110 01       		.uleb128 0x1
 723 0111 9C       		.byte	0x9c
 724 0112 0A       		.uleb128 0xa
 725 0113 06000000 		.4byte	.LASF41
 726 0117 01       		.byte	0x1
 727 0118 43       		.byte	0x43
 728 0119 00000000 		.4byte	.LFB34
ARM GAS  C:\Users\Snufkin\AppData\Local\Temp\ccUyjzAN.s 			page 17


 729 011d A0000000 		.4byte	.LFE34-.LFB34
 730 0121 01       		.uleb128 0x1
 731 0122 9C       		.byte	0x9c
 732 0123 3E010000 		.4byte	0x13e
 733 0127 0B       		.uleb128 0xb
 734 0128 28000000 		.4byte	.LBB2
 735 012c 46000000 		.4byte	.LBE2-.LBB2
 736 0130 0C       		.uleb128 0xc
 737 0131 6900     		.ascii	"i\000"
 738 0133 01       		.byte	0x1
 739 0134 4B       		.byte	0x4b
 740 0135 6B000000 		.4byte	0x6b
 741 0139 02       		.uleb128 0x2
 742 013a 91       		.byte	0x91
 743 013b 77       		.sleb128 -9
 744 013c 00       		.byte	0
 745 013d 00       		.byte	0
 746 013e 09       		.uleb128 0x9
 747 013f D1010000 		.4byte	.LASF26
 748 0143 01       		.byte	0x1
 749 0144 59       		.byte	0x59
 750 0145 00000000 		.4byte	.LFB35
 751 0149 34000000 		.4byte	.LFE35-.LFB35
 752 014d 01       		.uleb128 0x1
 753 014e 9C       		.byte	0x9c
 754 014f 0D       		.uleb128 0xd
 755 0150 E7000000 		.4byte	.LASF42
 756 0154 01       		.byte	0x1
 757 0155 5F       		.byte	0x5f
 758 0156 00000000 		.4byte	.LFB36
 759 015a A4010000 		.4byte	.LFE36-.LFB36
 760 015e 01       		.uleb128 0x1
 761 015f 9C       		.byte	0x9c
 762 0160 0E       		.uleb128 0xe
 763 0161 DA010000 		.4byte	.LASF27
 764 0165 03       		.byte	0x3
 765 0166 12       		.byte	0x12
 766 0167 6B000000 		.4byte	0x6b
 767 016b 05       		.uleb128 0x5
 768 016c 03       		.byte	0x3
 769 016d 00000000 		.4byte	receivedCommand
 770 0171 0E       		.uleb128 0xe
 771 0172 34010000 		.4byte	.LASF28
 772 0176 01       		.byte	0x1
 773 0177 18       		.byte	0x18
 774 0178 97000000 		.4byte	0x97
 775 017c 05       		.uleb128 0x5
 776 017d 03       		.byte	0x3
 777 017e 00000000 		.4byte	tempTemp
 778 0182 0E       		.uleb128 0xe
 779 0183 5D000000 		.4byte	.LASF29
 780 0187 01       		.byte	0x1
 781 0188 19       		.byte	0x19
 782 0189 97000000 		.4byte	0x97
 783 018d 05       		.uleb128 0x5
 784 018e 03       		.byte	0x3
 785 018f 00000000 		.4byte	tempHum
ARM GAS  C:\Users\Snufkin\AppData\Local\Temp\ccUyjzAN.s 			page 18


 786 0193 0F       		.uleb128 0xf
 787 0194 8C000000 		.4byte	0x8c
 788 0198 A3010000 		.4byte	0x1a3
 789 019c 10       		.uleb128 0x10
 790 019d C8000000 		.4byte	0xc8
 791 01a1 05       		.byte	0x5
 792 01a2 00       		.byte	0
 793 01a3 0E       		.uleb128 0xe
 794 01a4 10000000 		.4byte	.LASF30
 795 01a8 01       		.byte	0x1
 796 01a9 1A       		.byte	0x1a
 797 01aa 93010000 		.4byte	0x193
 798 01ae 05       		.uleb128 0x5
 799 01af 03       		.byte	0x3
 800 01b0 00000000 		.4byte	tempSoilHum
 801 01b4 0E       		.uleb128 0xe
 802 01b5 5A020000 		.4byte	.LASF31
 803 01b9 01       		.byte	0x1
 804 01ba 1B       		.byte	0x1b
 805 01bb 97000000 		.4byte	0x97
 806 01bf 05       		.uleb128 0x5
 807 01c0 03       		.byte	0x3
 808 01c1 00000000 		.4byte	tempLight
 809 01c5 0E       		.uleb128 0xe
 810 01c6 F9010000 		.4byte	.LASF32
 811 01ca 01       		.byte	0x1
 812 01cb 1C       		.byte	0x1c
 813 01cc 6B000000 		.4byte	0x6b
 814 01d0 05       		.uleb128 0x5
 815 01d1 03       		.byte	0x3
 816 01d2 00000000 		.4byte	newByte
 817 01d6 0E       		.uleb128 0xe
 818 01d7 23010000 		.4byte	.LASF33
 819 01db 01       		.byte	0x1
 820 01dc 1D       		.byte	0x1d
 821 01dd 6B000000 		.4byte	0x6b
 822 01e1 05       		.uleb128 0x5
 823 01e2 03       		.byte	0x3
 824 01e3 00000000 		.4byte	buff
 825 01e7 0E       		.uleb128 0xe
 826 01e8 1A010000 		.4byte	.LASF34
 827 01ec 01       		.byte	0x1
 828 01ed 26       		.byte	0x26
 829 01ee F8010000 		.4byte	0x1f8
 830 01f2 05       		.uleb128 0x5
 831 01f3 03       		.byte	0x3
 832 01f4 00000000 		.4byte	theState
 833 01f8 06       		.uleb128 0x6
 834 01f9 F6000000 		.4byte	0xf6
 835 01fd 0E       		.uleb128 0xe
 836 01fe 0A010000 		.4byte	.LASF35
 837 0202 01       		.byte	0x1
 838 0203 27       		.byte	0x27
 839 0204 0E020000 		.4byte	0x20e
 840 0208 05       		.uleb128 0x5
 841 0209 03       		.byte	0x3
 842 020a 00000000 		.4byte	irrigationIndex
ARM GAS  C:\Users\Snufkin\AppData\Local\Temp\ccUyjzAN.s 			page 19


 843 020e 06       		.uleb128 0x6
 844 020f 81000000 		.4byte	0x81
 845 0213 0E       		.uleb128 0xe
 846 0214 1C000000 		.4byte	.LASF36
 847 0218 01       		.byte	0x1
 848 0219 28       		.byte	0x28
 849 021a 6B000000 		.4byte	0x6b
 850 021e 05       		.uleb128 0x5
 851 021f 03       		.byte	0x3
 852 0220 00000000 		.4byte	blueLEDState
 853 0224 0E       		.uleb128 0xe
 854 0225 0F020000 		.4byte	.LASF37
 855 0229 01       		.byte	0x1
 856 022a 28       		.byte	0x28
 857 022b 6B000000 		.4byte	0x6b
 858 022f 05       		.uleb128 0x5
 859 0230 03       		.byte	0x3
 860 0231 00000000 		.4byte	redLEDState
 861 0235 00       		.byte	0
 862              		.section	.debug_abbrev,"",%progbits
 863              	.Ldebug_abbrev0:
 864 0000 01       		.uleb128 0x1
 865 0001 11       		.uleb128 0x11
 866 0002 01       		.byte	0x1
 867 0003 25       		.uleb128 0x25
 868 0004 0E       		.uleb128 0xe
 869 0005 13       		.uleb128 0x13
 870 0006 0B       		.uleb128 0xb
 871 0007 03       		.uleb128 0x3
 872 0008 0E       		.uleb128 0xe
 873 0009 1B       		.uleb128 0x1b
 874 000a 0E       		.uleb128 0xe
 875 000b 55       		.uleb128 0x55
 876 000c 17       		.uleb128 0x17
 877 000d 11       		.uleb128 0x11
 878 000e 01       		.uleb128 0x1
 879 000f 10       		.uleb128 0x10
 880 0010 17       		.uleb128 0x17
 881 0011 00       		.byte	0
 882 0012 00       		.byte	0
 883 0013 02       		.uleb128 0x2
 884 0014 24       		.uleb128 0x24
 885 0015 00       		.byte	0
 886 0016 0B       		.uleb128 0xb
 887 0017 0B       		.uleb128 0xb
 888 0018 3E       		.uleb128 0x3e
 889 0019 0B       		.uleb128 0xb
 890 001a 03       		.uleb128 0x3
 891 001b 0E       		.uleb128 0xe
 892 001c 00       		.byte	0
 893 001d 00       		.byte	0
 894 001e 03       		.uleb128 0x3
 895 001f 24       		.uleb128 0x24
 896 0020 00       		.byte	0
 897 0021 0B       		.uleb128 0xb
 898 0022 0B       		.uleb128 0xb
 899 0023 3E       		.uleb128 0x3e
ARM GAS  C:\Users\Snufkin\AppData\Local\Temp\ccUyjzAN.s 			page 20


 900 0024 0B       		.uleb128 0xb
 901 0025 03       		.uleb128 0x3
 902 0026 08       		.uleb128 0x8
 903 0027 00       		.byte	0
 904 0028 00       		.byte	0
 905 0029 04       		.uleb128 0x4
 906 002a 16       		.uleb128 0x16
 907 002b 00       		.byte	0
 908 002c 03       		.uleb128 0x3
 909 002d 0E       		.uleb128 0xe
 910 002e 3A       		.uleb128 0x3a
 911 002f 0B       		.uleb128 0xb
 912 0030 3B       		.uleb128 0x3b
 913 0031 0B       		.uleb128 0xb
 914 0032 49       		.uleb128 0x49
 915 0033 13       		.uleb128 0x13
 916 0034 00       		.byte	0
 917 0035 00       		.byte	0
 918 0036 05       		.uleb128 0x5
 919 0037 16       		.uleb128 0x16
 920 0038 00       		.byte	0
 921 0039 03       		.uleb128 0x3
 922 003a 0E       		.uleb128 0xe
 923 003b 3A       		.uleb128 0x3a
 924 003c 0B       		.uleb128 0xb
 925 003d 3B       		.uleb128 0x3b
 926 003e 05       		.uleb128 0x5
 927 003f 49       		.uleb128 0x49
 928 0040 13       		.uleb128 0x13
 929 0041 00       		.byte	0
 930 0042 00       		.byte	0
 931 0043 06       		.uleb128 0x6
 932 0044 35       		.uleb128 0x35
 933 0045 00       		.byte	0
 934 0046 49       		.uleb128 0x49
 935 0047 13       		.uleb128 0x13
 936 0048 00       		.byte	0
 937 0049 00       		.byte	0
 938 004a 07       		.uleb128 0x7
 939 004b 04       		.uleb128 0x4
 940 004c 01       		.byte	0x1
 941 004d 0B       		.uleb128 0xb
 942 004e 0B       		.uleb128 0xb
 943 004f 3A       		.uleb128 0x3a
 944 0050 0B       		.uleb128 0xb
 945 0051 3B       		.uleb128 0x3b
 946 0052 0B       		.uleb128 0xb
 947 0053 01       		.uleb128 0x1
 948 0054 13       		.uleb128 0x13
 949 0055 00       		.byte	0
 950 0056 00       		.byte	0
 951 0057 08       		.uleb128 0x8
 952 0058 28       		.uleb128 0x28
 953 0059 00       		.byte	0
 954 005a 03       		.uleb128 0x3
 955 005b 0E       		.uleb128 0xe
 956 005c 1C       		.uleb128 0x1c
ARM GAS  C:\Users\Snufkin\AppData\Local\Temp\ccUyjzAN.s 			page 21


 957 005d 0D       		.uleb128 0xd
 958 005e 00       		.byte	0
 959 005f 00       		.byte	0
 960 0060 09       		.uleb128 0x9
 961 0061 2E       		.uleb128 0x2e
 962 0062 00       		.byte	0
 963 0063 3F       		.uleb128 0x3f
 964 0064 19       		.uleb128 0x19
 965 0065 03       		.uleb128 0x3
 966 0066 0E       		.uleb128 0xe
 967 0067 3A       		.uleb128 0x3a
 968 0068 0B       		.uleb128 0xb
 969 0069 3B       		.uleb128 0x3b
 970 006a 0B       		.uleb128 0xb
 971 006b 27       		.uleb128 0x27
 972 006c 19       		.uleb128 0x19
 973 006d 11       		.uleb128 0x11
 974 006e 01       		.uleb128 0x1
 975 006f 12       		.uleb128 0x12
 976 0070 06       		.uleb128 0x6
 977 0071 40       		.uleb128 0x40
 978 0072 18       		.uleb128 0x18
 979 0073 9642     		.uleb128 0x2116
 980 0075 19       		.uleb128 0x19
 981 0076 00       		.byte	0
 982 0077 00       		.byte	0
 983 0078 0A       		.uleb128 0xa
 984 0079 2E       		.uleb128 0x2e
 985 007a 01       		.byte	0x1
 986 007b 3F       		.uleb128 0x3f
 987 007c 19       		.uleb128 0x19
 988 007d 03       		.uleb128 0x3
 989 007e 0E       		.uleb128 0xe
 990 007f 3A       		.uleb128 0x3a
 991 0080 0B       		.uleb128 0xb
 992 0081 3B       		.uleb128 0x3b
 993 0082 0B       		.uleb128 0xb
 994 0083 27       		.uleb128 0x27
 995 0084 19       		.uleb128 0x19
 996 0085 11       		.uleb128 0x11
 997 0086 01       		.uleb128 0x1
 998 0087 12       		.uleb128 0x12
 999 0088 06       		.uleb128 0x6
 1000 0089 40       		.uleb128 0x40
 1001 008a 18       		.uleb128 0x18
 1002 008b 9642     		.uleb128 0x2116
 1003 008d 19       		.uleb128 0x19
 1004 008e 01       		.uleb128 0x1
 1005 008f 13       		.uleb128 0x13
 1006 0090 00       		.byte	0
 1007 0091 00       		.byte	0
 1008 0092 0B       		.uleb128 0xb
 1009 0093 0B       		.uleb128 0xb
 1010 0094 01       		.byte	0x1
 1011 0095 11       		.uleb128 0x11
 1012 0096 01       		.uleb128 0x1
 1013 0097 12       		.uleb128 0x12
ARM GAS  C:\Users\Snufkin\AppData\Local\Temp\ccUyjzAN.s 			page 22


 1014 0098 06       		.uleb128 0x6
 1015 0099 00       		.byte	0
 1016 009a 00       		.byte	0
 1017 009b 0C       		.uleb128 0xc
 1018 009c 34       		.uleb128 0x34
 1019 009d 00       		.byte	0
 1020 009e 03       		.uleb128 0x3
 1021 009f 08       		.uleb128 0x8
 1022 00a0 3A       		.uleb128 0x3a
 1023 00a1 0B       		.uleb128 0xb
 1024 00a2 3B       		.uleb128 0x3b
 1025 00a3 0B       		.uleb128 0xb
 1026 00a4 49       		.uleb128 0x49
 1027 00a5 13       		.uleb128 0x13
 1028 00a6 02       		.uleb128 0x2
 1029 00a7 18       		.uleb128 0x18
 1030 00a8 00       		.byte	0
 1031 00a9 00       		.byte	0
 1032 00aa 0D       		.uleb128 0xd
 1033 00ab 2E       		.uleb128 0x2e
 1034 00ac 00       		.byte	0
 1035 00ad 3F       		.uleb128 0x3f
 1036 00ae 19       		.uleb128 0x19
 1037 00af 03       		.uleb128 0x3
 1038 00b0 0E       		.uleb128 0xe
 1039 00b1 3A       		.uleb128 0x3a
 1040 00b2 0B       		.uleb128 0xb
 1041 00b3 3B       		.uleb128 0x3b
 1042 00b4 0B       		.uleb128 0xb
 1043 00b5 11       		.uleb128 0x11
 1044 00b6 01       		.uleb128 0x1
 1045 00b7 12       		.uleb128 0x12
 1046 00b8 06       		.uleb128 0x6
 1047 00b9 40       		.uleb128 0x40
 1048 00ba 18       		.uleb128 0x18
 1049 00bb 9642     		.uleb128 0x2116
 1050 00bd 19       		.uleb128 0x19
 1051 00be 00       		.byte	0
 1052 00bf 00       		.byte	0
 1053 00c0 0E       		.uleb128 0xe
 1054 00c1 34       		.uleb128 0x34
 1055 00c2 00       		.byte	0
 1056 00c3 03       		.uleb128 0x3
 1057 00c4 0E       		.uleb128 0xe
 1058 00c5 3A       		.uleb128 0x3a
 1059 00c6 0B       		.uleb128 0xb
 1060 00c7 3B       		.uleb128 0x3b
 1061 00c8 0B       		.uleb128 0xb
 1062 00c9 49       		.uleb128 0x49
 1063 00ca 13       		.uleb128 0x13
 1064 00cb 3F       		.uleb128 0x3f
 1065 00cc 19       		.uleb128 0x19
 1066 00cd 02       		.uleb128 0x2
 1067 00ce 18       		.uleb128 0x18
 1068 00cf 00       		.byte	0
 1069 00d0 00       		.byte	0
 1070 00d1 0F       		.uleb128 0xf
ARM GAS  C:\Users\Snufkin\AppData\Local\Temp\ccUyjzAN.s 			page 23


 1071 00d2 01       		.uleb128 0x1
 1072 00d3 01       		.byte	0x1
 1073 00d4 49       		.uleb128 0x49
 1074 00d5 13       		.uleb128 0x13
 1075 00d6 01       		.uleb128 0x1
 1076 00d7 13       		.uleb128 0x13
 1077 00d8 00       		.byte	0
 1078 00d9 00       		.byte	0
 1079 00da 10       		.uleb128 0x10
 1080 00db 21       		.uleb128 0x21
 1081 00dc 00       		.byte	0
 1082 00dd 49       		.uleb128 0x49
 1083 00de 13       		.uleb128 0x13
 1084 00df 2F       		.uleb128 0x2f
 1085 00e0 0B       		.uleb128 0xb
 1086 00e1 00       		.byte	0
 1087 00e2 00       		.byte	0
 1088 00e3 00       		.byte	0
 1089              		.section	.debug_aranges,"",%progbits
 1090 0000 34000000 		.4byte	0x34
 1091 0004 0200     		.2byte	0x2
 1092 0006 00000000 		.4byte	.Ldebug_info0
 1093 000a 04       		.byte	0x4
 1094 000b 00       		.byte	0
 1095 000c 0000     		.2byte	0
 1096 000e 0000     		.2byte	0
 1097 0010 00000000 		.4byte	.LFB33
 1098 0014 90000000 		.4byte	.LFE33-.LFB33
 1099 0018 00000000 		.4byte	.LFB34
 1100 001c A0000000 		.4byte	.LFE34-.LFB34
 1101 0020 00000000 		.4byte	.LFB35
 1102 0024 34000000 		.4byte	.LFE35-.LFB35
 1103 0028 00000000 		.4byte	.LFB36
 1104 002c A4010000 		.4byte	.LFE36-.LFB36
 1105 0030 00000000 		.4byte	0
 1106 0034 00000000 		.4byte	0
 1107              		.section	.debug_ranges,"",%progbits
 1108              	.Ldebug_ranges0:
 1109 0000 00000000 		.4byte	.LFB33
 1110 0004 90000000 		.4byte	.LFE33
 1111 0008 00000000 		.4byte	.LFB34
 1112 000c A0000000 		.4byte	.LFE34
 1113 0010 00000000 		.4byte	.LFB35
 1114 0014 34000000 		.4byte	.LFE35
 1115 0018 00000000 		.4byte	.LFB36
 1116 001c A4010000 		.4byte	.LFE36
 1117 0020 00000000 		.4byte	0
 1118 0024 00000000 		.4byte	0
 1119              		.section	.debug_line,"",%progbits
 1120              	.Ldebug_line0:
 1121 0000 12010000 		.section	.debug_str,"MS",%progbits,1
 1121      02006400 
 1121      00000201 
 1121      FB0E0D00 
 1121      01010101 
 1122              	.LASF17:
 1123 0000 72656733 		.ascii	"reg32\000"
ARM GAS  C:\Users\Snufkin\AppData\Local\Temp\ccUyjzAN.s 			page 24


 1123      3200
 1124              	.LASF41:
 1125 0006 74696D65 		.ascii	"timer_ISR\000"
 1125      725F4953 
 1125      5200
 1126              	.LASF30:
 1127 0010 74656D70 		.ascii	"tempSoilHum\000"
 1127      536F696C 
 1127      48756D00 
 1128              	.LASF36:
 1129 001c 626C7565 		.ascii	"blueLEDState\000"
 1129      4C454453 
 1129      74617465 
 1129      00
 1130              	.LASF24:
 1131 0029 73746174 		.ascii	"state\000"
 1131      6500
 1132              	.LASF39:
 1133 002f 2E5C5053 		.ascii	".\\PSoC_Master_Class.c\000"
 1133      6F435F4D 
 1133      61737465 
 1133      725F436C 
 1133      6173732E 
 1134              	.LASF3:
 1135 0045 73686F72 		.ascii	"short unsigned int\000"
 1135      7420756E 
 1135      7369676E 
 1135      65642069 
 1135      6E7400
 1136              	.LASF19:
 1137 0058 49444C45 		.ascii	"IDLE\000"
 1137      00
 1138              	.LASF29:
 1139 005d 74656D70 		.ascii	"tempHum\000"
 1139      48756D00 
 1140              	.LASF14:
 1141 0065 666C6F61 		.ascii	"float\000"
 1141      7400
 1142              	.LASF38:
 1143 006b 474E5520 		.ascii	"GNU C 4.8.4 20140526 (release) [ARM/embedded-4_8-br"
 1143      4320342E 
 1143      382E3420 
 1143      32303134 
 1143      30353236 
 1144 009e 616E6368 		.ascii	"anch revision 211358] -mcpu=cortex-m0 -mthumb -g -O"
 1144      20726576 
 1144      6973696F 
 1144      6E203231 
 1144      31333538 
 1145 00d1 30202D66 		.ascii	"0 -ffunction-sections\000"
 1145      66756E63 
 1145      74696F6E 
 1145      2D736563 
 1145      74696F6E 
 1146              	.LASF42:
 1147 00e7 696E7448 		.ascii	"intHandler\000"
 1147      616E646C 
ARM GAS  C:\Users\Snufkin\AppData\Local\Temp\ccUyjzAN.s 			page 25


 1147      657200
 1148              	.LASF12:
 1149 00f2 696E7431 		.ascii	"int16\000"
 1149      3600
 1150              	.LASF5:
 1151 00f8 6C6F6E67 		.ascii	"long unsigned int\000"
 1151      20756E73 
 1151      69676E65 
 1151      6420696E 
 1151      7400
 1152              	.LASF35:
 1153 010a 69727269 		.ascii	"irrigationIndex\000"
 1153      67617469 
 1153      6F6E496E 
 1153      64657800 
 1154              	.LASF34:
 1155 011a 74686553 		.ascii	"theState\000"
 1155      74617465 
 1155      00
 1156              	.LASF33:
 1157 0123 62756666 		.ascii	"buff\000"
 1157      00
 1158              	.LASF23:
 1159 0128 41444A49 		.ascii	"ADJI\000"
 1159      00
 1160              	.LASF15:
 1161 012d 646F7562 		.ascii	"double\000"
 1161      6C6500
 1162              	.LASF28:
 1163 0134 74656D70 		.ascii	"tempTemp\000"
 1163      54656D70 
 1163      00
 1164              	.LASF11:
 1165 013d 696E7438 		.ascii	"int8\000"
 1165      00
 1166              	.LASF10:
 1167 0142 75696E74 		.ascii	"uint32\000"
 1167      333200
 1168              	.LASF21:
 1169 0149 41444A48 		.ascii	"ADJH\000"
 1169      00
 1170              	.LASF20:
 1171 014e 41444A57 		.ascii	"ADJW\000"
 1171      00
 1172              	.LASF1:
 1173 0153 756E7369 		.ascii	"unsigned char\000"
 1173      676E6564 
 1173      20636861 
 1173      7200
 1174              	.LASF8:
 1175 0161 756E7369 		.ascii	"unsigned int\000"
 1175      676E6564 
 1175      20696E74 
 1175      00
 1176              	.LASF7:
 1177 016e 6C6F6E67 		.ascii	"long long unsigned int\000"
 1177      206C6F6E 
ARM GAS  C:\Users\Snufkin\AppData\Local\Temp\ccUyjzAN.s 			page 26


 1177      6720756E 
 1177      7369676E 
 1177      65642069 
 1178              	.LASF40:
 1179 0185 433A5C55 		.ascii	"C:\\Users\\Snufkin\\Documents\\GitHub\\PSoC_Master\\"
 1179      73657273 
 1179      5C536E75 
 1179      666B696E 
 1179      5C446F63 
 1180 01b3 50536F43 		.ascii	"PSoC_Master\\PSoC_Master.cydsn\000"
 1180      5F4D6173 
 1180      7465725C 
 1180      50536F43 
 1180      5F4D6173 
 1181              	.LASF26:
 1182 01d1 55415254 		.ascii	"UART_ISR\000"
 1182      5F495352 
 1182      00
 1183              	.LASF27:
 1184 01da 72656365 		.ascii	"receivedCommand\000"
 1184      69766564 
 1184      436F6D6D 
 1184      616E6400 
 1185              	.LASF13:
 1186 01ea 696E7433 		.ascii	"int32\000"
 1186      3200
 1187              	.LASF18:
 1188 01f0 73697A65 		.ascii	"sizetype\000"
 1188      74797065 
 1188      00
 1189              	.LASF32:
 1190 01f9 6E657742 		.ascii	"newByte\000"
 1190      79746500 
 1191              	.LASF6:
 1192 0201 6C6F6E67 		.ascii	"long long int\000"
 1192      206C6F6E 
 1192      6720696E 
 1192      7400
 1193              	.LASF37:
 1194 020f 7265644C 		.ascii	"redLEDState\000"
 1194      45445374 
 1194      61746500 
 1195              	.LASF16:
 1196 021b 63686172 		.ascii	"char\000"
 1196      00
 1197              	.LASF22:
 1198 0220 41444A56 		.ascii	"ADJV\000"
 1198      00
 1199              	.LASF2:
 1200 0225 73686F72 		.ascii	"short int\000"
 1200      7420696E 
 1200      7400
 1201              	.LASF25:
 1202 022f 696E6974 		.ascii	"initPSoC_Master\000"
 1202      50536F43 
 1202      5F4D6173 
 1202      74657200 
ARM GAS  C:\Users\Snufkin\AppData\Local\Temp\ccUyjzAN.s 			page 27


 1203              	.LASF9:
 1204 023f 75696E74 		.ascii	"uint8\000"
 1204      3800
 1205              	.LASF4:
 1206 0245 6C6F6E67 		.ascii	"long int\000"
 1206      20696E74 
 1206      00
 1207              	.LASF0:
 1208 024e 7369676E 		.ascii	"signed char\000"
 1208      65642063 
 1208      68617200 
 1209              	.LASF31:
 1210 025a 74656D70 		.ascii	"tempLight\000"
 1210      4C696768 
 1210      7400
 1211              		.ident	"GCC: (GNU Tools for ARM Embedded Processors) 4.8.4 20140526 (release) [ARM/embedded-4_8-br
