ARM GAS  C:\Users\Lasse\AppData\Local\Temp\ccYV4AZh.s 			page 1


   1              		.cpu cortex-m0
   2              		.fpu softvfp
   3              		.eabi_attribute 20, 1
   4              		.eabi_attribute 21, 1
   5              		.eabi_attribute 23, 3
   6              		.eabi_attribute 24, 1
   7              		.eabi_attribute 25, 1
   8              		.eabi_attribute 26, 1
   9              		.eabi_attribute 30, 6
  10              		.eabi_attribute 34, 0
  11              		.eabi_attribute 18, 4
  12              		.code	16
  13              		.file	"UART_Class.c"
  14              		.text
  15              	.Ltext0:
  16              		.cfi_sections	.debug_frame
  17              		.comm	receivedCommand,1,1
  18              		.section	.text.initUART,"ax",%progbits
  19              		.align	2
  20              		.global	initUART
  21              		.code	16
  22              		.thumb_func
  23              		.type	initUART, %function
  24              	initUART:
  25              	.LFB33:
  26              		.file 1 ".\\UART_Class.c"
   1:.\UART_Class.c **** /* ========================================
   2:.\UART_Class.c ****  * 
   3:.\UART_Class.c ****  * AutoGreen - PSoC_Master
   4:.\UART_Class.c ****  * UART_Class.c
   5:.\UART_Class.c ****  * (Description)
   6:.\UART_Class.c ****  * PRJ3 - GRP9
   7:.\UART_Class.c ****  * 2015-04-15
   8:.\UART_Class.c ****  *
   9:.\UART_Class.c ****  * ========================================
  10:.\UART_Class.c **** */
  11:.\UART_Class.c **** 
  12:.\UART_Class.c **** // Include files
  13:.\UART_Class.c **** #include "UART_Class.h"
  14:.\UART_Class.c **** 
  15:.\UART_Class.c **** // Private data members
  16:.\UART_Class.c **** uint8 receivedCommand;
  17:.\UART_Class.c **** 
  18:.\UART_Class.c **** // Private prototypes
  19:.\UART_Class.c **** 
  20:.\UART_Class.c **** 
  21:.\UART_Class.c **** void initUART(void){
  27              		.loc 1 21 0
  28              		.cfi_startproc
  29 0000 80B5     		push	{r7, lr}
  30              		.cfi_def_cfa_offset 8
  31              		.cfi_offset 7, -8
  32              		.cfi_offset 14, -4
  33 0002 00AF     		add	r7, sp, #0
  34              		.cfi_def_cfa_register 7
  22:.\UART_Class.c **** 
  23:.\UART_Class.c **** }
ARM GAS  C:\Users\Lasse\AppData\Local\Temp\ccYV4AZh.s 			page 2


  35              		.loc 1 23 0
  36 0004 BD46     		mov	sp, r7
  37              		@ sp needed
  38 0006 80BD     		pop	{r7, pc}
  39              		.cfi_endproc
  40              	.LFE33:
  41              		.size	initUART, .-initUART
  42              		.section	.text.respondTemp,"ax",%progbits
  43              		.align	2
  44              		.global	respondTemp
  45              		.code	16
  46              		.thumb_func
  47              		.type	respondTemp, %function
  48              	respondTemp:
  49              	.LFB34:
  24:.\UART_Class.c **** 
  25:.\UART_Class.c **** int8 respondTemp(uint8 temp){
  50              		.loc 1 25 0
  51              		.cfi_startproc
  52 0000 80B5     		push	{r7, lr}
  53              		.cfi_def_cfa_offset 8
  54              		.cfi_offset 7, -8
  55              		.cfi_offset 14, -4
  56 0002 84B0     		sub	sp, sp, #16
  57              		.cfi_def_cfa_offset 24
  58 0004 00AF     		add	r7, sp, #0
  59              		.cfi_def_cfa_register 7
  60 0006 021C     		mov	r2, r0
  61 0008 FB1D     		add	r3, r7, #7
  62 000a 1A70     		strb	r2, [r3]
  26:.\UART_Class.c ****     temp = 0;
  63              		.loc 1 26 0
  64 000c 3B1C     		mov	r3, r7
  65 000e 0F33     		add	r3, r3, #15
  66 0010 0022     		mov	r2, #0
  67 0012 1A70     		strb	r2, [r3]
  27:.\UART_Class.c ****     return 0;
  68              		.loc 1 27 0
  69 0014 0023     		mov	r3, #0
  70 0016 5BB2     		sxtb	r3, r3
  28:.\UART_Class.c **** }
  71              		.loc 1 28 0
  72 0018 181C     		mov	r0, r3
  73 001a BD46     		mov	sp, r7
  74 001c 04B0     		add	sp, sp, #16
  75              		@ sp needed
  76 001e 80BD     		pop	{r7, pc}
  77              		.cfi_endproc
  78              	.LFE34:
  79              		.size	respondTemp, .-respondTemp
  80              		.section	.text.respondHum,"ax",%progbits
  81              		.align	2
  82              		.global	respondHum
  83              		.code	16
  84              		.thumb_func
  85              		.type	respondHum, %function
  86              	respondHum:
ARM GAS  C:\Users\Lasse\AppData\Local\Temp\ccYV4AZh.s 			page 3


  87              	.LFB35:
  29:.\UART_Class.c **** 
  30:.\UART_Class.c **** int8 respondHum(uint8 hum){
  88              		.loc 1 30 0
  89              		.cfi_startproc
  90 0000 80B5     		push	{r7, lr}
  91              		.cfi_def_cfa_offset 8
  92              		.cfi_offset 7, -8
  93              		.cfi_offset 14, -4
  94 0002 84B0     		sub	sp, sp, #16
  95              		.cfi_def_cfa_offset 24
  96 0004 00AF     		add	r7, sp, #0
  97              		.cfi_def_cfa_register 7
  98 0006 021C     		mov	r2, r0
  99 0008 FB1D     		add	r3, r7, #7
 100 000a 1A70     		strb	r2, [r3]
  31:.\UART_Class.c ****     hum = 0;
 101              		.loc 1 31 0
 102 000c 3B1C     		mov	r3, r7
 103 000e 0F33     		add	r3, r3, #15
 104 0010 0022     		mov	r2, #0
 105 0012 1A70     		strb	r2, [r3]
  32:.\UART_Class.c ****     return 0;
 106              		.loc 1 32 0
 107 0014 0023     		mov	r3, #0
 108 0016 5BB2     		sxtb	r3, r3
  33:.\UART_Class.c **** }
 109              		.loc 1 33 0
 110 0018 181C     		mov	r0, r3
 111 001a BD46     		mov	sp, r7
 112 001c 04B0     		add	sp, sp, #16
 113              		@ sp needed
 114 001e 80BD     		pop	{r7, pc}
 115              		.cfi_endproc
 116              	.LFE35:
 117              		.size	respondHum, .-respondHum
 118              		.section	.text.respondLight,"ax",%progbits
 119              		.align	2
 120              		.global	respondLight
 121              		.code	16
 122              		.thumb_func
 123              		.type	respondLight, %function
 124              	respondLight:
 125              	.LFB36:
  34:.\UART_Class.c **** 
  35:.\UART_Class.c **** int8 respondLight(uint8 light){
 126              		.loc 1 35 0
 127              		.cfi_startproc
 128 0000 80B5     		push	{r7, lr}
 129              		.cfi_def_cfa_offset 8
 130              		.cfi_offset 7, -8
 131              		.cfi_offset 14, -4
 132 0002 84B0     		sub	sp, sp, #16
 133              		.cfi_def_cfa_offset 24
 134 0004 00AF     		add	r7, sp, #0
 135              		.cfi_def_cfa_register 7
 136 0006 021C     		mov	r2, r0
ARM GAS  C:\Users\Lasse\AppData\Local\Temp\ccYV4AZh.s 			page 4


 137 0008 FB1D     		add	r3, r7, #7
 138 000a 1A70     		strb	r2, [r3]
  36:.\UART_Class.c ****     light = 0;
 139              		.loc 1 36 0
 140 000c 3B1C     		mov	r3, r7
 141 000e 0F33     		add	r3, r3, #15
 142 0010 0022     		mov	r2, #0
 143 0012 1A70     		strb	r2, [r3]
  37:.\UART_Class.c ****     return 0;
 144              		.loc 1 37 0
 145 0014 0023     		mov	r3, #0
 146 0016 5BB2     		sxtb	r3, r3
  38:.\UART_Class.c **** }
 147              		.loc 1 38 0
 148 0018 181C     		mov	r0, r3
 149 001a BD46     		mov	sp, r7
 150 001c 04B0     		add	sp, sp, #16
 151              		@ sp needed
 152 001e 80BD     		pop	{r7, pc}
 153              		.cfi_endproc
 154              	.LFE36:
 155              		.size	respondLight, .-respondLight
 156              		.section	.text.respondSoilHum,"ax",%progbits
 157              		.align	2
 158              		.global	respondSoilHum
 159              		.code	16
 160              		.thumb_func
 161              		.type	respondSoilHum, %function
 162              	respondSoilHum:
 163              	.LFB37:
  39:.\UART_Class.c **** 
  40:.\UART_Class.c **** int8 respondSoilHum(uint8 index, uint8 soilHum){
 164              		.loc 1 40 0
 165              		.cfi_startproc
 166 0000 80B5     		push	{r7, lr}
 167              		.cfi_def_cfa_offset 8
 168              		.cfi_offset 7, -8
 169              		.cfi_offset 14, -4
 170 0002 84B0     		sub	sp, sp, #16
 171              		.cfi_def_cfa_offset 24
 172 0004 00AF     		add	r7, sp, #0
 173              		.cfi_def_cfa_register 7
 174 0006 0A1C     		mov	r2, r1
 175 0008 FB1D     		add	r3, r7, #7
 176 000a 011C     		add	r1, r0, #0
 177 000c 1970     		strb	r1, [r3]
 178 000e BB1D     		add	r3, r7, #6
 179 0010 1A70     		strb	r2, [r3]
  41:.\UART_Class.c ****     index = 0;
 180              		.loc 1 41 0
 181 0012 3B1C     		mov	r3, r7
 182 0014 0F33     		add	r3, r3, #15
 183 0016 0022     		mov	r2, #0
 184 0018 1A70     		strb	r2, [r3]
  42:.\UART_Class.c ****     soilHum = 0;
 185              		.loc 1 42 0
 186 001a 3B1C     		mov	r3, r7
ARM GAS  C:\Users\Lasse\AppData\Local\Temp\ccYV4AZh.s 			page 5


 187 001c 0E33     		add	r3, r3, #14
 188 001e 0022     		mov	r2, #0
 189 0020 1A70     		strb	r2, [r3]
  43:.\UART_Class.c ****     return 0;
 190              		.loc 1 43 0
 191 0022 0023     		mov	r3, #0
 192 0024 5BB2     		sxtb	r3, r3
  44:.\UART_Class.c **** }
 193              		.loc 1 44 0
 194 0026 181C     		mov	r0, r3
 195 0028 BD46     		mov	sp, r7
 196 002a 04B0     		add	sp, sp, #16
 197              		@ sp needed
 198 002c 80BD     		pop	{r7, pc}
 199              		.cfi_endproc
 200              	.LFE37:
 201              		.size	respondSoilHum, .-respondSoilHum
 202 002e C046     		.section	.text.respondHeat,"ax",%progbits
 203              		.align	2
 204              		.global	respondHeat
 205              		.code	16
 206              		.thumb_func
 207              		.type	respondHeat, %function
 208              	respondHeat:
 209              	.LFB38:
  45:.\UART_Class.c **** 
  46:.\UART_Class.c **** int8 respondHeat(int8 heatStatus, uint8 onOff){
 210              		.loc 1 46 0
 211              		.cfi_startproc
 212 0000 80B5     		push	{r7, lr}
 213              		.cfi_def_cfa_offset 8
 214              		.cfi_offset 7, -8
 215              		.cfi_offset 14, -4
 216 0002 84B0     		sub	sp, sp, #16
 217              		.cfi_def_cfa_offset 24
 218 0004 00AF     		add	r7, sp, #0
 219              		.cfi_def_cfa_register 7
 220 0006 0A1C     		mov	r2, r1
 221 0008 FB1D     		add	r3, r7, #7
 222 000a 011C     		add	r1, r0, #0
 223 000c 1970     		strb	r1, [r3]
 224 000e BB1D     		add	r3, r7, #6
 225 0010 1A70     		strb	r2, [r3]
  47:.\UART_Class.c ****     heatStatus = 0;
 226              		.loc 1 47 0
 227 0012 3B1C     		mov	r3, r7
 228 0014 0F33     		add	r3, r3, #15
 229 0016 0022     		mov	r2, #0
 230 0018 1A70     		strb	r2, [r3]
  48:.\UART_Class.c ****     onOff = 0;
 231              		.loc 1 48 0
 232 001a 3B1C     		mov	r3, r7
 233 001c 0E33     		add	r3, r3, #14
 234 001e 0022     		mov	r2, #0
 235 0020 1A70     		strb	r2, [r3]
  49:.\UART_Class.c ****     return 0;
 236              		.loc 1 49 0
ARM GAS  C:\Users\Lasse\AppData\Local\Temp\ccYV4AZh.s 			page 6


 237 0022 0023     		mov	r3, #0
 238 0024 5BB2     		sxtb	r3, r3
  50:.\UART_Class.c **** }
 239              		.loc 1 50 0
 240 0026 181C     		mov	r0, r3
 241 0028 BD46     		mov	sp, r7
 242 002a 04B0     		add	sp, sp, #16
 243              		@ sp needed
 244 002c 80BD     		pop	{r7, pc}
 245              		.cfi_endproc
 246              	.LFE38:
 247              		.size	respondHeat, .-respondHeat
 248 002e C046     		.section	.text.respondWin,"ax",%progbits
 249              		.align	2
 250              		.global	respondWin
 251              		.code	16
 252              		.thumb_func
 253              		.type	respondWin, %function
 254              	respondWin:
 255              	.LFB39:
  51:.\UART_Class.c **** 
  52:.\UART_Class.c **** int8 respondWin(int8 winStatus){
 256              		.loc 1 52 0
 257              		.cfi_startproc
 258 0000 80B5     		push	{r7, lr}
 259              		.cfi_def_cfa_offset 8
 260              		.cfi_offset 7, -8
 261              		.cfi_offset 14, -4
 262 0002 84B0     		sub	sp, sp, #16
 263              		.cfi_def_cfa_offset 24
 264 0004 00AF     		add	r7, sp, #0
 265              		.cfi_def_cfa_register 7
 266 0006 021C     		mov	r2, r0
 267 0008 FB1D     		add	r3, r7, #7
 268 000a 1A70     		strb	r2, [r3]
  53:.\UART_Class.c ****     winStatus = 0;
 269              		.loc 1 53 0
 270 000c 3B1C     		mov	r3, r7
 271 000e 0F33     		add	r3, r3, #15
 272 0010 0022     		mov	r2, #0
 273 0012 1A70     		strb	r2, [r3]
  54:.\UART_Class.c ****     return 0;
 274              		.loc 1 54 0
 275 0014 0023     		mov	r3, #0
 276 0016 5BB2     		sxtb	r3, r3
  55:.\UART_Class.c **** }
 277              		.loc 1 55 0
 278 0018 181C     		mov	r0, r3
 279 001a BD46     		mov	sp, r7
 280 001c 04B0     		add	sp, sp, #16
 281              		@ sp needed
 282 001e 80BD     		pop	{r7, pc}
 283              		.cfi_endproc
 284              	.LFE39:
 285              		.size	respondWin, .-respondWin
 286              		.section	.text.respondVent,"ax",%progbits
 287              		.align	2
ARM GAS  C:\Users\Lasse\AppData\Local\Temp\ccYV4AZh.s 			page 7


 288              		.global	respondVent
 289              		.code	16
 290              		.thumb_func
 291              		.type	respondVent, %function
 292              	respondVent:
 293              	.LFB40:
  56:.\UART_Class.c **** 
  57:.\UART_Class.c **** int8 respondVent(int8 ventStatus){
 294              		.loc 1 57 0
 295              		.cfi_startproc
 296 0000 80B5     		push	{r7, lr}
 297              		.cfi_def_cfa_offset 8
 298              		.cfi_offset 7, -8
 299              		.cfi_offset 14, -4
 300 0002 84B0     		sub	sp, sp, #16
 301              		.cfi_def_cfa_offset 24
 302 0004 00AF     		add	r7, sp, #0
 303              		.cfi_def_cfa_register 7
 304 0006 021C     		mov	r2, r0
 305 0008 FB1D     		add	r3, r7, #7
 306 000a 1A70     		strb	r2, [r3]
  58:.\UART_Class.c ****     ventStatus = 0;
 307              		.loc 1 58 0
 308 000c 3B1C     		mov	r3, r7
 309 000e 0F33     		add	r3, r3, #15
 310 0010 0022     		mov	r2, #0
 311 0012 1A70     		strb	r2, [r3]
  59:.\UART_Class.c ****     return 0;
 312              		.loc 1 59 0
 313 0014 0023     		mov	r3, #0
 314 0016 5BB2     		sxtb	r3, r3
  60:.\UART_Class.c **** }
 315              		.loc 1 60 0
 316 0018 181C     		mov	r0, r3
 317 001a BD46     		mov	sp, r7
 318 001c 04B0     		add	sp, sp, #16
 319              		@ sp needed
 320 001e 80BD     		pop	{r7, pc}
 321              		.cfi_endproc
 322              	.LFE40:
 323              		.size	respondVent, .-respondVent
 324              		.section	.text.respondIrri,"ax",%progbits
 325              		.align	2
 326              		.global	respondIrri
 327              		.code	16
 328              		.thumb_func
 329              		.type	respondIrri, %function
 330              	respondIrri:
 331              	.LFB41:
  61:.\UART_Class.c **** 
  62:.\UART_Class.c **** int8 respondIrri(int8 irriStatus){
 332              		.loc 1 62 0
 333              		.cfi_startproc
 334 0000 80B5     		push	{r7, lr}
 335              		.cfi_def_cfa_offset 8
 336              		.cfi_offset 7, -8
 337              		.cfi_offset 14, -4
ARM GAS  C:\Users\Lasse\AppData\Local\Temp\ccYV4AZh.s 			page 8


 338 0002 84B0     		sub	sp, sp, #16
 339              		.cfi_def_cfa_offset 24
 340 0004 00AF     		add	r7, sp, #0
 341              		.cfi_def_cfa_register 7
 342 0006 021C     		mov	r2, r0
 343 0008 FB1D     		add	r3, r7, #7
 344 000a 1A70     		strb	r2, [r3]
  63:.\UART_Class.c ****     irriStatus = 0;
 345              		.loc 1 63 0
 346 000c 3B1C     		mov	r3, r7
 347 000e 0F33     		add	r3, r3, #15
 348 0010 0022     		mov	r2, #0
 349 0012 1A70     		strb	r2, [r3]
  64:.\UART_Class.c ****     return 0;
 350              		.loc 1 64 0
 351 0014 0023     		mov	r3, #0
 352 0016 5BB2     		sxtb	r3, r3
  65:.\UART_Class.c **** }
 353              		.loc 1 65 0
 354 0018 181C     		mov	r0, r3
 355 001a BD46     		mov	sp, r7
 356 001c 04B0     		add	sp, sp, #16
 357              		@ sp needed
 358 001e 80BD     		pop	{r7, pc}
 359              		.cfi_endproc
 360              	.LFE41:
 361              		.size	respondIrri, .-respondIrri
 362              		.section	.text.dkRequest,"ax",%progbits
 363              		.align	2
 364              		.global	dkRequest
 365              		.code	16
 366              		.thumb_func
 367              		.type	dkRequest, %function
 368              	dkRequest:
 369              	.LFB42:
  66:.\UART_Class.c **** 
  67:.\UART_Class.c **** uint8 dkRequest(void){
 370              		.loc 1 67 0
 371              		.cfi_startproc
 372 0000 80B5     		push	{r7, lr}
 373              		.cfi_def_cfa_offset 8
 374              		.cfi_offset 7, -8
 375              		.cfi_offset 14, -4
 376 0002 00AF     		add	r7, sp, #0
 377              		.cfi_def_cfa_register 7
  68:.\UART_Class.c ****     return 0;
 378              		.loc 1 68 0
 379 0004 0023     		mov	r3, #0
  69:.\UART_Class.c **** }
 380              		.loc 1 69 0
 381 0006 181C     		mov	r0, r3
 382 0008 BD46     		mov	sp, r7
 383              		@ sp needed
 384 000a 80BD     		pop	{r7, pc}
 385              		.cfi_endproc
 386              	.LFE42:
 387              		.size	dkRequest, .-dkRequest
ARM GAS  C:\Users\Lasse\AppData\Local\Temp\ccYV4AZh.s 			page 9


 388              		.text
 389              	.Letext0:
 390              		.file 2 ".\\Generated_Source\\PSoC4/cytypes.h"