ARM GAS  C:\Users\Philip\AppData\Local\Temp\ccuAkmhg.s 			page 1


   1              		.cpu cortex-m0
   2              		.fpu softvfp
   3              		.eabi_attribute 20, 1
   4              		.eabi_attribute 21, 1
   5              		.eabi_attribute 23, 3
   6              		.eabi_attribute 24, 1
   7              		.eabi_attribute 25, 1
   8              		.eabi_attribute 26, 1
   9              		.eabi_attribute 30, 6
  10              		.eabi_attribute 34, 0
  11              		.eabi_attribute 18, 4
  12              		.code	16
  13              		.file	"DSP_Class.c"
  14              		.text
  15              	.Ltext0:
  16              		.cfi_sections	.debug_frame
  17              		.comm	tempArray,40,4
  18              		.comm	tempArrayPtr,4,4
  19              		.comm	humArray,40,4
  20              		.comm	humArrayPtr,4,4
  21              		.comm	soilHumArray,120,4
  22              		.comm	soilHumPtr,24,4
  23              		.comm	lightArray,40,4
  24              		.comm	lightArrayPtr,4,4
  25              		.comm	temp,1,1
  26              		.comm	hum,1,1
  27              		.comm	soilHum,6,4
  28              		.comm	light,1,1
  29              		.section	.text.initDSP,"ax",%progbits
  30              		.align	2
  31              		.global	initDSP
  32              		.code	16
  33              		.thumb_func
  34              		.type	initDSP, %function
  35              	initDSP:
  36              	.LFB33:
  37              		.file 1 ".\\DSP_Class.c"
   1:.\DSP_Class.c **** /* ========================================
   2:.\DSP_Class.c ****  * 
   3:.\DSP_Class.c ****  * AutoGreen - PSoC_Master
   4:.\DSP_Class.c ****  * DSP_Class.c
   5:.\DSP_Class.c ****  * Digital signal processing
   6:.\DSP_Class.c ****  * PRJ3 - GRP9
   7:.\DSP_Class.c ****  * 2015-04-15
   8:.\DSP_Class.c ****  *
   9:.\DSP_Class.c ****  * ========================================
  10:.\DSP_Class.c **** */
  11:.\DSP_Class.c **** 
  12:.\DSP_Class.c **** // Include files
  13:.\DSP_Class.c **** #include "DSP_Class.h"
  14:.\DSP_Class.c **** 
  15:.\DSP_Class.c **** //----------PrivateDataMembers0----------
  16:.\DSP_Class.c **** // Private data members
  17:.\DSP_Class.c **** int32 tempArray[ARRAYSIZE];
  18:.\DSP_Class.c **** int32* tempArrayPtr;
  19:.\DSP_Class.c **** int32 humArray[ARRAYSIZE];
  20:.\DSP_Class.c **** int32* humArrayPtr;
ARM GAS  C:\Users\Philip\AppData\Local\Temp\ccuAkmhg.s 			page 2


  21:.\DSP_Class.c **** int16 soilHumArray[NBR_OF_SOILHUM_SENSORS][ARRAYSIZE];
  22:.\DSP_Class.c **** int16* soilHumPtr[NBR_OF_SOILHUM_SENSORS];
  23:.\DSP_Class.c **** int32 lightArray[ARRAYSIZE];
  24:.\DSP_Class.c **** int32* lightArrayPtr;
  25:.\DSP_Class.c **** uint8 temp, hum, soilHum[NBR_OF_SOILHUM_SENSORS], light;
  26:.\DSP_Class.c **** //----------PrivateDataMembers1----------
  27:.\DSP_Class.c **** 
  28:.\DSP_Class.c **** // Private prototypes
  29:.\DSP_Class.c **** void avgTemp(void);
  30:.\DSP_Class.c **** void avgHum(void);
  31:.\DSP_Class.c **** void avgSoilHum(uint8 index);
  32:.\DSP_Class.c **** void avgLight(void);
  33:.\DSP_Class.c **** 
  34:.\DSP_Class.c **** // Init: All datamebers are initialized with -1, meaning they are empty
  35:.\DSP_Class.c **** void initDSP(void){
  38              		.loc 1 35 0
  39              		.cfi_startproc
  40 0000 80B5     		push	{r7, lr}
  41              		.cfi_def_cfa_offset 8
  42              		.cfi_offset 7, -8
  43              		.cfi_offset 14, -4
  44 0002 82B0     		sub	sp, sp, #8
  45              		.cfi_def_cfa_offset 16
  46 0004 00AF     		add	r7, sp, #0
  47              		.cfi_def_cfa_register 7
  48              	.LBB2:
  36:.\DSP_Class.c ****     {
  37:.\DSP_Class.c ****         uint8 i;
  38:.\DSP_Class.c ****         for(i = 0 ; i<ARRAYSIZE ; i++){
  49              		.loc 1 38 0
  50 0006 FB1D     		add	r3, r7, #7
  51 0008 0022     		mov	r2, #0
  52 000a 1A70     		strb	r2, [r3]
  53 000c 34E0     		b	.L2
  54              	.L5:
  39:.\DSP_Class.c ****             tempArray[i] = EMPTY;
  55              		.loc 1 39 0
  56 000e FB1D     		add	r3, r7, #7
  57 0010 1A78     		ldrb	r2, [r3]
  58 0012 354B     		ldr	r3, .L8
  59 0014 9200     		lsl	r2, r2, #2
  60 0016 0121     		mov	r1, #1
  61 0018 4942     		neg	r1, r1
  62 001a D150     		str	r1, [r2, r3]
  40:.\DSP_Class.c ****             humArray[i] = EMPTY;
  63              		.loc 1 40 0
  64 001c FB1D     		add	r3, r7, #7
  65 001e 1A78     		ldrb	r2, [r3]
  66 0020 324B     		ldr	r3, .L8+4
  67 0022 9200     		lsl	r2, r2, #2
  68 0024 0121     		mov	r1, #1
  69 0026 4942     		neg	r1, r1
  70 0028 D150     		str	r1, [r2, r3]
  71              	.LBB3:
  41:.\DSP_Class.c ****             {
  42:.\DSP_Class.c ****                 uint8 j;
  43:.\DSP_Class.c ****                 for(j = 0 ; j<NBR_OF_SOILHUM_SENSORS ; j++){
ARM GAS  C:\Users\Philip\AppData\Local\Temp\ccuAkmhg.s 			page 3


  72              		.loc 1 43 0
  73 002a BB1D     		add	r3, r7, #6
  74 002c 0022     		mov	r2, #0
  75 002e 1A70     		strb	r2, [r3]
  76 0030 12E0     		b	.L3
  77              	.L4:
  44:.\DSP_Class.c ****                     soilHumArray[j][i] = EMPTY;
  78              		.loc 1 44 0 discriminator 2
  79 0032 BB1D     		add	r3, r7, #6
  80 0034 1A78     		ldrb	r2, [r3]
  81 0036 FB1D     		add	r3, r7, #7
  82 0038 1878     		ldrb	r0, [r3]
  83 003a 2D49     		ldr	r1, .L8+8
  84 003c 131C     		mov	r3, r2
  85 003e 9B00     		lsl	r3, r3, #2
  86 0040 9B18     		add	r3, r3, r2
  87 0042 5B00     		lsl	r3, r3, #1
  88 0044 1B18     		add	r3, r3, r0
  89 0046 5B00     		lsl	r3, r3, #1
  90 0048 0122     		mov	r2, #1
  91 004a 5242     		neg	r2, r2
  92 004c 5A52     		strh	r2, [r3, r1]
  43:.\DSP_Class.c ****                 for(j = 0 ; j<NBR_OF_SOILHUM_SENSORS ; j++){
  93              		.loc 1 43 0 discriminator 2
  94 004e BB1D     		add	r3, r7, #6
  95 0050 1A78     		ldrb	r2, [r3]
  96 0052 BB1D     		add	r3, r7, #6
  97 0054 0132     		add	r2, r2, #1
  98 0056 1A70     		strb	r2, [r3]
  99              	.L3:
  43:.\DSP_Class.c ****                 for(j = 0 ; j<NBR_OF_SOILHUM_SENSORS ; j++){
 100              		.loc 1 43 0 is_stmt 0 discriminator 1
 101 0058 BB1D     		add	r3, r7, #6
 102 005a 1B78     		ldrb	r3, [r3]
 103 005c 052B     		cmp	r3, #5
 104 005e E8D9     		bls	.L4
 105              	.LBE3:
  45:.\DSP_Class.c ****                 }
  46:.\DSP_Class.c ****             }
  47:.\DSP_Class.c ****             lightArray[i] = EMPTY;
 106              		.loc 1 47 0 is_stmt 1
 107 0060 FB1D     		add	r3, r7, #7
 108 0062 1A78     		ldrb	r2, [r3]
 109 0064 234B     		ldr	r3, .L8+12
 110 0066 9200     		lsl	r2, r2, #2
 111 0068 0121     		mov	r1, #1
 112 006a 4942     		neg	r1, r1
 113 006c D150     		str	r1, [r2, r3]
  38:.\DSP_Class.c ****         for(i = 0 ; i<ARRAYSIZE ; i++){
 114              		.loc 1 38 0
 115 006e FB1D     		add	r3, r7, #7
 116 0070 1A78     		ldrb	r2, [r3]
 117 0072 FB1D     		add	r3, r7, #7
 118 0074 0132     		add	r2, r2, #1
 119 0076 1A70     		strb	r2, [r3]
 120              	.L2:
  38:.\DSP_Class.c ****         for(i = 0 ; i<ARRAYSIZE ; i++){
ARM GAS  C:\Users\Philip\AppData\Local\Temp\ccuAkmhg.s 			page 4


 121              		.loc 1 38 0 is_stmt 0 discriminator 1
 122 0078 FB1D     		add	r3, r7, #7
 123 007a 1B78     		ldrb	r3, [r3]
 124 007c 092B     		cmp	r3, #9
 125 007e C6D9     		bls	.L5
 126              	.LBE2:
  48:.\DSP_Class.c ****             
  49:.\DSP_Class.c ****         }
  50:.\DSP_Class.c ****     }
  51:.\DSP_Class.c ****     tempArrayPtr = & tempArray[0];
 127              		.loc 1 51 0 is_stmt 1
 128 0080 1D4B     		ldr	r3, .L8+16
 129 0082 194A     		ldr	r2, .L8
 130 0084 1A60     		str	r2, [r3]
  52:.\DSP_Class.c ****     humArrayPtr = & humArray[0];
 131              		.loc 1 52 0
 132 0086 1D4B     		ldr	r3, .L8+20
 133 0088 184A     		ldr	r2, .L8+4
 134 008a 1A60     		str	r2, [r3]
 135              	.LBB4:
  53:.\DSP_Class.c ****     {
  54:.\DSP_Class.c ****         uint8 k;
  55:.\DSP_Class.c ****         for(k = 0 ; k<NBR_OF_SOILHUM_SENSORS ; k++){
 136              		.loc 1 55 0
 137 008c 7B1D     		add	r3, r7, #5
 138 008e 0022     		mov	r2, #0
 139 0090 1A70     		strb	r2, [r3]
 140 0092 16E0     		b	.L6
 141              	.L7:
  56:.\DSP_Class.c ****             soilHumPtr[k] = & soilHumArray[k][0];
 142              		.loc 1 56 0 discriminator 2
 143 0094 7B1D     		add	r3, r7, #5
 144 0096 1878     		ldrb	r0, [r3]
 145 0098 7B1D     		add	r3, r7, #5
 146 009a 1A78     		ldrb	r2, [r3]
 147 009c 131C     		mov	r3, r2
 148 009e 9B00     		lsl	r3, r3, #2
 149 00a0 9B18     		add	r3, r3, r2
 150 00a2 9B00     		lsl	r3, r3, #2
 151 00a4 124A     		ldr	r2, .L8+8
 152 00a6 9918     		add	r1, r3, r2
 153 00a8 154B     		ldr	r3, .L8+24
 154 00aa 8200     		lsl	r2, r0, #2
 155 00ac D150     		str	r1, [r2, r3]
  57:.\DSP_Class.c ****             soilHum[k] = 0; 
 156              		.loc 1 57 0 discriminator 2
 157 00ae 7B1D     		add	r3, r7, #5
 158 00b0 1B78     		ldrb	r3, [r3]
 159 00b2 144A     		ldr	r2, .L8+28
 160 00b4 0021     		mov	r1, #0
 161 00b6 D154     		strb	r1, [r2, r3]
  55:.\DSP_Class.c ****         for(k = 0 ; k<NBR_OF_SOILHUM_SENSORS ; k++){
 162              		.loc 1 55 0 discriminator 2
 163 00b8 7B1D     		add	r3, r7, #5
 164 00ba 1A78     		ldrb	r2, [r3]
 165 00bc 7B1D     		add	r3, r7, #5
 166 00be 0132     		add	r2, r2, #1
ARM GAS  C:\Users\Philip\AppData\Local\Temp\ccuAkmhg.s 			page 5


 167 00c0 1A70     		strb	r2, [r3]
 168              	.L6:
  55:.\DSP_Class.c ****         for(k = 0 ; k<NBR_OF_SOILHUM_SENSORS ; k++){
 169              		.loc 1 55 0 is_stmt 0 discriminator 1
 170 00c2 7B1D     		add	r3, r7, #5
 171 00c4 1B78     		ldrb	r3, [r3]
 172 00c6 052B     		cmp	r3, #5
 173 00c8 E4D9     		bls	.L7
 174              	.LBE4:
  58:.\DSP_Class.c ****             }
  59:.\DSP_Class.c ****     }
  60:.\DSP_Class.c ****     lightArrayPtr = & lightArray[0];
 175              		.loc 1 60 0 is_stmt 1
 176 00ca 0F4B     		ldr	r3, .L8+32
 177 00cc 094A     		ldr	r2, .L8+12
 178 00ce 1A60     		str	r2, [r3]
  61:.\DSP_Class.c ****     temp = 0;
 179              		.loc 1 61 0
 180 00d0 0E4B     		ldr	r3, .L8+36
 181 00d2 0022     		mov	r2, #0
 182 00d4 1A70     		strb	r2, [r3]
  62:.\DSP_Class.c ****     hum = 0;
 183              		.loc 1 62 0
 184 00d6 0E4B     		ldr	r3, .L8+40
 185 00d8 0022     		mov	r2, #0
 186 00da 1A70     		strb	r2, [r3]
  63:.\DSP_Class.c ****     light = 0;
 187              		.loc 1 63 0
 188 00dc 0D4B     		ldr	r3, .L8+44
 189 00de 0022     		mov	r2, #0
 190 00e0 1A70     		strb	r2, [r3]
  64:.\DSP_Class.c **** }
 191              		.loc 1 64 0
 192 00e2 BD46     		mov	sp, r7
 193 00e4 02B0     		add	sp, sp, #8
 194              		@ sp needed
 195 00e6 80BD     		pop	{r7, pc}
 196              	.L9:
 197              		.align	2
 198              	.L8:
 199 00e8 00000000 		.word	tempArray
 200 00ec 00000000 		.word	humArray
 201 00f0 00000000 		.word	soilHumArray
 202 00f4 00000000 		.word	lightArray
 203 00f8 00000000 		.word	tempArrayPtr
 204 00fc 00000000 		.word	humArrayPtr
 205 0100 00000000 		.word	soilHumPtr
 206 0104 00000000 		.word	soilHum
 207 0108 00000000 		.word	lightArrayPtr
 208 010c 00000000 		.word	temp
 209 0110 00000000 		.word	hum
 210 0114 00000000 		.word	light
 211              		.cfi_endproc
 212              	.LFE33:
 213              		.size	initDSP, .-initDSP
 214              		.section	.text.getTemp_DSP,"ax",%progbits
 215              		.align	2
ARM GAS  C:\Users\Philip\AppData\Local\Temp\ccuAkmhg.s 			page 6


 216              		.global	getTemp_DSP
 217              		.code	16
 218              		.thumb_func
 219              		.type	getTemp_DSP, %function
 220              	getTemp_DSP:
 221              	.LFB34:
  65:.\DSP_Class.c **** 
  66:.\DSP_Class.c **** //----------getTemp_DSP0----------
  67:.\DSP_Class.c **** uint8 getTemp_DSP(void){
 222              		.loc 1 67 0
 223              		.cfi_startproc
 224 0000 80B5     		push	{r7, lr}
 225              		.cfi_def_cfa_offset 8
 226              		.cfi_offset 7, -8
 227              		.cfi_offset 14, -4
 228 0002 00AF     		add	r7, sp, #0
 229              		.cfi_def_cfa_register 7
  68:.\DSP_Class.c ****     return temp;
 230              		.loc 1 68 0
 231 0004 024B     		ldr	r3, .L12
 232 0006 1B78     		ldrb	r3, [r3]
  69:.\DSP_Class.c **** }
 233              		.loc 1 69 0
 234 0008 181C     		mov	r0, r3
 235 000a BD46     		mov	sp, r7
 236              		@ sp needed
 237 000c 80BD     		pop	{r7, pc}
 238              	.L13:
 239 000e C046     		.align	2
 240              	.L12:
 241 0010 00000000 		.word	temp
 242              		.cfi_endproc
 243              	.LFE34:
 244              		.size	getTemp_DSP, .-getTemp_DSP
 245              		.section	.text.getHum_DSP,"ax",%progbits
 246              		.align	2
 247              		.global	getHum_DSP
 248              		.code	16
 249              		.thumb_func
 250              		.type	getHum_DSP, %function
 251              	getHum_DSP:
 252              	.LFB35:
  70:.\DSP_Class.c **** //----------getTemp_DSP1----------
  71:.\DSP_Class.c **** 
  72:.\DSP_Class.c **** uint8 getHum_DSP(void){
 253              		.loc 1 72 0
 254              		.cfi_startproc
 255 0000 80B5     		push	{r7, lr}
 256              		.cfi_def_cfa_offset 8
 257              		.cfi_offset 7, -8
 258              		.cfi_offset 14, -4
 259 0002 00AF     		add	r7, sp, #0
 260              		.cfi_def_cfa_register 7
  73:.\DSP_Class.c ****     return hum;
 261              		.loc 1 73 0
 262 0004 024B     		ldr	r3, .L16
 263 0006 1B78     		ldrb	r3, [r3]
ARM GAS  C:\Users\Philip\AppData\Local\Temp\ccuAkmhg.s 			page 7


  74:.\DSP_Class.c **** }
 264              		.loc 1 74 0
 265 0008 181C     		mov	r0, r3
 266 000a BD46     		mov	sp, r7
 267              		@ sp needed
 268 000c 80BD     		pop	{r7, pc}
 269              	.L17:
 270 000e C046     		.align	2
 271              	.L16:
 272 0010 00000000 		.word	hum
 273              		.cfi_endproc
 274              	.LFE35:
 275              		.size	getHum_DSP, .-getHum_DSP
 276              		.section	.text.getSoilHum_DSP,"ax",%progbits
 277              		.align	2
 278              		.global	getSoilHum_DSP
 279              		.code	16
 280              		.thumb_func
 281              		.type	getSoilHum_DSP, %function
 282              	getSoilHum_DSP:
 283              	.LFB36:
  75:.\DSP_Class.c **** 
  76:.\DSP_Class.c **** uint8 getSoilHum_DSP(uint8 index){
 284              		.loc 1 76 0
 285              		.cfi_startproc
 286 0000 80B5     		push	{r7, lr}
 287              		.cfi_def_cfa_offset 8
 288              		.cfi_offset 7, -8
 289              		.cfi_offset 14, -4
 290 0002 82B0     		sub	sp, sp, #8
 291              		.cfi_def_cfa_offset 16
 292 0004 00AF     		add	r7, sp, #0
 293              		.cfi_def_cfa_register 7
 294 0006 021C     		mov	r2, r0
 295 0008 FB1D     		add	r3, r7, #7
 296 000a 1A70     		strb	r2, [r3]
  77:.\DSP_Class.c ****     return soilHum[index];
 297              		.loc 1 77 0
 298 000c FB1D     		add	r3, r7, #7
 299 000e 1B78     		ldrb	r3, [r3]
 300 0010 024A     		ldr	r2, .L20
 301 0012 D35C     		ldrb	r3, [r2, r3]
  78:.\DSP_Class.c **** }
 302              		.loc 1 78 0
 303 0014 181C     		mov	r0, r3
 304 0016 BD46     		mov	sp, r7
 305 0018 02B0     		add	sp, sp, #8
 306              		@ sp needed
 307 001a 80BD     		pop	{r7, pc}
 308              	.L21:
 309              		.align	2
 310              	.L20:
 311 001c 00000000 		.word	soilHum
 312              		.cfi_endproc
 313              	.LFE36:
 314              		.size	getSoilHum_DSP, .-getSoilHum_DSP
 315              		.section	.text.getLight_DSP,"ax",%progbits
ARM GAS  C:\Users\Philip\AppData\Local\Temp\ccuAkmhg.s 			page 8


 316              		.align	2
 317              		.global	getLight_DSP
 318              		.code	16
 319              		.thumb_func
 320              		.type	getLight_DSP, %function
 321              	getLight_DSP:
 322              	.LFB37:
  79:.\DSP_Class.c **** 
  80:.\DSP_Class.c **** uint8 getLight_DSP(void){
 323              		.loc 1 80 0
 324              		.cfi_startproc
 325 0000 80B5     		push	{r7, lr}
 326              		.cfi_def_cfa_offset 8
 327              		.cfi_offset 7, -8
 328              		.cfi_offset 14, -4
 329 0002 00AF     		add	r7, sp, #0
 330              		.cfi_def_cfa_register 7
  81:.\DSP_Class.c ****     return light;
 331              		.loc 1 81 0
 332 0004 024B     		ldr	r3, .L24
 333 0006 1B78     		ldrb	r3, [r3]
  82:.\DSP_Class.c **** }
 334              		.loc 1 82 0
 335 0008 181C     		mov	r0, r3
 336 000a BD46     		mov	sp, r7
 337              		@ sp needed
 338 000c 80BD     		pop	{r7, pc}
 339              	.L25:
 340 000e C046     		.align	2
 341              	.L24:
 342 0010 00000000 		.word	light
 343              		.cfi_endproc
 344              	.LFE37:
 345              		.size	getLight_DSP, .-getLight_DSP
 346              		.global	__aeabi_ldivmod
 347              		.section	.text.avgTemp,"ax",%progbits
 348              		.align	2
 349              		.global	avgTemp
 350              		.code	16
 351              		.thumb_func
 352              		.type	avgTemp, %function
 353              	avgTemp:
 354              	.LFB38:
  83:.\DSP_Class.c **** 
  84:.\DSP_Class.c **** //----------avgTemp0----------
  85:.\DSP_Class.c **** void avgTemp(void){
 355              		.loc 1 85 0
 356              		.cfi_startproc
 357 0000 F0B5     		push	{r4, r5, r6, r7, lr}
 358              		.cfi_def_cfa_offset 20
 359              		.cfi_offset 4, -20
 360              		.cfi_offset 5, -16
 361              		.cfi_offset 6, -12
 362              		.cfi_offset 7, -8
 363              		.cfi_offset 14, -4
 364 0002 87B0     		sub	sp, sp, #28
 365              		.cfi_def_cfa_offset 48
ARM GAS  C:\Users\Philip\AppData\Local\Temp\ccuAkmhg.s 			page 9


 366 0004 00AF     		add	r7, sp, #0
 367              		.cfi_def_cfa_register 7
  86:.\DSP_Class.c ****     uint8 skip = 0;
 368              		.loc 1 86 0
 369 0006 381C     		mov	r0, r7
 370 0008 1730     		add	r0, r0, #23
 371 000a 0025     		mov	r5, #0
 372 000c 0570     		strb	r5, [r0]
  87:.\DSP_Class.c ****     int64 total = 0;
 373              		.loc 1 87 0
 374 000e 0025     		mov	r5, #0
 375 0010 0026     		mov	r6, #0
 376 0012 BD60     		str	r5, [r7, #8]
 377 0014 FE60     		str	r6, [r7, #12]
 378              	.LBB5:
  88:.\DSP_Class.c ****     {
  89:.\DSP_Class.c ****         uint8 i;
  90:.\DSP_Class.c ****         for(i = 0 ; i<ARRAYSIZE ; i++){
 379              		.loc 1 90 0
 380 0016 F81D     		add	r0, r7, #7
 381 0018 0025     		mov	r5, #0
 382 001a 0570     		strb	r5, [r0]
 383 001c 21E0     		b	.L27
 384              	.L30:
  91:.\DSP_Class.c ****             if(tempArray[i]>=0){
 385              		.loc 1 91 0
 386 001e F81D     		add	r0, r7, #7
 387 0020 0578     		ldrb	r5, [r0]
 388 0022 2B48     		ldr	r0, .L36
 389 0024 AD00     		lsl	r5, r5, #2
 390 0026 2858     		ldr	r0, [r5, r0]
 391 0028 0028     		cmp	r0, #0
 392 002a 0EDB     		blt	.L28
  92:.\DSP_Class.c ****                 total += tempArray[i];
 393              		.loc 1 92 0
 394 002c F81D     		add	r0, r7, #7
 395 002e 0578     		ldrb	r5, [r0]
 396 0030 2748     		ldr	r0, .L36
 397 0032 AD00     		lsl	r5, r5, #2
 398 0034 2858     		ldr	r0, [r5, r0]
 399 0036 011C     		mov	r1, r0
 400 0038 C017     		asr	r0, r0, #31
 401 003a 021C     		mov	r2, r0
 402 003c BD68     		ldr	r5, [r7, #8]
 403 003e FE68     		ldr	r6, [r7, #12]
 404 0040 6D18     		add	r5, r5, r1
 405 0042 5641     		adc	r6, r6, r2
 406 0044 BD60     		str	r5, [r7, #8]
 407 0046 FE60     		str	r6, [r7, #12]
 408 0048 06E0     		b	.L29
 409              	.L28:
  93:.\DSP_Class.c ****             }
  94:.\DSP_Class.c ****             else{
  95:.\DSP_Class.c ****                 skip++;
 410              		.loc 1 95 0
 411 004a 381C     		mov	r0, r7
 412 004c 1730     		add	r0, r0, #23
ARM GAS  C:\Users\Philip\AppData\Local\Temp\ccuAkmhg.s 			page 10


 413 004e 0578     		ldrb	r5, [r0]
 414 0050 381C     		mov	r0, r7
 415 0052 1730     		add	r0, r0, #23
 416 0054 0135     		add	r5, r5, #1
 417 0056 0570     		strb	r5, [r0]
 418              	.L29:
  90:.\DSP_Class.c ****         for(i = 0 ; i<ARRAYSIZE ; i++){
 419              		.loc 1 90 0
 420 0058 F81D     		add	r0, r7, #7
 421 005a 0578     		ldrb	r5, [r0]
 422 005c F81D     		add	r0, r7, #7
 423 005e 0135     		add	r5, r5, #1
 424 0060 0570     		strb	r5, [r0]
 425              	.L27:
  90:.\DSP_Class.c ****         for(i = 0 ; i<ARRAYSIZE ; i++){
 426              		.loc 1 90 0 is_stmt 0 discriminator 1
 427 0062 F81D     		add	r0, r7, #7
 428 0064 0078     		ldrb	r0, [r0]
 429 0066 0928     		cmp	r0, #9
 430 0068 D9D9     		bls	.L30
 431              	.LBE5:
  96:.\DSP_Class.c ****             }
  97:.\DSP_Class.c ****         }
  98:.\DSP_Class.c ****     }
  99:.\DSP_Class.c ****     // Makes sure that enough datapoints are pressent
 100:.\DSP_Class.c ****     if(ARRAYSIZE-skip>=NMR_OF_VALID_DATAPOINTS_NEEDED){    
 432              		.loc 1 100 0 is_stmt 1
 433 006a 3A1C     		mov	r2, r7
 434 006c 1732     		add	r2, r2, #23
 435 006e 1278     		ldrb	r2, [r2]
 436 0070 0A21     		mov	r1, #10
 437 0072 8A1A     		sub	r2, r1, r2
 438 0074 092A     		cmp	r2, #9
 439 0076 24DD     		ble	.L31
 440              	.LBB6:
 101:.\DSP_Class.c ****         int32 avg = total/(ARRAYSIZE-skip);     // Calculate the average value
 441              		.loc 1 101 0
 442 0078 3A1C     		mov	r2, r7
 443 007a 1732     		add	r2, r2, #23
 444 007c 1278     		ldrb	r2, [r2]
 445 007e 0A21     		mov	r1, #10
 446 0080 8A1A     		sub	r2, r1, r2
 447 0082 131C     		mov	r3, r2
 448 0084 D217     		asr	r2, r2, #31
 449 0086 141C     		mov	r4, r2
 450 0088 B868     		ldr	r0, [r7, #8]
 451 008a F968     		ldr	r1, [r7, #12]
 452 008c 1A1C     		mov	r2, r3
 453 008e 231C     		mov	r3, r4
 454 0090 FFF7FEFF 		bl	__aeabi_ldivmod
 455 0094 031C     		mov	r3, r0
 456 0096 0C1C     		mov	r4, r1
 457 0098 3B60     		str	r3, [r7]
 102:.\DSP_Class.c ****         
 103:.\DSP_Class.c ****         // temp is limited to 1 and 200
 104:.\DSP_Class.c ****         if (avg>200){
 458              		.loc 1 104 0
ARM GAS  C:\Users\Philip\AppData\Local\Temp\ccuAkmhg.s 			page 11


 459 009a 3B68     		ldr	r3, [r7]
 460 009c C82B     		cmp	r3, #200
 461 009e 03DD     		ble	.L32
 105:.\DSP_Class.c ****             temp = 200;
 462              		.loc 1 105 0
 463 00a0 0C4B     		ldr	r3, .L36+4
 464 00a2 C822     		mov	r2, #200
 465 00a4 1A70     		strb	r2, [r3]
 466 00a6 0BE0     		b	.L33
 467              	.L32:
 106:.\DSP_Class.c ****         }
 107:.\DSP_Class.c ****         else if (avg < 1){
 468              		.loc 1 107 0
 469 00a8 3B68     		ldr	r3, [r7]
 470 00aa 002B     		cmp	r3, #0
 471 00ac 03DC     		bgt	.L34
 108:.\DSP_Class.c ****             temp = 1;
 472              		.loc 1 108 0
 473 00ae 094B     		ldr	r3, .L36+4
 474 00b0 0122     		mov	r2, #1
 475 00b2 1A70     		strb	r2, [r3]
 476 00b4 04E0     		b	.L33
 477              	.L34:
 109:.\DSP_Class.c ****         }
 110:.\DSP_Class.c ****         else{
 111:.\DSP_Class.c ****             temp = (uint8)avg;
 478              		.loc 1 111 0
 479 00b6 3B68     		ldr	r3, [r7]
 480 00b8 DAB2     		uxtb	r2, r3
 481 00ba 064B     		ldr	r3, .L36+4
 482 00bc 1A70     		strb	r2, [r3]
 483              	.LBE6:
 484 00be 03E0     		b	.L26
 485              	.L33:
 486 00c0 02E0     		b	.L26
 487              	.L31:
 112:.\DSP_Class.c ****         }
 113:.\DSP_Class.c ****     }
 114:.\DSP_Class.c ****     else{
 115:.\DSP_Class.c ****         temp = 0;
 488              		.loc 1 115 0
 489 00c2 044B     		ldr	r3, .L36+4
 490 00c4 0022     		mov	r2, #0
 491 00c6 1A70     		strb	r2, [r3]
 492              	.L26:
 116:.\DSP_Class.c ****     }
 117:.\DSP_Class.c **** }
 493              		.loc 1 117 0
 494 00c8 BD46     		mov	sp, r7
 495 00ca 07B0     		add	sp, sp, #28
 496              		@ sp needed
 497 00cc F0BD     		pop	{r4, r5, r6, r7, pc}
 498              	.L37:
 499 00ce C046     		.align	2
 500              	.L36:
 501 00d0 00000000 		.word	tempArray
 502 00d4 00000000 		.word	temp
ARM GAS  C:\Users\Philip\AppData\Local\Temp\ccuAkmhg.s 			page 12


 503              		.cfi_endproc
 504              	.LFE38:
 505              		.size	avgTemp, .-avgTemp
 506              		.global	__aeabi_l2f
 507              		.global	__aeabi_fdiv
 508              		.global	__aeabi_fmul
 509              		.global	__aeabi_fcmple
 510              		.global	__aeabi_fcmpgt
 511              		.global	__aeabi_f2uiz
 512              		.section	.text.avgHum,"ax",%progbits
 513              		.align	2
 514              		.global	avgHum
 515              		.code	16
 516              		.thumb_func
 517              		.type	avgHum, %function
 518              	avgHum:
 519              	.LFB39:
 118:.\DSP_Class.c **** //----------avgTemp1----------
 119:.\DSP_Class.c **** 
 120:.\DSP_Class.c **** void avgHum(void){
 520              		.loc 1 120 0
 521              		.cfi_startproc
 522 0000 F0B5     		push	{r4, r5, r6, r7, lr}
 523              		.cfi_def_cfa_offset 20
 524              		.cfi_offset 4, -20
 525              		.cfi_offset 5, -16
 526              		.cfi_offset 6, -12
 527              		.cfi_offset 7, -8
 528              		.cfi_offset 14, -4
 529 0002 89B0     		sub	sp, sp, #36
 530              		.cfi_def_cfa_offset 56
 531 0004 00AF     		add	r7, sp, #0
 532              		.cfi_def_cfa_register 7
 121:.\DSP_Class.c ****     uint8 skip = 0;
 533              		.loc 1 121 0
 534 0006 381C     		mov	r0, r7
 535 0008 1F30     		add	r0, r0, #31
 536 000a 0025     		mov	r5, #0
 537 000c 0570     		strb	r5, [r0]
 122:.\DSP_Class.c ****     int64 total = 0;
 538              		.loc 1 122 0
 539 000e 0025     		mov	r5, #0
 540 0010 0026     		mov	r6, #0
 541 0012 3D61     		str	r5, [r7, #16]
 542 0014 7E61     		str	r6, [r7, #20]
 543              	.LBB7:
 123:.\DSP_Class.c ****     {
 124:.\DSP_Class.c ****         uint8 i;
 125:.\DSP_Class.c ****         for(i = 0 ; i<ARRAYSIZE ; i++){
 544              		.loc 1 125 0
 545 0016 381C     		mov	r0, r7
 546 0018 0F30     		add	r0, r0, #15
 547 001a 0025     		mov	r5, #0
 548 001c 0570     		strb	r5, [r0]
 549 001e 25E0     		b	.L39
 550              	.L42:
 126:.\DSP_Class.c ****             if(humArray[i]>=0){
ARM GAS  C:\Users\Philip\AppData\Local\Temp\ccuAkmhg.s 			page 13


 551              		.loc 1 126 0
 552 0020 381C     		mov	r0, r7
 553 0022 0F30     		add	r0, r0, #15
 554 0024 0578     		ldrb	r5, [r0]
 555 0026 3A48     		ldr	r0, .L54
 556 0028 AD00     		lsl	r5, r5, #2
 557 002a 2858     		ldr	r0, [r5, r0]
 558 002c 0028     		cmp	r0, #0
 559 002e 0FDB     		blt	.L40
 127:.\DSP_Class.c ****                 total += humArray[i];
 560              		.loc 1 127 0
 561 0030 381C     		mov	r0, r7
 562 0032 0F30     		add	r0, r0, #15
 563 0034 0578     		ldrb	r5, [r0]
 564 0036 3648     		ldr	r0, .L54
 565 0038 AD00     		lsl	r5, r5, #2
 566 003a 2858     		ldr	r0, [r5, r0]
 567 003c 011C     		mov	r1, r0
 568 003e C017     		asr	r0, r0, #31
 569 0040 021C     		mov	r2, r0
 570 0042 3D69     		ldr	r5, [r7, #16]
 571 0044 7E69     		ldr	r6, [r7, #20]
 572 0046 6D18     		add	r5, r5, r1
 573 0048 5641     		adc	r6, r6, r2
 574 004a 3D61     		str	r5, [r7, #16]
 575 004c 7E61     		str	r6, [r7, #20]
 576 004e 06E0     		b	.L41
 577              	.L40:
 128:.\DSP_Class.c ****             }
 129:.\DSP_Class.c ****             else{
 130:.\DSP_Class.c ****                 skip++;
 578              		.loc 1 130 0
 579 0050 381C     		mov	r0, r7
 580 0052 1F30     		add	r0, r0, #31
 581 0054 0578     		ldrb	r5, [r0]
 582 0056 381C     		mov	r0, r7
 583 0058 1F30     		add	r0, r0, #31
 584 005a 0135     		add	r5, r5, #1
 585 005c 0570     		strb	r5, [r0]
 586              	.L41:
 125:.\DSP_Class.c ****         for(i = 0 ; i<ARRAYSIZE ; i++){
 587              		.loc 1 125 0
 588 005e 381C     		mov	r0, r7
 589 0060 0F30     		add	r0, r0, #15
 590 0062 0578     		ldrb	r5, [r0]
 591 0064 381C     		mov	r0, r7
 592 0066 0F30     		add	r0, r0, #15
 593 0068 0135     		add	r5, r5, #1
 594 006a 0570     		strb	r5, [r0]
 595              	.L39:
 125:.\DSP_Class.c ****         for(i = 0 ; i<ARRAYSIZE ; i++){
 596              		.loc 1 125 0 is_stmt 0 discriminator 1
 597 006c 381C     		mov	r0, r7
 598 006e 0F30     		add	r0, r0, #15
 599 0070 0078     		ldrb	r0, [r0]
 600 0072 0928     		cmp	r0, #9
 601 0074 D4D9     		bls	.L42
ARM GAS  C:\Users\Philip\AppData\Local\Temp\ccuAkmhg.s 			page 14


 602              	.LBE7:
 131:.\DSP_Class.c ****             }
 132:.\DSP_Class.c ****         }
 133:.\DSP_Class.c ****     }
 134:.\DSP_Class.c ****     // Makes sure that enough datapoits are pressent
 135:.\DSP_Class.c ****     if(ARRAYSIZE-skip>=NMR_OF_VALID_DATAPOINTS_NEEDED){    
 603              		.loc 1 135 0 is_stmt 1
 604 0076 3A1C     		mov	r2, r7
 605 0078 1F32     		add	r2, r2, #31
 606 007a 1278     		ldrb	r2, [r2]
 607 007c 0A21     		mov	r1, #10
 608 007e 8A1A     		sub	r2, r1, r2
 609 0080 092A     		cmp	r2, #9
 610 0082 3EDD     		ble	.L43
 611              	.LBB8:
 136:.\DSP_Class.c ****         float avg = total/(ARRAYSIZE-skip);                     // Calculate the average value
 612              		.loc 1 136 0
 613 0084 3A1C     		mov	r2, r7
 614 0086 1F32     		add	r2, r2, #31
 615 0088 1278     		ldrb	r2, [r2]
 616 008a 0A21     		mov	r1, #10
 617 008c 8A1A     		sub	r2, r1, r2
 618 008e 131C     		mov	r3, r2
 619 0090 D217     		asr	r2, r2, #31
 620 0092 141C     		mov	r4, r2
 621 0094 3869     		ldr	r0, [r7, #16]
 622 0096 7969     		ldr	r1, [r7, #20]
 623 0098 1A1C     		mov	r2, r3
 624 009a 231C     		mov	r3, r4
 625 009c FFF7FEFF 		bl	__aeabi_ldivmod
 626 00a0 031C     		mov	r3, r0
 627 00a2 0C1C     		mov	r4, r1
 628 00a4 181C     		mov	r0, r3
 629 00a6 211C     		mov	r1, r4
 630 00a8 FFF7FEFF 		bl	__aeabi_l2f
 631 00ac 031C     		add	r3, r0, #0
 632 00ae BB60     		str	r3, [r7, #8]
 137:.\DSP_Class.c ****         float humInRH = (avg/(16380-2))*100;                // Conversion formula from datasheet
 633              		.loc 1 137 0
 634 00b0 B868     		ldr	r0, [r7, #8]
 635 00b2 1849     		ldr	r1, .L54+4
 636 00b4 FFF7FEFF 		bl	__aeabi_fdiv
 637 00b8 031C     		add	r3, r0, #0
 638 00ba 181C     		add	r0, r3, #0
 639 00bc 1649     		ldr	r1, .L54+8
 640 00be FFF7FEFF 		bl	__aeabi_fmul
 641 00c2 031C     		add	r3, r0, #0
 642 00c4 7B60     		str	r3, [r7, #4]
 138:.\DSP_Class.c ****         
 139:.\DSP_Class.c ****         // humInRH is limited to 1 and 100 RH
 140:.\DSP_Class.c ****         if(humInRH <= 0){
 643              		.loc 1 140 0
 644 00c6 7868     		ldr	r0, [r7, #4]
 645 00c8 0021     		mov	r1, #0
 646 00ca FFF7FEFF 		bl	__aeabi_fcmple
 647 00ce 031C     		mov	r3, r0
 648 00d0 002B     		cmp	r3, #0
ARM GAS  C:\Users\Philip\AppData\Local\Temp\ccuAkmhg.s 			page 15


 649 00d2 03D0     		beq	.L52
 141:.\DSP_Class.c ****             humInRH = 1;
 650              		.loc 1 141 0
 651 00d4 FE23     		mov	r3, #254
 652 00d6 9B05     		lsl	r3, r3, #22
 653 00d8 7B60     		str	r3, [r7, #4]
 654 00da 11E0     		b	.L46
 655              	.L52:
 142:.\DSP_Class.c ****         }
 143:.\DSP_Class.c ****         else if(humInRH > 100){
 656              		.loc 1 143 0
 657 00dc 7868     		ldr	r0, [r7, #4]
 658 00de 0E49     		ldr	r1, .L54+8
 659 00e0 FFF7FEFF 		bl	__aeabi_fcmpgt
 660 00e4 031C     		mov	r3, r0
 661 00e6 002B     		cmp	r3, #0
 662 00e8 02D0     		beq	.L53
 144:.\DSP_Class.c ****             humInRH = 100;
 663              		.loc 1 144 0
 664 00ea 0B4B     		ldr	r3, .L54+8
 665 00ec 7B60     		str	r3, [r7, #4]
 666 00ee 07E0     		b	.L46
 667              	.L53:
 145:.\DSP_Class.c ****         }
 146:.\DSP_Class.c ****         else{
 147:.\DSP_Class.c ****             hum = humInRH;
 668              		.loc 1 147 0
 669 00f0 7868     		ldr	r0, [r7, #4]
 670 00f2 FFF7FEFF 		bl	__aeabi_f2uiz
 671 00f6 031C     		mov	r3, r0
 672 00f8 DAB2     		uxtb	r2, r3
 673 00fa 084B     		ldr	r3, .L54+12
 674 00fc 1A70     		strb	r2, [r3]
 675              	.LBE8:
 676 00fe 03E0     		b	.L38
 677              	.L46:
 678 0100 02E0     		b	.L38
 679              	.L43:
 148:.\DSP_Class.c ****         }
 149:.\DSP_Class.c ****     }
 150:.\DSP_Class.c ****     else{
 151:.\DSP_Class.c ****     hum = 0;
 680              		.loc 1 151 0
 681 0102 064B     		ldr	r3, .L54+12
 682 0104 0022     		mov	r2, #0
 683 0106 1A70     		strb	r2, [r3]
 684              	.L38:
 152:.\DSP_Class.c ****     }
 153:.\DSP_Class.c **** }
 685              		.loc 1 153 0
 686 0108 BD46     		mov	sp, r7
 687 010a 09B0     		add	sp, sp, #36
 688              		@ sp needed
 689 010c F0BD     		pop	{r4, r5, r6, r7, pc}
 690              	.L55:
 691 010e C046     		.align	2
 692              	.L54:
ARM GAS  C:\Users\Philip\AppData\Local\Temp\ccuAkmhg.s 			page 16


 693 0110 00000000 		.word	humArray
 694 0114 00E87F46 		.word	1182787584
 695 0118 0000C842 		.word	1120403456
 696 011c 00000000 		.word	hum
 697              		.cfi_endproc
 698              	.LFE39:
 699              		.size	avgHum, .-avgHum
 700              		.global	__aeabi_uidiv
 701              		.section	.text.avgSoilHum,"ax",%progbits
 702              		.align	2
 703              		.global	avgSoilHum
 704              		.code	16
 705              		.thumb_func
 706              		.type	avgSoilHum, %function
 707              	avgSoilHum:
 708              	.LFB40:
 154:.\DSP_Class.c **** 
 155:.\DSP_Class.c **** void avgSoilHum(uint8 index){
 709              		.loc 1 155 0
 710              		.cfi_startproc
 711 0000 F0B5     		push	{r4, r5, r6, r7, lr}
 712              		.cfi_def_cfa_offset 20
 713              		.cfi_offset 4, -20
 714              		.cfi_offset 5, -16
 715              		.cfi_offset 6, -12
 716              		.cfi_offset 7, -8
 717              		.cfi_offset 14, -4
 718 0002 93B0     		sub	sp, sp, #76
 719              		.cfi_def_cfa_offset 96
 720 0004 00AF     		add	r7, sp, #0
 721              		.cfi_def_cfa_register 7
 722 0006 3B1C     		mov	r3, r7
 723 0008 2733     		add	r3, r3, #39
 724 000a 1870     		strb	r0, [r3]
 156:.\DSP_Class.c ****     uint8 skip = 0;
 725              		.loc 1 156 0
 726 000c 3B1C     		mov	r3, r7
 727 000e 4733     		add	r3, r3, #71
 728 0010 0020     		mov	r0, #0
 729 0012 1870     		strb	r0, [r3]
 157:.\DSP_Class.c ****     int64 total = 0;
 730              		.loc 1 157 0
 731 0014 0023     		mov	r3, #0
 732 0016 0024     		mov	r4, #0
 733 0018 BB61     		str	r3, [r7, #24]
 734 001a FC61     		str	r4, [r7, #28]
 735 001c BB69     		ldr	r3, [r7, #24]
 736 001e FC69     		ldr	r4, [r7, #28]
 737 0020 BB63     		str	r3, [r7, #56]
 738 0022 FC63     		str	r4, [r7, #60]
 739              	.LBB9:
 158:.\DSP_Class.c ****     {
 159:.\DSP_Class.c ****         uint8 i;
 160:.\DSP_Class.c ****         for(i = 0 ; i<ARRAYSIZE ; i++){
 740              		.loc 1 160 0
 741 0024 3B1C     		mov	r3, r7
 742 0026 3733     		add	r3, r3, #55
ARM GAS  C:\Users\Philip\AppData\Local\Temp\ccuAkmhg.s 			page 17


 743 0028 0020     		mov	r0, #0
 744 002a 1870     		strb	r0, [r3]
 745 002c 41E0     		b	.L57
 746              	.L60:
 161:.\DSP_Class.c ****             if(soilHumArray[index][i]>=0){
 747              		.loc 1 161 0
 748 002e 3B1C     		mov	r3, r7
 749 0030 2733     		add	r3, r3, #39
 750 0032 1878     		ldrb	r0, [r3]
 751 0034 3B1C     		mov	r3, r7
 752 0036 3733     		add	r3, r3, #55
 753 0038 1B78     		ldrb	r3, [r3]
 754 003a 9C46     		mov	ip, r3
 755 003c 464E     		ldr	r6, .L70
 756 003e 031C     		mov	r3, r0
 757 0040 9B00     		lsl	r3, r3, #2
 758 0042 1B18     		add	r3, r3, r0
 759 0044 5B00     		lsl	r3, r3, #1
 760 0046 6344     		add	r3, r3, ip
 761 0048 5B00     		lsl	r3, r3, #1
 762 004a 9B5B     		ldrh	r3, [r3, r6]
 763 004c 1BB2     		sxth	r3, r3
 764 004e 002B     		cmp	r3, #0
 765 0050 21DB     		blt	.L58
 162:.\DSP_Class.c ****                 total += soilHumArray[index][i];
 766              		.loc 1 162 0
 767 0052 3B1C     		mov	r3, r7
 768 0054 2733     		add	r3, r3, #39
 769 0056 1878     		ldrb	r0, [r3]
 770 0058 3B1C     		mov	r3, r7
 771 005a 3733     		add	r3, r3, #55
 772 005c 1B78     		ldrb	r3, [r3]
 773 005e 9C46     		mov	ip, r3
 774 0060 3D4E     		ldr	r6, .L70
 775 0062 031C     		mov	r3, r0
 776 0064 9B00     		lsl	r3, r3, #2
 777 0066 1B18     		add	r3, r3, r0
 778 0068 5B00     		lsl	r3, r3, #1
 779 006a 6344     		add	r3, r3, ip
 780 006c 5B00     		lsl	r3, r3, #1
 781 006e 9B5B     		ldrh	r3, [r3, r6]
 782 0070 1BB2     		sxth	r3, r3
 783 0072 191C     		mov	r1, r3
 784 0074 DB17     		asr	r3, r3, #31
 785 0076 1A1C     		mov	r2, r3
 786 0078 BB6B     		ldr	r3, [r7, #56]
 787 007a FC6B     		ldr	r4, [r7, #60]
 788 007c BB60     		str	r3, [r7, #8]
 789 007e FC60     		str	r4, [r7, #12]
 790 0080 BB68     		ldr	r3, [r7, #8]
 791 0082 FC68     		ldr	r4, [r7, #12]
 792 0084 5B18     		add	r3, r3, r1
 793 0086 5441     		adc	r4, r4, r2
 794 0088 3B61     		str	r3, [r7, #16]
 795 008a 7C61     		str	r4, [r7, #20]
 796 008c 3B69     		ldr	r3, [r7, #16]
 797 008e 7C69     		ldr	r4, [r7, #20]
ARM GAS  C:\Users\Philip\AppData\Local\Temp\ccuAkmhg.s 			page 18


 798 0090 BB63     		str	r3, [r7, #56]
 799 0092 FC63     		str	r4, [r7, #60]
 800 0094 06E0     		b	.L59
 801              	.L58:
 163:.\DSP_Class.c ****             }
 164:.\DSP_Class.c ****             else{
 165:.\DSP_Class.c ****                 skip++;
 802              		.loc 1 165 0
 803 0096 3B1C     		mov	r3, r7
 804 0098 4733     		add	r3, r3, #71
 805 009a 1878     		ldrb	r0, [r3]
 806 009c 3B1C     		mov	r3, r7
 807 009e 4733     		add	r3, r3, #71
 808 00a0 0130     		add	r0, r0, #1
 809 00a2 1870     		strb	r0, [r3]
 810              	.L59:
 160:.\DSP_Class.c ****         for(i = 0 ; i<ARRAYSIZE ; i++){
 811              		.loc 1 160 0
 812 00a4 3B1C     		mov	r3, r7
 813 00a6 3733     		add	r3, r3, #55
 814 00a8 1878     		ldrb	r0, [r3]
 815 00aa 3B1C     		mov	r3, r7
 816 00ac 3733     		add	r3, r3, #55
 817 00ae 0130     		add	r0, r0, #1
 818 00b0 1870     		strb	r0, [r3]
 819              	.L57:
 160:.\DSP_Class.c ****         for(i = 0 ; i<ARRAYSIZE ; i++){
 820              		.loc 1 160 0 is_stmt 0 discriminator 1
 821 00b2 3B1C     		mov	r3, r7
 822 00b4 3733     		add	r3, r3, #55
 823 00b6 1B78     		ldrb	r3, [r3]
 824 00b8 092B     		cmp	r3, #9
 825 00ba B8D9     		bls	.L60
 826              	.LBE9:
 166:.\DSP_Class.c ****             }
 167:.\DSP_Class.c ****         }
 168:.\DSP_Class.c ****     }
 169:.\DSP_Class.c ****     // Makes sure that enough datapoits are pressent
 170:.\DSP_Class.c ****     if(ARRAYSIZE-skip>=NMR_OF_VALID_DATAPOINTS_NEEDED){    
 827              		.loc 1 170 0 is_stmt 1
 828 00bc 3B1C     		mov	r3, r7
 829 00be 4733     		add	r3, r3, #71
 830 00c0 1B78     		ldrb	r3, [r3]
 831 00c2 0A22     		mov	r2, #10
 832 00c4 D31A     		sub	r3, r2, r3
 833 00c6 092B     		cmp	r3, #9
 834 00c8 3CDD     		ble	.L61
 835              	.LBB10:
 171:.\DSP_Class.c ****         float avg = total/(ARRAYSIZE-skip);         // Calculate the average value (assuming input 
 836              		.loc 1 171 0
 837 00ca 3B1C     		mov	r3, r7
 838 00cc 4733     		add	r3, r3, #71
 839 00ce 1B78     		ldrb	r3, [r3]
 840 00d0 0A22     		mov	r2, #10
 841 00d2 D31A     		sub	r3, r2, r3
 842 00d4 3B60     		str	r3, [r7]
 843 00d6 DB17     		asr	r3, r3, #31
ARM GAS  C:\Users\Philip\AppData\Local\Temp\ccuAkmhg.s 			page 19


 844 00d8 7B60     		str	r3, [r7, #4]
 845 00da B86B     		ldr	r0, [r7, #56]
 846 00dc F96B     		ldr	r1, [r7, #60]
 847 00de 3A68     		ldr	r2, [r7]
 848 00e0 7B68     		ldr	r3, [r7, #4]
 849 00e2 FFF7FEFF 		bl	__aeabi_ldivmod
 850 00e6 031C     		mov	r3, r0
 851 00e8 0C1C     		mov	r4, r1
 852 00ea 181C     		mov	r0, r3
 853 00ec 211C     		mov	r1, r4
 854 00ee FFF7FEFF 		bl	__aeabi_l2f
 855 00f2 031C     		add	r3, r0, #0
 856 00f4 FB62     		str	r3, [r7, #44]
 172:.\DSP_Class.c ****         float soilHumInRH = avg;                    // Takes care of conversion ( NB no conversion 
 857              		.loc 1 172 0
 858 00f6 FB6A     		ldr	r3, [r7, #44]
 859 00f8 3B63     		str	r3, [r7, #48]
 173:.\DSP_Class.c ****         
 174:.\DSP_Class.c ****         // soilHumInRH is limited to 1 and 100 RH
 175:.\DSP_Class.c ****         if(soilHumInRH <= 0){
 860              		.loc 1 175 0
 861 00fa 386B     		ldr	r0, [r7, #48]
 862 00fc 0021     		mov	r1, #0
 863 00fe FFF7FEFF 		bl	__aeabi_fcmple
 864 0102 031C     		mov	r3, r0
 865 0104 002B     		cmp	r3, #0
 866 0106 03D0     		beq	.L69
 176:.\DSP_Class.c ****             soilHumInRH = 1;
 867              		.loc 1 176 0
 868 0108 FE23     		mov	r3, #254
 869 010a 9B05     		lsl	r3, r3, #22
 870 010c 3B63     		str	r3, [r7, #48]
 871 010e 08E0     		b	.L64
 872              	.L69:
 177:.\DSP_Class.c ****         }
 178:.\DSP_Class.c ****         else if(soilHumInRH > 100){
 873              		.loc 1 178 0
 874 0110 386B     		ldr	r0, [r7, #48]
 875 0112 1249     		ldr	r1, .L70+4
 876 0114 FFF7FEFF 		bl	__aeabi_fcmpgt
 877 0118 031C     		mov	r3, r0
 878 011a 002B     		cmp	r3, #0
 879 011c 01D0     		beq	.L64
 179:.\DSP_Class.c ****             soilHumInRH = 100;
 880              		.loc 1 179 0
 881 011e 0F4B     		ldr	r3, .L70+4
 882 0120 3B63     		str	r3, [r7, #48]
 883              	.L64:
 180:.\DSP_Class.c ****         }
 181:.\DSP_Class.c ****         soilHum[index] = (uint8)soilHumInRH/10;
 884              		.loc 1 181 0 discriminator 1
 885 0122 3B1C     		mov	r3, r7
 886 0124 2733     		add	r3, r3, #39
 887 0126 1C78     		ldrb	r4, [r3]
 888 0128 386B     		ldr	r0, [r7, #48]
 889 012a FFF7FEFF 		bl	__aeabi_f2uiz
 890 012e 031C     		mov	r3, r0
ARM GAS  C:\Users\Philip\AppData\Local\Temp\ccuAkmhg.s 			page 20


 891 0130 DBB2     		uxtb	r3, r3
 892 0132 181C     		mov	r0, r3
 893 0134 0A21     		mov	r1, #10
 894 0136 FFF7FEFF 		bl	__aeabi_uidiv
 895 013a 031C     		mov	r3, r0
 896 013c DAB2     		uxtb	r2, r3
 897 013e 084B     		ldr	r3, .L70+8
 898 0140 1A55     		strb	r2, [r3, r4]
 899              	.LBE10:
 900 0142 05E0     		b	.L56
 901              	.L61:
 182:.\DSP_Class.c ****     }
 183:.\DSP_Class.c ****     else{
 184:.\DSP_Class.c ****     soilHum[index] = 0;
 902              		.loc 1 184 0
 903 0144 3B1C     		mov	r3, r7
 904 0146 2733     		add	r3, r3, #39
 905 0148 1B78     		ldrb	r3, [r3]
 906 014a 054A     		ldr	r2, .L70+8
 907 014c 0021     		mov	r1, #0
 908 014e D154     		strb	r1, [r2, r3]
 909              	.L56:
 185:.\DSP_Class.c ****     }
 186:.\DSP_Class.c **** }
 910              		.loc 1 186 0
 911 0150 BD46     		mov	sp, r7
 912 0152 13B0     		add	sp, sp, #76
 913              		@ sp needed
 914 0154 F0BD     		pop	{r4, r5, r6, r7, pc}
 915              	.L71:
 916 0156 C046     		.align	2
 917              	.L70:
 918 0158 00000000 		.word	soilHumArray
 919 015c 0000C842 		.word	1120403456
 920 0160 00000000 		.word	soilHum
 921              		.cfi_endproc
 922              	.LFE40:
 923              		.size	avgSoilHum, .-avgSoilHum
 924              		.global	__aeabi_f2iz
 925              		.global	__aeabi_idiv
 926              		.section	.text.avgLight,"ax",%progbits
 927              		.align	2
 928              		.global	avgLight
 929              		.code	16
 930              		.thumb_func
 931              		.type	avgLight, %function
 932              	avgLight:
 933              	.LFB41:
 187:.\DSP_Class.c **** 
 188:.\DSP_Class.c **** void avgLight(void){
 934              		.loc 1 188 0
 935              		.cfi_startproc
 936 0000 F0B5     		push	{r4, r5, r6, r7, lr}
 937              		.cfi_def_cfa_offset 20
 938              		.cfi_offset 4, -20
 939              		.cfi_offset 5, -16
 940              		.cfi_offset 6, -12
ARM GAS  C:\Users\Philip\AppData\Local\Temp\ccuAkmhg.s 			page 21


 941              		.cfi_offset 7, -8
 942              		.cfi_offset 14, -4
 943 0002 89B0     		sub	sp, sp, #36
 944              		.cfi_def_cfa_offset 56
 945 0004 00AF     		add	r7, sp, #0
 946              		.cfi_def_cfa_register 7
 189:.\DSP_Class.c ****     uint8 skip = 0;
 947              		.loc 1 189 0
 948 0006 381C     		mov	r0, r7
 949 0008 1F30     		add	r0, r0, #31
 950 000a 0025     		mov	r5, #0
 951 000c 0570     		strb	r5, [r0]
 190:.\DSP_Class.c ****     int64 total = 0;
 952              		.loc 1 190 0
 953 000e 0025     		mov	r5, #0
 954 0010 0026     		mov	r6, #0
 955 0012 3D61     		str	r5, [r7, #16]
 956 0014 7E61     		str	r6, [r7, #20]
 957              	.LBB11:
 191:.\DSP_Class.c ****     {
 192:.\DSP_Class.c ****         uint8 i;
 193:.\DSP_Class.c ****         for(i = 0 ; i<ARRAYSIZE ; i++){
 958              		.loc 1 193 0
 959 0016 381C     		mov	r0, r7
 960 0018 0F30     		add	r0, r0, #15
 961 001a 0025     		mov	r5, #0
 962 001c 0570     		strb	r5, [r0]
 963 001e 25E0     		b	.L73
 964              	.L76:
 194:.\DSP_Class.c ****             if(lightArray[i]>=0){
 965              		.loc 1 194 0
 966 0020 381C     		mov	r0, r7
 967 0022 0F30     		add	r0, r0, #15
 968 0024 0578     		ldrb	r5, [r0]
 969 0026 3C48     		ldr	r0, .L81
 970 0028 AD00     		lsl	r5, r5, #2
 971 002a 2858     		ldr	r0, [r5, r0]
 972 002c 0028     		cmp	r0, #0
 973 002e 0FDB     		blt	.L74
 195:.\DSP_Class.c ****                 total += lightArray[i];
 974              		.loc 1 195 0
 975 0030 381C     		mov	r0, r7
 976 0032 0F30     		add	r0, r0, #15
 977 0034 0578     		ldrb	r5, [r0]
 978 0036 3848     		ldr	r0, .L81
 979 0038 AD00     		lsl	r5, r5, #2
 980 003a 2858     		ldr	r0, [r5, r0]
 981 003c 011C     		mov	r1, r0
 982 003e C017     		asr	r0, r0, #31
 983 0040 021C     		mov	r2, r0
 984 0042 3D69     		ldr	r5, [r7, #16]
 985 0044 7E69     		ldr	r6, [r7, #20]
 986 0046 6D18     		add	r5, r5, r1
 987 0048 5641     		adc	r6, r6, r2
 988 004a 3D61     		str	r5, [r7, #16]
 989 004c 7E61     		str	r6, [r7, #20]
 990 004e 06E0     		b	.L75
ARM GAS  C:\Users\Philip\AppData\Local\Temp\ccuAkmhg.s 			page 22


 991              	.L74:
 196:.\DSP_Class.c ****             }
 197:.\DSP_Class.c ****             else{
 198:.\DSP_Class.c ****                 skip++;
 992              		.loc 1 198 0
 993 0050 381C     		mov	r0, r7
 994 0052 1F30     		add	r0, r0, #31
 995 0054 0578     		ldrb	r5, [r0]
 996 0056 381C     		mov	r0, r7
 997 0058 1F30     		add	r0, r0, #31
 998 005a 0135     		add	r5, r5, #1
 999 005c 0570     		strb	r5, [r0]
 1000              	.L75:
 193:.\DSP_Class.c ****         for(i = 0 ; i<ARRAYSIZE ; i++){
 1001              		.loc 1 193 0
 1002 005e 381C     		mov	r0, r7
 1003 0060 0F30     		add	r0, r0, #15
 1004 0062 0578     		ldrb	r5, [r0]
 1005 0064 381C     		mov	r0, r7
 1006 0066 0F30     		add	r0, r0, #15
 1007 0068 0135     		add	r5, r5, #1
 1008 006a 0570     		strb	r5, [r0]
 1009              	.L73:
 193:.\DSP_Class.c ****         for(i = 0 ; i<ARRAYSIZE ; i++){
 1010              		.loc 1 193 0 is_stmt 0 discriminator 1
 1011 006c 381C     		mov	r0, r7
 1012 006e 0F30     		add	r0, r0, #15
 1013 0070 0078     		ldrb	r0, [r0]
 1014 0072 0928     		cmp	r0, #9
 1015 0074 D4D9     		bls	.L76
 1016              	.LBE11:
 199:.\DSP_Class.c ****             }
 200:.\DSP_Class.c ****         }
 201:.\DSP_Class.c ****     }
 202:.\DSP_Class.c ****     // Makes sure that enough datapoits are pressent
 203:.\DSP_Class.c ****     if(ARRAYSIZE-skip>=NMR_OF_VALID_DATAPOINTS_NEEDED){    
 1017              		.loc 1 203 0 is_stmt 1
 1018 0076 3A1C     		mov	r2, r7
 1019 0078 1F32     		add	r2, r2, #31
 1020 007a 1278     		ldrb	r2, [r2]
 1021 007c 0A21     		mov	r1, #10
 1022 007e 8A1A     		sub	r2, r1, r2
 1023 0080 092A     		cmp	r2, #9
 1024 0082 43DD     		ble	.L77
 1025              	.LBB12:
 204:.\DSP_Class.c ****         float avg = total/(ARRAYSIZE-skip);                              // Calculate the average v
 1026              		.loc 1 204 0
 1027 0084 3A1C     		mov	r2, r7
 1028 0086 1F32     		add	r2, r2, #31
 1029 0088 1278     		ldrb	r2, [r2]
 1030 008a 0A21     		mov	r1, #10
 1031 008c 8A1A     		sub	r2, r1, r2
 1032 008e 131C     		mov	r3, r2
 1033 0090 D217     		asr	r2, r2, #31
 1034 0092 141C     		mov	r4, r2
 1035 0094 3869     		ldr	r0, [r7, #16]
 1036 0096 7969     		ldr	r1, [r7, #20]
ARM GAS  C:\Users\Philip\AppData\Local\Temp\ccuAkmhg.s 			page 23


 1037 0098 1A1C     		mov	r2, r3
 1038 009a 231C     		mov	r3, r4
 1039 009c FFF7FEFF 		bl	__aeabi_ldivmod
 1040 00a0 031C     		mov	r3, r0
 1041 00a2 0C1C     		mov	r4, r1
 1042 00a4 181C     		mov	r0, r3
 1043 00a6 211C     		mov	r1, r4
 1044 00a8 FFF7FEFF 		bl	__aeabi_l2f
 1045 00ac 031C     		add	r3, r0, #0
 1046 00ae BB60     		str	r3, [r7, #8]
 205:.\DSP_Class.c ****         
 206:.\DSP_Class.c ****         // Conversion to lux formula from datasheet
 207:.\DSP_Class.c ****         // Range = 128000, R_EXT = 100kOhm, n = 7 and DATA max 128
 208:.\DSP_Class.c ****         int32 lightInLux = ((128000*(100/100))/(128))*avg;
 1047              		.loc 1 208 0
 1048 00b0 B868     		ldr	r0, [r7, #8]
 1049 00b2 1A49     		ldr	r1, .L81+4
 1050 00b4 FFF7FEFF 		bl	__aeabi_fmul
 1051 00b8 031C     		add	r3, r0, #0
 1052 00ba 181C     		add	r0, r3, #0
 1053 00bc FFF7FEFF 		bl	__aeabi_f2iz
 1054 00c0 031C     		mov	r3, r0
 1055 00c2 7B60     		str	r3, [r7, #4]
 209:.\DSP_Class.c ****         
 210:.\DSP_Class.c ****         uint8 lightInUartVarSteps = lightInLux/1000;     // Conversion to UART ready value, 1 = 100
 1056              		.loc 1 210 0
 1057 00c4 7B68     		ldr	r3, [r7, #4]
 1058 00c6 181C     		mov	r0, r3
 1059 00c8 FA23     		mov	r3, #250
 1060 00ca 9900     		lsl	r1, r3, #2
 1061 00cc FFF7FEFF 		bl	__aeabi_idiv
 1062 00d0 031C     		mov	r3, r0
 1063 00d2 1A1C     		mov	r2, r3
 1064 00d4 3B1C     		mov	r3, r7
 1065 00d6 0E33     		add	r3, r3, #14
 1066 00d8 1A70     		strb	r2, [r3]
 211:.\DSP_Class.c ****         
 212:.\DSP_Class.c ****         // lightInLux is limited to 1 and 100 RH
 213:.\DSP_Class.c ****         if(lightInUartVarSteps <= 0){
 1067              		.loc 1 213 0
 1068 00da 3B1C     		mov	r3, r7
 1069 00dc 0E33     		add	r3, r3, #14
 1070 00de 1B78     		ldrb	r3, [r3]
 1071 00e0 002B     		cmp	r3, #0
 1072 00e2 04D1     		bne	.L78
 214:.\DSP_Class.c ****             lightInUartVarSteps = 1;
 1073              		.loc 1 214 0
 1074 00e4 3B1C     		mov	r3, r7
 1075 00e6 0E33     		add	r3, r3, #14
 1076 00e8 0122     		mov	r2, #1
 1077 00ea 1A70     		strb	r2, [r3]
 1078 00ec 08E0     		b	.L79
 1079              	.L78:
 215:.\DSP_Class.c ****         }
 216:.\DSP_Class.c ****         else if(lightInUartVarSteps > 100){
 1080              		.loc 1 216 0
 1081 00ee 3B1C     		mov	r3, r7
ARM GAS  C:\Users\Philip\AppData\Local\Temp\ccuAkmhg.s 			page 24


 1082 00f0 0E33     		add	r3, r3, #14
 1083 00f2 1B78     		ldrb	r3, [r3]
 1084 00f4 642B     		cmp	r3, #100
 1085 00f6 03D9     		bls	.L79
 217:.\DSP_Class.c ****             lightInUartVarSteps = 100;
 1086              		.loc 1 217 0
 1087 00f8 3B1C     		mov	r3, r7
 1088 00fa 0E33     		add	r3, r3, #14
 1089 00fc 6422     		mov	r2, #100
 1090 00fe 1A70     		strb	r2, [r3]
 1091              	.L79:
 218:.\DSP_Class.c ****         }
 219:.\DSP_Class.c ****         light = lightInUartVarSteps;
 1092              		.loc 1 219 0 discriminator 1
 1093 0100 074B     		ldr	r3, .L81+8
 1094 0102 3A1C     		mov	r2, r7
 1095 0104 0E32     		add	r2, r2, #14
 1096 0106 1278     		ldrb	r2, [r2]
 1097 0108 1A70     		strb	r2, [r3]
 1098              	.LBE12:
 1099 010a 02E0     		b	.L72
 1100              	.L77:
 220:.\DSP_Class.c ****     }
 221:.\DSP_Class.c ****     else{
 222:.\DSP_Class.c ****     light = 0;
 1101              		.loc 1 222 0
 1102 010c 044B     		ldr	r3, .L81+8
 1103 010e 0022     		mov	r2, #0
 1104 0110 1A70     		strb	r2, [r3]
 1105              	.L72:
 223:.\DSP_Class.c ****     }
 224:.\DSP_Class.c ****   }
 1106              		.loc 1 224 0
 1107 0112 BD46     		mov	sp, r7
 1108 0114 09B0     		add	sp, sp, #36
 1109              		@ sp needed
 1110 0116 F0BD     		pop	{r4, r5, r6, r7, pc}
 1111              	.L82:
 1112              		.align	2
 1113              	.L81:
 1114 0118 00000000 		.word	lightArray
 1115 011c 00007A44 		.word	1148846080
 1116 0120 00000000 		.word	light
 1117              		.cfi_endproc
 1118              	.LFE41:
 1119              		.size	avgLight, .-avgLight
 1120              		.section	.text.inputTemp,"ax",%progbits
 1121              		.align	2
 1122              		.global	inputTemp
 1123              		.code	16
 1124              		.thumb_func
 1125              		.type	inputTemp, %function
 1126              	inputTemp:
 1127              	.LFB42:
 225:.\DSP_Class.c **** 
 226:.\DSP_Class.c **** //----------inputTemp0----------
 227:.\DSP_Class.c **** void inputTemp(int32* temp){
ARM GAS  C:\Users\Philip\AppData\Local\Temp\ccuAkmhg.s 			page 25


 1128              		.loc 1 227 0
 1129              		.cfi_startproc
 1130 0000 80B5     		push	{r7, lr}
 1131              		.cfi_def_cfa_offset 8
 1132              		.cfi_offset 7, -8
 1133              		.cfi_offset 14, -4
 1134 0002 82B0     		sub	sp, sp, #8
 1135              		.cfi_def_cfa_offset 16
 1136 0004 00AF     		add	r7, sp, #0
 1137              		.cfi_def_cfa_register 7
 1138 0006 7860     		str	r0, [r7, #4]
 228:.\DSP_Class.c ****     *tempArrayPtr = *temp;      // The input value is written to the array
 1139              		.loc 1 228 0
 1140 0008 0B4B     		ldr	r3, .L85
 1141 000a 1B68     		ldr	r3, [r3]
 1142 000c 7A68     		ldr	r2, [r7, #4]
 1143 000e 1268     		ldr	r2, [r2]
 1144 0010 1A60     		str	r2, [r3]
 229:.\DSP_Class.c ****     tempArrayPtr++;             // The pointer is moved to the next place in array
 1145              		.loc 1 229 0
 1146 0012 094B     		ldr	r3, .L85
 1147 0014 1B68     		ldr	r3, [r3]
 1148 0016 1A1D     		add	r2, r3, #4
 1149 0018 074B     		ldr	r3, .L85
 1150 001a 1A60     		str	r2, [r3]
 230:.\DSP_Class.c ****     if(tempArrayPtr > &tempArray[ARRAYSIZE-1]){
 1151              		.loc 1 230 0
 1152 001c 064B     		ldr	r3, .L85
 1153 001e 1A68     		ldr	r2, [r3]
 1154 0020 064B     		ldr	r3, .L85+4
 1155 0022 9A42     		cmp	r2, r3
 1156 0024 02D9     		bls	.L84
 231:.\DSP_Class.c ****         tempArrayPtr = &tempArray[0];   // If the pointer is pointing past the end of the array it'
 1157              		.loc 1 231 0
 1158 0026 044B     		ldr	r3, .L85
 1159 0028 054A     		ldr	r2, .L85+8
 1160 002a 1A60     		str	r2, [r3]
 1161              	.L84:
 232:.\DSP_Class.c ****     }
 233:.\DSP_Class.c ****     
 234:.\DSP_Class.c ****     avgTemp();      // The average value is calculated and onverted into temp(globel) 
 1162              		.loc 1 234 0
 1163 002c FFF7FEFF 		bl	avgTemp
 235:.\DSP_Class.c **** }
 1164              		.loc 1 235 0
 1165 0030 BD46     		mov	sp, r7
 1166 0032 02B0     		add	sp, sp, #8
 1167              		@ sp needed
 1168 0034 80BD     		pop	{r7, pc}
 1169              	.L86:
 1170 0036 C046     		.align	2
 1171              	.L85:
 1172 0038 00000000 		.word	tempArrayPtr
 1173 003c 24000000 		.word	tempArray+36
 1174 0040 00000000 		.word	tempArray
 1175              		.cfi_endproc
 1176              	.LFE42:
ARM GAS  C:\Users\Philip\AppData\Local\Temp\ccuAkmhg.s 			page 26


 1177              		.size	inputTemp, .-inputTemp
 1178              		.section	.text.inputHum,"ax",%progbits
 1179              		.align	2
 1180              		.global	inputHum
 1181              		.code	16
 1182              		.thumb_func
 1183              		.type	inputHum, %function
 1184              	inputHum:
 1185              	.LFB43:
 236:.\DSP_Class.c **** //----------inputTemp1----------
 237:.\DSP_Class.c **** 
 238:.\DSP_Class.c **** void inputHum(int32* hum){
 1186              		.loc 1 238 0
 1187              		.cfi_startproc
 1188 0000 80B5     		push	{r7, lr}
 1189              		.cfi_def_cfa_offset 8
 1190              		.cfi_offset 7, -8
 1191              		.cfi_offset 14, -4
 1192 0002 82B0     		sub	sp, sp, #8
 1193              		.cfi_def_cfa_offset 16
 1194 0004 00AF     		add	r7, sp, #0
 1195              		.cfi_def_cfa_register 7
 1196 0006 7860     		str	r0, [r7, #4]
 239:.\DSP_Class.c ****     *humArrayPtr = *hum;        // The input value is written to the array
 1197              		.loc 1 239 0
 1198 0008 0B4B     		ldr	r3, .L89
 1199 000a 1B68     		ldr	r3, [r3]
 1200 000c 7A68     		ldr	r2, [r7, #4]
 1201 000e 1268     		ldr	r2, [r2]
 1202 0010 1A60     		str	r2, [r3]
 240:.\DSP_Class.c ****     humArrayPtr++;              // The pointer is moved to the next place in array
 1203              		.loc 1 240 0
 1204 0012 094B     		ldr	r3, .L89
 1205 0014 1B68     		ldr	r3, [r3]
 1206 0016 1A1D     		add	r2, r3, #4
 1207 0018 074B     		ldr	r3, .L89
 1208 001a 1A60     		str	r2, [r3]
 241:.\DSP_Class.c ****     if(humArrayPtr > &humArray[ARRAYSIZE-1]){
 1209              		.loc 1 241 0
 1210 001c 064B     		ldr	r3, .L89
 1211 001e 1A68     		ldr	r2, [r3]
 1212 0020 064B     		ldr	r3, .L89+4
 1213 0022 9A42     		cmp	r2, r3
 1214 0024 02D9     		bls	.L88
 242:.\DSP_Class.c ****         humArrayPtr = &humArray[0];     // If the pointer is pointing past the end of the array it'
 1215              		.loc 1 242 0
 1216 0026 044B     		ldr	r3, .L89
 1217 0028 054A     		ldr	r2, .L89+8
 1218 002a 1A60     		str	r2, [r3]
 1219              	.L88:
 243:.\DSP_Class.c ****     }
 244:.\DSP_Class.c ****     
 245:.\DSP_Class.c ****     avgHum();      // The average value is calculated and onverted into hum(globel)
 1220              		.loc 1 245 0
 1221 002c FFF7FEFF 		bl	avgHum
 246:.\DSP_Class.c **** }
 1222              		.loc 1 246 0
ARM GAS  C:\Users\Philip\AppData\Local\Temp\ccuAkmhg.s 			page 27


 1223 0030 BD46     		mov	sp, r7
 1224 0032 02B0     		add	sp, sp, #8
 1225              		@ sp needed
 1226 0034 80BD     		pop	{r7, pc}
 1227              	.L90:
 1228 0036 C046     		.align	2
 1229              	.L89:
 1230 0038 00000000 		.word	humArrayPtr
 1231 003c 24000000 		.word	humArray+36
 1232 0040 00000000 		.word	humArray
 1233              		.cfi_endproc
 1234              	.LFE43:
 1235              		.size	inputHum, .-inputHum
 1236              		.section	.text.inputSoilHum,"ax",%progbits
 1237              		.align	2
 1238              		.global	inputSoilHum
 1239              		.code	16
 1240              		.thumb_func
 1241              		.type	inputSoilHum, %function
 1242              	inputSoilHum:
 1243              	.LFB44:
 247:.\DSP_Class.c **** 
 248:.\DSP_Class.c **** 
 249:.\DSP_Class.c **** void inputSoilHum(uint8 index, int16* soilHum){
 1244              		.loc 1 249 0
 1245              		.cfi_startproc
 1246 0000 80B5     		push	{r7, lr}
 1247              		.cfi_def_cfa_offset 8
 1248              		.cfi_offset 7, -8
 1249              		.cfi_offset 14, -4
 1250 0002 82B0     		sub	sp, sp, #8
 1251              		.cfi_def_cfa_offset 16
 1252 0004 00AF     		add	r7, sp, #0
 1253              		.cfi_def_cfa_register 7
 1254 0006 021C     		mov	r2, r0
 1255 0008 3960     		str	r1, [r7]
 1256 000a FB1D     		add	r3, r7, #7
 1257 000c 1A70     		strb	r2, [r3]
 250:.\DSP_Class.c ****     *soilHumPtr[index] = *soilHum;          // The input value is written to the array
 1258              		.loc 1 250 0
 1259 000e FB1D     		add	r3, r7, #7
 1260 0010 1A78     		ldrb	r2, [r3]
 1261 0012 1A4B     		ldr	r3, .L93
 1262 0014 9200     		lsl	r2, r2, #2
 1263 0016 D358     		ldr	r3, [r2, r3]
 1264 0018 3A68     		ldr	r2, [r7]
 1265 001a 1288     		ldrh	r2, [r2]
 1266 001c 1A80     		strh	r2, [r3]
 251:.\DSP_Class.c ****     soilHumPtr[index]++;                    // The pointer is moved to the next place in array
 1267              		.loc 1 251 0
 1268 001e FB1D     		add	r3, r7, #7
 1269 0020 1B78     		ldrb	r3, [r3]
 1270 0022 164A     		ldr	r2, .L93
 1271 0024 9900     		lsl	r1, r3, #2
 1272 0026 8A58     		ldr	r2, [r1, r2]
 1273 0028 911C     		add	r1, r2, #2
 1274 002a 144A     		ldr	r2, .L93
ARM GAS  C:\Users\Philip\AppData\Local\Temp\ccuAkmhg.s 			page 28


 1275 002c 9B00     		lsl	r3, r3, #2
 1276 002e 9950     		str	r1, [r3, r2]
 252:.\DSP_Class.c ****     if(soilHumPtr[index] > &soilHumArray[index][ARRAYSIZE-1]){
 1277              		.loc 1 252 0
 1278 0030 FB1D     		add	r3, r7, #7
 1279 0032 1A78     		ldrb	r2, [r3]
 1280 0034 114B     		ldr	r3, .L93
 1281 0036 9200     		lsl	r2, r2, #2
 1282 0038 D158     		ldr	r1, [r2, r3]
 1283 003a FB1D     		add	r3, r7, #7
 1284 003c 1A78     		ldrb	r2, [r3]
 1285 003e 131C     		mov	r3, r2
 1286 0040 9B00     		lsl	r3, r3, #2
 1287 0042 9B18     		add	r3, r3, r2
 1288 0044 9B00     		lsl	r3, r3, #2
 1289 0046 1A1C     		mov	r2, r3
 1290 0048 1232     		add	r2, r2, #18
 1291 004a 0D4B     		ldr	r3, .L93+4
 1292 004c D318     		add	r3, r2, r3
 1293 004e 9942     		cmp	r1, r3
 1294 0050 0CD9     		bls	.L92
 253:.\DSP_Class.c ****         soilHumPtr[index] = &soilHumArray[index][0];            // If the pointer is pointing past 
 1295              		.loc 1 253 0
 1296 0052 FB1D     		add	r3, r7, #7
 1297 0054 1878     		ldrb	r0, [r3]
 1298 0056 FB1D     		add	r3, r7, #7
 1299 0058 1A78     		ldrb	r2, [r3]
 1300 005a 131C     		mov	r3, r2
 1301 005c 9B00     		lsl	r3, r3, #2
 1302 005e 9B18     		add	r3, r3, r2
 1303 0060 9B00     		lsl	r3, r3, #2
 1304 0062 074A     		ldr	r2, .L93+4
 1305 0064 9918     		add	r1, r3, r2
 1306 0066 054B     		ldr	r3, .L93
 1307 0068 8200     		lsl	r2, r0, #2
 1308 006a D150     		str	r1, [r2, r3]
 1309              	.L92:
 254:.\DSP_Class.c ****     }
 255:.\DSP_Class.c ****     
 256:.\DSP_Class.c ****     avgSoilHum(index);          // The average value is calculated and onverted into soilHum(globel
 1310              		.loc 1 256 0
 1311 006c FB1D     		add	r3, r7, #7
 1312 006e 1B78     		ldrb	r3, [r3]
 1313 0070 181C     		mov	r0, r3
 1314 0072 FFF7FEFF 		bl	avgSoilHum
 257:.\DSP_Class.c **** }
 1315              		.loc 1 257 0
 1316 0076 BD46     		mov	sp, r7
 1317 0078 02B0     		add	sp, sp, #8
 1318              		@ sp needed
 1319 007a 80BD     		pop	{r7, pc}
 1320              	.L94:
 1321              		.align	2
 1322              	.L93:
 1323 007c 00000000 		.word	soilHumPtr
 1324 0080 00000000 		.word	soilHumArray
 1325              		.cfi_endproc
ARM GAS  C:\Users\Philip\AppData\Local\Temp\ccuAkmhg.s 			page 29


 1326              	.LFE44:
 1327              		.size	inputSoilHum, .-inputSoilHum
 1328              		.section	.text.inputLight,"ax",%progbits
 1329              		.align	2
 1330              		.global	inputLight
 1331              		.code	16
 1332              		.thumb_func
 1333              		.type	inputLight, %function
 1334              	inputLight:
 1335              	.LFB45:
 258:.\DSP_Class.c **** 
 259:.\DSP_Class.c **** void inputLight(int32* light){
 1336              		.loc 1 259 0
 1337              		.cfi_startproc
 1338 0000 80B5     		push	{r7, lr}
 1339              		.cfi_def_cfa_offset 8
 1340              		.cfi_offset 7, -8
 1341              		.cfi_offset 14, -4
 1342 0002 82B0     		sub	sp, sp, #8
 1343              		.cfi_def_cfa_offset 16
 1344 0004 00AF     		add	r7, sp, #0
 1345              		.cfi_def_cfa_register 7
 1346 0006 7860     		str	r0, [r7, #4]
 260:.\DSP_Class.c ****     *lightArrayPtr = *light;        // The input value is written to the array
 1347              		.loc 1 260 0
 1348 0008 0B4B     		ldr	r3, .L97
 1349 000a 1B68     		ldr	r3, [r3]
 1350 000c 7A68     		ldr	r2, [r7, #4]
 1351 000e 1268     		ldr	r2, [r2]
 1352 0010 1A60     		str	r2, [r3]
 261:.\DSP_Class.c ****     lightArrayPtr++;                // The pointer is moved to the next place in array
 1353              		.loc 1 261 0
 1354 0012 094B     		ldr	r3, .L97
 1355 0014 1B68     		ldr	r3, [r3]
 1356 0016 1A1D     		add	r2, r3, #4
 1357 0018 074B     		ldr	r3, .L97
 1358 001a 1A60     		str	r2, [r3]
 262:.\DSP_Class.c ****     if(lightArrayPtr > &lightArray[ARRAYSIZE-1]){
 1359              		.loc 1 262 0
 1360 001c 064B     		ldr	r3, .L97
 1361 001e 1A68     		ldr	r2, [r3]
 1362 0020 064B     		ldr	r3, .L97+4
 1363 0022 9A42     		cmp	r2, r3
 1364 0024 02D9     		bls	.L96
 263:.\DSP_Class.c ****         lightArrayPtr = &lightArray[0];     // If the pointer is pointing past the end of the array
 1365              		.loc 1 263 0
 1366 0026 044B     		ldr	r3, .L97
 1367 0028 054A     		ldr	r2, .L97+8
 1368 002a 1A60     		str	r2, [r3]
 1369              	.L96:
 264:.\DSP_Class.c ****     }
 265:.\DSP_Class.c ****     
 266:.\DSP_Class.c ****     avgLight();      // The average value is calculated and onverted into hum(globel)
 1370              		.loc 1 266 0
 1371 002c FFF7FEFF 		bl	avgLight
 267:.\DSP_Class.c **** }
 1372              		.loc 1 267 0
ARM GAS  C:\Users\Philip\AppData\Local\Temp\ccuAkmhg.s 			page 30


 1373 0030 BD46     		mov	sp, r7
 1374 0032 02B0     		add	sp, sp, #8
 1375              		@ sp needed
 1376 0034 80BD     		pop	{r7, pc}
 1377              	.L98:
 1378 0036 C046     		.align	2
 1379              	.L97:
 1380 0038 00000000 		.word	lightArrayPtr
 1381 003c 24000000 		.word	lightArray+36
 1382 0040 00000000 		.word	lightArray
 1383              		.cfi_endproc
 1384              	.LFE45:
 1385              		.size	inputLight, .-inputLight
 1386              		.text
 1387              	.Letext0:
 1388              		.file 2 ".\\Generated_Source\\PSoC4/cytypes.h"