ARM GAS  C:\Users\Philip\AppData\Local\Temp\ccDlgZPb.s 			page 1


   1              		.cpu cortex-m0
   2              		.fpu softvfp
   3              		.eabi_attribute 20, 1
   4              		.eabi_attribute 21, 1
   5              		.eabi_attribute 23, 3
   6              		.eabi_attribute 24, 1
   7              		.eabi_attribute 25, 1
   8              		.eabi_attribute 26, 1
   9              		.eabi_attribute 30, 6
  10              		.eabi_attribute 34, 0
  11              		.eabi_attribute 18, 4
  12              		.code	16
  13              		.file	"PSoC_Master_Class.c"
  14              		.text
  15              	.Ltext0:
  16              		.cfi_sections	.debug_frame
  17              		.comm	tempTemp,4,4
  18              		.comm	tempHum,4,4
  19              		.comm	tempSoilHum,12,4
  20              		.comm	tempLight,4,4
  21              		.global	theState
  22              		.bss
  23              		.type	theState, %object
  24              		.size	theState, 1
  25              	theState:
  26 0000 00       		.space	1
  27              		.global	irrigationIndex
  28              		.type	irrigationIndex, %object
  29              		.size	irrigationIndex, 1
  30              	irrigationIndex:
  31 0001 00       		.space	1
  32              		.comm	buff,1,1
  33              		.global	uartInt
  34              		.type	uartInt, %object
  35              		.size	uartInt, 1
  36              	uartInt:
  37 0002 00       		.space	1
  38              		.global	timerInt
  39              		.type	timerInt, %object
  40              		.size	timerInt, 1
  41              	timerInt:
  42 0003 00       		.space	1
  43              		.section	.text.initPSoC_Master,"ax",%progbits
  44              		.align	2
  45              		.global	initPSoC_Master
  46              		.code	16
  47              		.thumb_func
  48              		.type	initPSoC_Master, %function
  49              	initPSoC_Master:
  50              	.LFB33:
  51              		.file 1 ".\\PSoC_Master_Class.c"
   1:.\PSoC_Master_Class.c **** /* ========================================
   2:.\PSoC_Master_Class.c ****  * 
   3:.\PSoC_Master_Class.c ****  * AutoGreen - PSoC_Master
   4:.\PSoC_Master_Class.c ****  * PSoC_Master_Class.c
   5:.\PSoC_Master_Class.c ****  * (Description)
   6:.\PSoC_Master_Class.c ****  * PRJ3 - GRP9
ARM GAS  C:\Users\Philip\AppData\Local\Temp\ccDlgZPb.s 			page 2


   7:.\PSoC_Master_Class.c ****  * 2015-04-15
   8:.\PSoC_Master_Class.c ****  *
   9:.\PSoC_Master_Class.c ****  * ========================================
  10:.\PSoC_Master_Class.c **** */
  11:.\PSoC_Master_Class.c **** 
  12:.\PSoC_Master_Class.c **** // Include files
  13:.\PSoC_Master_Class.c **** #include "PSoC_Master_Class.h"
  14:.\PSoC_Master_Class.c **** #include "DSP_Class.h"
  15:.\PSoC_Master_Class.c **** #include "I2C_Class.h"
  16:.\PSoC_Master_Class.c **** #include "UART_Class.h"
  17:.\PSoC_Master_Class.c **** 
  18:.\PSoC_Master_Class.c **** //Definitions
  19:.\PSoC_Master_Class.c **** #define CONVERT_TO_ASCII 48
  20:.\PSoC_Master_Class.c **** #define LED_ON 0
  21:.\PSoC_Master_Class.c **** #define LED_OFF 1
  22:.\PSoC_Master_Class.c **** 
  23:.\PSoC_Master_Class.c **** // Private data members
  24:.\PSoC_Master_Class.c **** int32 tempTemp;
  25:.\PSoC_Master_Class.c **** int32 tempHum;
  26:.\PSoC_Master_Class.c **** int16 tempSoilHum[6];
  27:.\PSoC_Master_Class.c **** int32 tempLight;
  28:.\PSoC_Master_Class.c **** 
  29:.\PSoC_Master_Class.c **** // Private prototypes
  30:.\PSoC_Master_Class.c **** CY_ISR_PROTO(timer_ISR);
  31:.\PSoC_Master_Class.c **** CY_ISR_PROTO(UART_ISR);
  32:.\PSoC_Master_Class.c **** 
  33:.\PSoC_Master_Class.c **** //----------flags0----------
  34:.\PSoC_Master_Class.c **** // Buffers / flags
  35:.\PSoC_Master_Class.c **** typedef enum {IDLE, ADJW, ADJH, ADJV, ADJI, RESP_SOIL_HUM} state;
  36:.\PSoC_Master_Class.c **** volatile state theState = IDLE;
  37:.\PSoC_Master_Class.c **** volatile int8 irrigationIndex = 0;
  38:.\PSoC_Master_Class.c **** uint8 buff;
  39:.\PSoC_Master_Class.c **** uint8 uartInt = 0;
  40:.\PSoC_Master_Class.c **** uint8 timerInt = 0;
  41:.\PSoC_Master_Class.c **** //----------flags1----------
  42:.\PSoC_Master_Class.c **** 
  43:.\PSoC_Master_Class.c **** void initPSoC_Master(void){
  52              		.loc 1 43 0
  53              		.cfi_startproc
  54 0000 80B5     		push	{r7, lr}
  55              		.cfi_def_cfa_offset 8
  56              		.cfi_offset 7, -8
  57              		.cfi_offset 14, -4
  58 0002 00AF     		add	r7, sp, #0
  59              		.cfi_def_cfa_register 7
  44:.\PSoC_Master_Class.c **** 	tempTemp = 0;
  60              		.loc 1 44 0
  61 0004 174B     		ldr	r3, .L2
  62 0006 0022     		mov	r2, #0
  63 0008 1A60     		str	r2, [r3]
  45:.\PSoC_Master_Class.c ****     tempHum = 0;
  64              		.loc 1 45 0
  65 000a 174B     		ldr	r3, .L2+4
  66 000c 0022     		mov	r2, #0
  67 000e 1A60     		str	r2, [r3]
  46:.\PSoC_Master_Class.c ****     tempSoilHum[0] = 0;
  68              		.loc 1 46 0
ARM GAS  C:\Users\Philip\AppData\Local\Temp\ccDlgZPb.s 			page 3


  69 0010 164B     		ldr	r3, .L2+8
  70 0012 0022     		mov	r2, #0
  71 0014 1A80     		strh	r2, [r3]
  47:.\PSoC_Master_Class.c ****     tempSoilHum[1] = 0;
  72              		.loc 1 47 0
  73 0016 154B     		ldr	r3, .L2+8
  74 0018 0022     		mov	r2, #0
  75 001a 5A80     		strh	r2, [r3, #2]
  48:.\PSoC_Master_Class.c ****     tempSoilHum[2] = 0;
  76              		.loc 1 48 0
  77 001c 134B     		ldr	r3, .L2+8
  78 001e 0022     		mov	r2, #0
  79 0020 9A80     		strh	r2, [r3, #4]
  49:.\PSoC_Master_Class.c ****     tempSoilHum[3] = 0;
  80              		.loc 1 49 0
  81 0022 124B     		ldr	r3, .L2+8
  82 0024 0022     		mov	r2, #0
  83 0026 DA80     		strh	r2, [r3, #6]
  50:.\PSoC_Master_Class.c ****     tempSoilHum[4] = 0;
  84              		.loc 1 50 0
  85 0028 104B     		ldr	r3, .L2+8
  86 002a 0022     		mov	r2, #0
  87 002c 1A81     		strh	r2, [r3, #8]
  51:.\PSoC_Master_Class.c ****     tempSoilHum[5] = 0;
  88              		.loc 1 51 0
  89 002e 0F4B     		ldr	r3, .L2+8
  90 0030 0022     		mov	r2, #0
  91 0032 5A81     		strh	r2, [r3, #10]
  52:.\PSoC_Master_Class.c ****     tempLight = 0;
  92              		.loc 1 52 0
  93 0034 0E4B     		ldr	r3, .L2+12
  94 0036 0022     		mov	r2, #0
  95 0038 1A60     		str	r2, [r3]
  53:.\PSoC_Master_Class.c **** 	
  54:.\PSoC_Master_Class.c ****     // ISR
  55:.\PSoC_Master_Class.c ****     UART_ISR_StartEx(UART_ISR);     // Starts UART interrupt component
  96              		.loc 1 55 0
  97 003a 0E4B     		ldr	r3, .L2+16
  98 003c 181C     		mov	r0, r3
  99 003e FFF7FEFF 		bl	UART_ISR_StartEx
  56:.\PSoC_Master_Class.c ****     timer_ISR_StartEx(timer_ISR);   // Starts timer interrupt component
 100              		.loc 1 56 0
 101 0042 0D4B     		ldr	r3, .L2+20
 102 0044 181C     		mov	r0, r3
 103 0046 FFF7FEFF 		bl	timer_ISR_StartEx
  57:.\PSoC_Master_Class.c ****     
  58:.\PSoC_Master_Class.c ****     UART_Start();                   //  Starts UART component
 104              		.loc 1 58 0
 105 004a FFF7FEFF 		bl	UART_Start
  59:.\PSoC_Master_Class.c ****     Timer_Start();                  // Starts timer component
 106              		.loc 1 59 0
 107 004e FFF7FEFF 		bl	Timer_Start
  60:.\PSoC_Master_Class.c ****     
  61:.\PSoC_Master_Class.c ****     RedLED_Write(LED_OFF);              // Turn off red LED
 108              		.loc 1 61 0
 109 0052 0120     		mov	r0, #1
 110 0054 FFF7FEFF 		bl	RedLED_Write
ARM GAS  C:\Users\Philip\AppData\Local\Temp\ccDlgZPb.s 			page 4


  62:.\PSoC_Master_Class.c ****     BlueLED_Write(LED_OFF);             // Turn off blue LED
 111              		.loc 1 62 0
 112 0058 0120     		mov	r0, #1
 113 005a FFF7FEFF 		bl	BlueLED_Write
  63:.\PSoC_Master_Class.c **** 
  64:.\PSoC_Master_Class.c **** }
 114              		.loc 1 64 0
 115 005e BD46     		mov	sp, r7
 116              		@ sp needed
 117 0060 80BD     		pop	{r7, pc}
 118              	.L3:
 119 0062 C046     		.align	2
 120              	.L2:
 121 0064 00000000 		.word	tempTemp
 122 0068 00000000 		.word	tempHum
 123 006c 00000000 		.word	tempSoilHum
 124 0070 00000000 		.word	tempLight
 125 0074 00000000 		.word	UART_ISR
 126 0078 00000000 		.word	timer_ISR
 127              		.cfi_endproc
 128              	.LFE33:
 129              		.size	initPSoC_Master, .-initPSoC_Master
 130              		.section	.text.timer_ISR,"ax",%progbits
 131              		.align	2
 132              		.global	timer_ISR
 133              		.code	16
 134              		.thumb_func
 135              		.type	timer_ISR, %function
 136              	timer_ISR:
 137              	.LFB34:
  65:.\PSoC_Master_Class.c **** 
  66:.\PSoC_Master_Class.c **** // Timer ISR
  67:.\PSoC_Master_Class.c **** CY_ISR(timer_ISR){
 138              		.loc 1 67 0
 139              		.cfi_startproc
 140 0000 80B5     		push	{r7, lr}
 141              		.cfi_def_cfa_offset 8
 142              		.cfi_offset 7, -8
 143              		.cfi_offset 14, -4
 144 0002 00AF     		add	r7, sp, #0
 145              		.cfi_def_cfa_register 7
  68:.\PSoC_Master_Class.c ****     timerInt = 1;
 146              		.loc 1 68 0
 147 0004 034B     		ldr	r3, .L5
 148 0006 0122     		mov	r2, #1
 149 0008 1A70     		strb	r2, [r3]
  69:.\PSoC_Master_Class.c ****     Timer_ReadStatusRegister(); // Resets the interrupt
 150              		.loc 1 69 0
 151 000a FFF7FEFF 		bl	Timer_ReadStatusRegister
  70:.\PSoC_Master_Class.c **** }
 152              		.loc 1 70 0
 153 000e BD46     		mov	sp, r7
 154              		@ sp needed
 155 0010 80BD     		pop	{r7, pc}
 156              	.L6:
 157 0012 C046     		.align	2
 158              	.L5:
ARM GAS  C:\Users\Philip\AppData\Local\Temp\ccDlgZPb.s 			page 5


 159 0014 00000000 		.word	timerInt
 160              		.cfi_endproc
 161              	.LFE34:
 162              		.size	timer_ISR, .-timer_ISR
 163              		.section	.text.UART_ISR,"ax",%progbits
 164              		.align	2
 165              		.global	UART_ISR
 166              		.code	16
 167              		.thumb_func
 168              		.type	UART_ISR, %function
 169              	UART_ISR:
 170              	.LFB35:
  71:.\PSoC_Master_Class.c **** 
  72:.\PSoC_Master_Class.c **** //----------UART_ISR0----------
  73:.\PSoC_Master_Class.c **** // UART ISR
  74:.\PSoC_Master_Class.c **** CY_ISR(UART_ISR){
 171              		.loc 1 74 0
 172              		.cfi_startproc
 173 0000 80B5     		push	{r7, lr}
 174              		.cfi_def_cfa_offset 8
 175              		.cfi_offset 7, -8
 176              		.cfi_offset 14, -4
 177 0002 00AF     		add	r7, sp, #0
 178              		.cfi_def_cfa_register 7
  75:.\PSoC_Master_Class.c ****     uartInt = 1;
 179              		.loc 1 75 0
 180 0004 074B     		ldr	r3, .L8
 181 0006 0122     		mov	r2, #1
 182 0008 1A70     		strb	r2, [r3]
  76:.\PSoC_Master_Class.c ****     buff = dkRequest();
 183              		.loc 1 76 0
 184 000a FFF7FEFF 		bl	dkRequest
 185 000e 031C     		mov	r3, r0
 186 0010 1A1C     		mov	r2, r3
 187 0012 054B     		ldr	r3, .L8+4
 188 0014 1A70     		strb	r2, [r3]
  77:.\PSoC_Master_Class.c ****     UART_ClearRxInterruptSource(UART_GetRxInterruptSourceMasked());     // Clear interrupt flag
 189              		.loc 1 77 0
 190 0016 054B     		ldr	r3, .L8+8
 191 0018 054A     		ldr	r2, .L8+12
 192 001a 1268     		ldr	r2, [r2]
 193 001c 1A60     		str	r2, [r3]
  78:.\PSoC_Master_Class.c **** }
 194              		.loc 1 78 0
 195 001e BD46     		mov	sp, r7
 196              		@ sp needed
 197 0020 80BD     		pop	{r7, pc}
 198              	.L9:
 199 0022 C046     		.align	2
 200              	.L8:
 201 0024 00000000 		.word	uartInt
 202 0028 00000000 		.word	buff
 203 002c C00F0740 		.word	1074204608
 204 0030 CC0F0740 		.word	1074204620
 205              		.cfi_endproc
 206              	.LFE35:
 207              		.size	UART_ISR, .-UART_ISR
ARM GAS  C:\Users\Philip\AppData\Local\Temp\ccDlgZPb.s 			page 6


 208              		.section	.text.uartIntHandler,"ax",%progbits
 209              		.align	2
 210              		.global	uartIntHandler
 211              		.code	16
 212              		.thumb_func
 213              		.type	uartIntHandler, %function
 214              	uartIntHandler:
 215              	.LFB36:
  79:.\PSoC_Master_Class.c **** //----------UART_ISR1----------
  80:.\PSoC_Master_Class.c **** 
  81:.\PSoC_Master_Class.c **** //----------uartIntHandler0----------
  82:.\PSoC_Master_Class.c **** void uartIntHandler(void){
 216              		.loc 1 82 0
 217              		.cfi_startproc
 218 0000 80B5     		push	{r7, lr}
 219              		.cfi_def_cfa_offset 8
 220              		.cfi_offset 7, -8
 221              		.cfi_offset 14, -4
 222 0002 82B0     		sub	sp, sp, #8
 223              		.cfi_def_cfa_offset 16
 224 0004 00AF     		add	r7, sp, #0
 225              		.cfi_def_cfa_register 7
  83:.\PSoC_Master_Class.c ****     if (uartInt){
 226              		.loc 1 83 0
 227 0006 7A4B     		ldr	r3, .L39
 228 0008 1B78     		ldrb	r3, [r3]
 229 000a 002B     		cmp	r3, #0
 230 000c 00D1     		bne	.LCB147
 231 000e ECE0     		b	.L10	@long jump
 232              	.LCB147:
  84:.\PSoC_Master_Class.c ****         uartInt = 0;
 233              		.loc 1 84 0
 234 0010 774B     		ldr	r3, .L39
 235 0012 0022     		mov	r2, #0
 236 0014 1A70     		strb	r2, [r3]
  85:.\PSoC_Master_Class.c ****         BlueLED_Write(LED_ON);       // Turn on blue LED
 237              		.loc 1 85 0
 238 0016 0020     		mov	r0, #0
 239 0018 FFF7FEFF 		bl	BlueLED_Write
  86:.\PSoC_Master_Class.c ****         
  87:.\PSoC_Master_Class.c ****         if(theState == IDLE){
 240              		.loc 1 87 0
 241 001c 754B     		ldr	r3, .L39+4
 242 001e 1B78     		ldrb	r3, [r3]
 243 0020 DBB2     		uxtb	r3, r3
 244 0022 002B     		cmp	r3, #0
 245 0024 42D1     		bne	.L12
  88:.\PSoC_Master_Class.c ****             switch (buff){
 246              		.loc 1 88 0
 247 0026 744B     		ldr	r3, .L39+8
 248 0028 1B78     		ldrb	r3, [r3]
 249 002a 413B     		sub	r3, r3, #65
 250 002c 162B     		cmp	r3, #22
 251 002e 3BD8     		bhi	.L38
 252 0030 9A00     		lsl	r2, r3, #2
 253 0032 724B     		ldr	r3, .L39+12
 254 0034 D318     		add	r3, r2, r3
ARM GAS  C:\Users\Philip\AppData\Local\Temp\ccDlgZPb.s 			page 7


 255 0036 1B68     		ldr	r3, [r3]
 256 0038 9F46     		mov	pc, r3
 257              		.section	.rodata
 258              		.align	2
 259              	.L15:
 260 0000 56000000 		.word	.L14
 261 0004 A8000000 		.word	.L38
 262 0008 A8000000 		.word	.L38
 263 000c A8000000 		.word	.L38
 264 0010 A8000000 		.word	.L38
 265 0014 98000000 		.word	.L16
 266 0018 A8000000 		.word	.L38
 267 001c 64000000 		.word	.L17
 268 0020 A8000000 		.word	.L38
 269 0024 A8000000 		.word	.L38
 270 0028 76000000 		.word	.L18
 271 002c 48000000 		.word	.L19
 272 0030 A8000000 		.word	.L38
 273 0034 A8000000 		.word	.L38
 274 0038 A8000000 		.word	.L38
 275 003c A8000000 		.word	.L38
 276 0040 A8000000 		.word	.L38
 277 0044 A8000000 		.word	.L38
 278 0048 A0000000 		.word	.L20
 279 004c 3A000000 		.word	.L21
 280 0050 A8000000 		.word	.L38
 281 0054 90000000 		.word	.L22
 282 0058 88000000 		.word	.L23
 283              		.section	.text.uartIntHandler
 284              	.L21:
  89:.\PSoC_Master_Class.c ****                 case 'T':{ //RequestTemp
  90:.\PSoC_Master_Class.c ****                     respondTemp(getTemp_DSP());		
 285              		.loc 1 90 0
 286 003a FFF7FEFF 		bl	getTemp_DSP
 287 003e 031C     		mov	r3, r0
 288 0040 181C     		mov	r0, r3
 289 0042 FFF7FEFF 		bl	respondTemp
  91:.\PSoC_Master_Class.c ****                     break;
 290              		.loc 1 91 0
 291 0046 30E0     		b	.L24
 292              	.L19:
  92:.\PSoC_Master_Class.c ****                 }
  93:.\PSoC_Master_Class.c ****                 case 'L':{ //RequestLight
  94:.\PSoC_Master_Class.c ****                     respondLight(getLight_DSP());
 293              		.loc 1 94 0
 294 0048 FFF7FEFF 		bl	getLight_DSP
 295 004c 031C     		mov	r3, r0
 296 004e 181C     		mov	r0, r3
 297 0050 FFF7FEFF 		bl	respondLight
  95:.\PSoC_Master_Class.c ****                     break;
 298              		.loc 1 95 0
 299 0054 29E0     		b	.L24
 300              	.L14:
  96:.\PSoC_Master_Class.c ****                 }
  97:.\PSoC_Master_Class.c ****                 case 'A':{ //RequestAirhum
  98:.\PSoC_Master_Class.c ****                     respondHum(getHum_DSP());
 301              		.loc 1 98 0
ARM GAS  C:\Users\Philip\AppData\Local\Temp\ccDlgZPb.s 			page 8


 302 0056 FFF7FEFF 		bl	getHum_DSP
 303 005a 031C     		mov	r3, r0
 304 005c 181C     		mov	r0, r3
 305 005e FFF7FEFF 		bl	respondHum
  99:.\PSoC_Master_Class.c ****                     break;
 306              		.loc 1 99 0
 307 0062 22E0     		b	.L24
 308              	.L17:
 100:.\PSoC_Master_Class.c ****                 }        
 101:.\PSoC_Master_Class.c ****                 case 'H':{ //TurnHeatOn
 102:.\PSoC_Master_Class.c ****                     // 0x7 is the maximum value.
 103:.\PSoC_Master_Class.c ****                     respondHeat(adjustHeat(0x7), 'H');
 309              		.loc 1 103 0
 310 0064 0720     		mov	r0, #7
 311 0066 FFF7FEFF 		bl	adjustHeat
 312 006a 031C     		mov	r3, r0
 313 006c 181C     		mov	r0, r3
 314 006e 4821     		mov	r1, #72
 315 0070 FFF7FEFF 		bl	respondHeat
 104:.\PSoC_Master_Class.c ****                     break;
 316              		.loc 1 104 0
 317 0074 19E0     		b	.L24
 318              	.L18:
 105:.\PSoC_Master_Class.c ****                 }
 106:.\PSoC_Master_Class.c ****                 case 'K':{ //TurnHeatOff
 107:.\PSoC_Master_Class.c ****                     // 0x0 is the minimum value.
 108:.\PSoC_Master_Class.c ****                     respondHeat(adjustHeat(0x0), 'K');
 319              		.loc 1 108 0
 320 0076 0020     		mov	r0, #0
 321 0078 FFF7FEFF 		bl	adjustHeat
 322 007c 031C     		mov	r3, r0
 323 007e 181C     		mov	r0, r3
 324 0080 4B21     		mov	r1, #75
 325 0082 FFF7FEFF 		bl	respondHeat
 109:.\PSoC_Master_Class.c ****                     break;
 326              		.loc 1 109 0
 327 0086 10E0     		b	.L24
 328              	.L23:
 110:.\PSoC_Master_Class.c ****                 }
 111:.\PSoC_Master_Class.c ****                 case 'W':{ //AdjustWindow
 112:.\PSoC_Master_Class.c ****                     theState = ADJW;
 329              		.loc 1 112 0
 330 0088 5A4B     		ldr	r3, .L39+4
 331 008a 0122     		mov	r2, #1
 332 008c 1A70     		strb	r2, [r3]
 113:.\PSoC_Master_Class.c ****                     break;
 333              		.loc 1 113 0
 334 008e 0CE0     		b	.L24
 335              	.L22:
 114:.\PSoC_Master_Class.c ****                 }
 115:.\PSoC_Master_Class.c ****                 case 'V':{ //Ventilation
 116:.\PSoC_Master_Class.c ****                     theState = ADJV;
 336              		.loc 1 116 0
 337 0090 584B     		ldr	r3, .L39+4
 338 0092 0322     		mov	r2, #3
 339 0094 1A70     		strb	r2, [r3]
 117:.\PSoC_Master_Class.c ****                     break;
ARM GAS  C:\Users\Philip\AppData\Local\Temp\ccDlgZPb.s 			page 9


 340              		.loc 1 117 0
 341 0096 08E0     		b	.L24
 342              	.L16:
 118:.\PSoC_Master_Class.c ****                 }
 119:.\PSoC_Master_Class.c ****                 case 'F':{ //Watering
 120:.\PSoC_Master_Class.c ****                     theState = ADJI;
 343              		.loc 1 120 0
 344 0098 564B     		ldr	r3, .L39+4
 345 009a 0422     		mov	r2, #4
 346 009c 1A70     		strb	r2, [r3]
 121:.\PSoC_Master_Class.c ****                     break;
 347              		.loc 1 121 0
 348 009e 04E0     		b	.L24
 349              	.L20:
 122:.\PSoC_Master_Class.c ****                 }
 123:.\PSoC_Master_Class.c ****                 case 'S':{
 124:.\PSoC_Master_Class.c ****                     theState = RESP_SOIL_HUM;
 350              		.loc 1 124 0
 351 00a0 544B     		ldr	r3, .L39+4
 352 00a2 0522     		mov	r2, #5
 353 00a4 1A70     		strb	r2, [r3]
 125:.\PSoC_Master_Class.c ****                     break;
 354              		.loc 1 125 0
 355 00a6 00E0     		b	.L24
 356              	.L38:
 126:.\PSoC_Master_Class.c ****                 }
 127:.\PSoC_Master_Class.c ****                 default:{
 128:.\PSoC_Master_Class.c ****                     // Do nothing - let the DevKit8000 timeout
 129:.\PSoC_Master_Class.c ****                     break;
 357              		.loc 1 129 0
 358 00a8 C046     		mov	r8, r8
 359              	.L24:
 360 00aa 98E0     		b	.L25
 361              	.L12:
 130:.\PSoC_Master_Class.c ****                 }
 131:.\PSoC_Master_Class.c ****             }
 132:.\PSoC_Master_Class.c ****         }
 133:.\PSoC_Master_Class.c ****         else if(theState == ADJW){
 362              		.loc 1 133 0
 363 00ac 514B     		ldr	r3, .L39+4
 364 00ae 1B78     		ldrb	r3, [r3]
 365 00b0 DBB2     		uxtb	r3, r3
 366 00b2 012B     		cmp	r3, #1
 367 00b4 16D1     		bne	.L26
 134:.\PSoC_Master_Class.c ****             if(buff-CONVERT_TO_ASCII == 1){
 368              		.loc 1 134 0
 369 00b6 504B     		ldr	r3, .L39+8
 370 00b8 1B78     		ldrb	r3, [r3]
 371 00ba 312B     		cmp	r3, #49
 372 00bc 07D1     		bne	.L27
 135:.\PSoC_Master_Class.c ****                 respondWin(adjustWindow(0xFF));
 373              		.loc 1 135 0
 374 00be FF20     		mov	r0, #255
 375 00c0 FFF7FEFF 		bl	adjustWindow
 376 00c4 031C     		mov	r3, r0
 377 00c6 181C     		mov	r0, r3
 378 00c8 FFF7FEFF 		bl	respondWin
ARM GAS  C:\Users\Philip\AppData\Local\Temp\ccDlgZPb.s 			page 10


 379 00cc 06E0     		b	.L28
 380              	.L27:
 136:.\PSoC_Master_Class.c ****             }
 137:.\PSoC_Master_Class.c ****             else{
 138:.\PSoC_Master_Class.c ****                 respondWin(adjustWindow(0x00));
 381              		.loc 1 138 0
 382 00ce 0020     		mov	r0, #0
 383 00d0 FFF7FEFF 		bl	adjustWindow
 384 00d4 031C     		mov	r3, r0
 385 00d6 181C     		mov	r0, r3
 386 00d8 FFF7FEFF 		bl	respondWin
 387              	.L28:
 139:.\PSoC_Master_Class.c ****             }
 140:.\PSoC_Master_Class.c ****             theState = IDLE;
 388              		.loc 1 140 0 discriminator 1
 389 00dc 454B     		ldr	r3, .L39+4
 390 00de 0022     		mov	r2, #0
 391 00e0 1A70     		strb	r2, [r3]
 392 00e2 7CE0     		b	.L25
 393              	.L26:
 141:.\PSoC_Master_Class.c ****         }
 142:.\PSoC_Master_Class.c ****         else if(theState == ADJV){
 394              		.loc 1 142 0
 395 00e4 434B     		ldr	r3, .L39+4
 396 00e6 1B78     		ldrb	r3, [r3]
 397 00e8 DBB2     		uxtb	r3, r3
 398 00ea 032B     		cmp	r3, #3
 399 00ec 16D1     		bne	.L29
 143:.\PSoC_Master_Class.c ****             if(buff-CONVERT_TO_ASCII == 1){
 400              		.loc 1 143 0
 401 00ee 424B     		ldr	r3, .L39+8
 402 00f0 1B78     		ldrb	r3, [r3]
 403 00f2 312B     		cmp	r3, #49
 404 00f4 07D1     		bne	.L30
 144:.\PSoC_Master_Class.c ****                 respondVent(adjustVentilation(0xFF));
 405              		.loc 1 144 0
 406 00f6 FF20     		mov	r0, #255
 407 00f8 FFF7FEFF 		bl	adjustVentilation
 408 00fc 031C     		mov	r3, r0
 409 00fe 181C     		mov	r0, r3
 410 0100 FFF7FEFF 		bl	respondVent
 411 0104 06E0     		b	.L31
 412              	.L30:
 145:.\PSoC_Master_Class.c ****             }
 146:.\PSoC_Master_Class.c ****             else{
 147:.\PSoC_Master_Class.c ****                 respondVent(adjustVentilation(0x00));
 413              		.loc 1 147 0
 414 0106 0020     		mov	r0, #0
 415 0108 FFF7FEFF 		bl	adjustVentilation
 416 010c 031C     		mov	r3, r0
 417 010e 181C     		mov	r0, r3
 418 0110 FFF7FEFF 		bl	respondVent
 419              	.L31:
 148:.\PSoC_Master_Class.c ****             }
 149:.\PSoC_Master_Class.c ****             theState = IDLE;
 420              		.loc 1 149 0 discriminator 2
 421 0114 374B     		ldr	r3, .L39+4
ARM GAS  C:\Users\Philip\AppData\Local\Temp\ccDlgZPb.s 			page 11


 422 0116 0022     		mov	r2, #0
 423 0118 1A70     		strb	r2, [r3]
 424 011a 60E0     		b	.L25
 425              	.L29:
 150:.\PSoC_Master_Class.c ****         }
 151:.\PSoC_Master_Class.c ****         else if(theState == ADJI){
 426              		.loc 1 151 0
 427 011c 354B     		ldr	r3, .L39+4
 428 011e 1B78     		ldrb	r3, [r3]
 429 0120 DBB2     		uxtb	r3, r3
 430 0122 042B     		cmp	r3, #4
 431 0124 3ED1     		bne	.L32
 152:.\PSoC_Master_Class.c ****             if (!irrigationIndex){
 432              		.loc 1 152 0
 433 0126 364B     		ldr	r3, .L39+16
 434 0128 1B78     		ldrb	r3, [r3]
 435 012a DBB2     		uxtb	r3, r3
 436 012c 002B     		cmp	r3, #0
 437 012e 07D1     		bne	.L33
 153:.\PSoC_Master_Class.c ****                 irrigationIndex = buff - CONVERT_TO_ASCII;
 438              		.loc 1 153 0
 439 0130 314B     		ldr	r3, .L39+8
 440 0132 1B78     		ldrb	r3, [r3]
 441 0134 303B     		sub	r3, r3, #48
 442 0136 DBB2     		uxtb	r3, r3
 443 0138 DAB2     		uxtb	r2, r3
 444 013a 314B     		ldr	r3, .L39+16
 445 013c 1A70     		strb	r2, [r3]
 446 013e 4EE0     		b	.L25
 447              	.L33:
 154:.\PSoC_Master_Class.c ****             }
 155:.\PSoC_Master_Class.c ****             else{
 156:.\PSoC_Master_Class.c ****                 if (buff-CONVERT_TO_ASCII == 1){
 448              		.loc 1 156 0
 449 0140 2D4B     		ldr	r3, .L39+8
 450 0142 1B78     		ldrb	r3, [r3]
 451 0144 312B     		cmp	r3, #49
 452 0146 0ED1     		bne	.L35
 157:.\PSoC_Master_Class.c ****                     respondIrri(adjustIrrigation(irrigationIndex - 1, 0xFF));
 453              		.loc 1 157 0
 454 0148 2D4B     		ldr	r3, .L39+16
 455 014a 1B78     		ldrb	r3, [r3]
 456 014c DBB2     		uxtb	r3, r3
 457 014e DBB2     		uxtb	r3, r3
 458 0150 013B     		sub	r3, r3, #1
 459 0152 DBB2     		uxtb	r3, r3
 460 0154 181C     		mov	r0, r3
 461 0156 FF21     		mov	r1, #255
 462 0158 FFF7FEFF 		bl	adjustIrrigation
 463 015c 031C     		mov	r3, r0
 464 015e 181C     		mov	r0, r3
 465 0160 FFF7FEFF 		bl	respondIrri
 466 0164 17E0     		b	.L36
 467              	.L35:
 158:.\PSoC_Master_Class.c ****                 }
 159:.\PSoC_Master_Class.c ****                 else if(buff - CONVERT_TO_ASCII == 0){
 468              		.loc 1 159 0
ARM GAS  C:\Users\Philip\AppData\Local\Temp\ccDlgZPb.s 			page 12


 469 0166 244B     		ldr	r3, .L39+8
 470 0168 1B78     		ldrb	r3, [r3]
 471 016a 302B     		cmp	r3, #48
 472 016c 0ED1     		bne	.L37
 160:.\PSoC_Master_Class.c ****                     respondIrri(adjustIrrigation(irrigationIndex - 1, 0x00));
 473              		.loc 1 160 0
 474 016e 244B     		ldr	r3, .L39+16
 475 0170 1B78     		ldrb	r3, [r3]
 476 0172 DBB2     		uxtb	r3, r3
 477 0174 DBB2     		uxtb	r3, r3
 478 0176 013B     		sub	r3, r3, #1
 479 0178 DBB2     		uxtb	r3, r3
 480 017a 181C     		mov	r0, r3
 481 017c 0021     		mov	r1, #0
 482 017e FFF7FEFF 		bl	adjustIrrigation
 483 0182 031C     		mov	r3, r0
 484 0184 181C     		mov	r0, r3
 485 0186 FFF7FEFF 		bl	respondIrri
 486 018a 04E0     		b	.L36
 487              	.L37:
 161:.\PSoC_Master_Class.c ****                 }
 162:.\PSoC_Master_Class.c ****                 else{
 163:.\PSoC_Master_Class.c ****                     respondIrri(-1); //Bad argument
 488              		.loc 1 163 0
 489 018c 0123     		mov	r3, #1
 490 018e 5B42     		neg	r3, r3
 491 0190 181C     		mov	r0, r3
 492 0192 FFF7FEFF 		bl	respondIrri
 493              	.L36:
 164:.\PSoC_Master_Class.c ****                 }
 165:.\PSoC_Master_Class.c ****                 irrigationIndex = 0;
 494              		.loc 1 165 0
 495 0196 1A4B     		ldr	r3, .L39+16
 496 0198 0022     		mov	r2, #0
 497 019a 1A70     		strb	r2, [r3]
 166:.\PSoC_Master_Class.c ****                 theState = IDLE;
 498              		.loc 1 166 0
 499 019c 154B     		ldr	r3, .L39+4
 500 019e 0022     		mov	r2, #0
 501 01a0 1A70     		strb	r2, [r3]
 502 01a2 1CE0     		b	.L25
 503              	.L32:
 167:.\PSoC_Master_Class.c ****             }
 168:.\PSoC_Master_Class.c ****         }
 169:.\PSoC_Master_Class.c ****         else if(theState == RESP_SOIL_HUM){
 504              		.loc 1 169 0
 505 01a4 134B     		ldr	r3, .L39+4
 506 01a6 1B78     		ldrb	r3, [r3]
 507 01a8 DBB2     		uxtb	r3, r3
 508 01aa 052B     		cmp	r3, #5
 509 01ac 17D1     		bne	.L25
 510              	.LBB2:
 170:.\PSoC_Master_Class.c ****             uint8 temp = buff - CONVERT_TO_ASCII - 1; //incoming number is in ASCII 1-6, DSP works 
 511              		.loc 1 170 0
 512 01ae 124B     		ldr	r3, .L39+8
 513 01b0 1A78     		ldrb	r2, [r3]
 514 01b2 FB1D     		add	r3, r7, #7
ARM GAS  C:\Users\Philip\AppData\Local\Temp\ccDlgZPb.s 			page 13


 515 01b4 313A     		sub	r2, r2, #49
 516 01b6 1A70     		strb	r2, [r3]
 171:.\PSoC_Master_Class.c ****             if (temp <= 5 && temp >= 0){
 517              		.loc 1 171 0
 518 01b8 FB1D     		add	r3, r7, #7
 519 01ba 1B78     		ldrb	r3, [r3]
 520 01bc 052B     		cmp	r3, #5
 521 01be 0ED8     		bhi	.L25
 172:.\PSoC_Master_Class.c ****                 respondSoilHum(temp, getSoilHum_DSP(temp));
 522              		.loc 1 172 0
 523 01c0 FB1D     		add	r3, r7, #7
 524 01c2 1B78     		ldrb	r3, [r3]
 525 01c4 181C     		mov	r0, r3
 526 01c6 FFF7FEFF 		bl	getSoilHum_DSP
 527 01ca 031C     		mov	r3, r0
 528 01cc FA1D     		add	r2, r7, #7
 529 01ce 1278     		ldrb	r2, [r2]
 530 01d0 101C     		mov	r0, r2
 531 01d2 191C     		mov	r1, r3
 532 01d4 FFF7FEFF 		bl	respondSoilHum
 173:.\PSoC_Master_Class.c ****                 theState = IDLE;
 533              		.loc 1 173 0
 534 01d8 064B     		ldr	r3, .L39+4
 535 01da 0022     		mov	r2, #0
 536 01dc 1A70     		strb	r2, [r3]
 537              	.L25:
 538              	.LBE2:
 174:.\PSoC_Master_Class.c ****             }
 175:.\PSoC_Master_Class.c ****         }
 176:.\PSoC_Master_Class.c ****         buff = 0;
 539              		.loc 1 176 0
 540 01de 064B     		ldr	r3, .L39+8
 541 01e0 0022     		mov	r2, #0
 542 01e2 1A70     		strb	r2, [r3]
 177:.\PSoC_Master_Class.c ****         BlueLED_Write(LED_OFF);         // Turn off blue LED
 543              		.loc 1 177 0
 544 01e4 0120     		mov	r0, #1
 545 01e6 FFF7FEFF 		bl	BlueLED_Write
 546              	.L10:
 178:.\PSoC_Master_Class.c ****     }
 179:.\PSoC_Master_Class.c **** }
 547              		.loc 1 179 0
 548 01ea BD46     		mov	sp, r7
 549 01ec 02B0     		add	sp, sp, #8
 550              		@ sp needed
 551 01ee 80BD     		pop	{r7, pc}
 552              	.L40:
 553              		.align	2
 554              	.L39:
 555 01f0 00000000 		.word	uartInt
 556 01f4 00000000 		.word	theState
 557 01f8 00000000 		.word	buff
 558 01fc 00000000 		.word	.L15
 559 0200 00000000 		.word	irrigationIndex
 560              		.cfi_endproc
 561              	.LFE36:
 562              		.size	uartIntHandler, .-uartIntHandler
ARM GAS  C:\Users\Philip\AppData\Local\Temp\ccDlgZPb.s 			page 14


 563              		.section	.text.timerIntHandler,"ax",%progbits
 564              		.align	2
 565              		.global	timerIntHandler
 566              		.code	16
 567              		.thumb_func
 568              		.type	timerIntHandler, %function
 569              	timerIntHandler:
 570              	.LFB37:
 180:.\PSoC_Master_Class.c **** //----------uartIntHandler1----------
 181:.\PSoC_Master_Class.c **** 
 182:.\PSoC_Master_Class.c **** //----------timerIntHandler0----------
 183:.\PSoC_Master_Class.c **** void timerIntHandler(void){
 571              		.loc 1 183 0
 572              		.cfi_startproc
 573 0000 80B5     		push	{r7, lr}
 574              		.cfi_def_cfa_offset 8
 575              		.cfi_offset 7, -8
 576              		.cfi_offset 14, -4
 577 0002 82B0     		sub	sp, sp, #8
 578              		.cfi_def_cfa_offset 16
 579 0004 00AF     		add	r7, sp, #0
 580              		.cfi_def_cfa_register 7
 184:.\PSoC_Master_Class.c ****     if(timerInt){
 581              		.loc 1 184 0
 582 0006 1D4B     		ldr	r3, .L45
 583 0008 1B78     		ldrb	r3, [r3]
 584 000a 002B     		cmp	r3, #0
 585 000c 33D0     		beq	.L41
 185:.\PSoC_Master_Class.c ****         timerInt = 0;           // Reset flag
 586              		.loc 1 185 0
 587 000e 1B4B     		ldr	r3, .L45
 588 0010 0022     		mov	r2, #0
 589 0012 1A70     		strb	r2, [r3]
 186:.\PSoC_Master_Class.c ****         RedLED_Write(LED_ON);   // Turn on red LED
 590              		.loc 1 186 0
 591 0014 0020     		mov	r0, #0
 592 0016 FFF7FEFF 		bl	RedLED_Write
 187:.\PSoC_Master_Class.c ****         
 188:.\PSoC_Master_Class.c ****         // Measure temp and indput to DSP class 
 189:.\PSoC_Master_Class.c ****         getTemp(&tempTemp);
 593              		.loc 1 189 0
 594 001a 194B     		ldr	r3, .L45+4
 595 001c 181C     		mov	r0, r3
 596 001e FFF7FEFF 		bl	getTemp
 190:.\PSoC_Master_Class.c ****         inputTemp(&tempTemp);
 597              		.loc 1 190 0
 598 0022 174B     		ldr	r3, .L45+4
 599 0024 181C     		mov	r0, r3
 600 0026 FFF7FEFF 		bl	inputTemp
 601              	.LBB3:
 191:.\PSoC_Master_Class.c ****         
 192:.\PSoC_Master_Class.c ****         // Measure soilhum and indput to DSP class 
 193:.\PSoC_Master_Class.c ****         {
 194:.\PSoC_Master_Class.c ****             uint8 i;
 195:.\PSoC_Master_Class.c ****             for(i = 0; i<6 ; i++){
 602              		.loc 1 195 0
 603 002a FB1D     		add	r3, r7, #7
ARM GAS  C:\Users\Philip\AppData\Local\Temp\ccDlgZPb.s 			page 15


 604 002c 0022     		mov	r2, #0
 605 002e 1A70     		strb	r2, [r3]
 606 0030 1AE0     		b	.L43
 607              	.L44:
 196:.\PSoC_Master_Class.c ****                 getSoilHum(i, &tempSoilHum[i]);
 608              		.loc 1 196 0 discriminator 2
 609 0032 FB1D     		add	r3, r7, #7
 610 0034 1B78     		ldrb	r3, [r3]
 611 0036 5A00     		lsl	r2, r3, #1
 612 0038 124B     		ldr	r3, .L45+8
 613 003a D318     		add	r3, r2, r3
 614 003c FA1D     		add	r2, r7, #7
 615 003e 1278     		ldrb	r2, [r2]
 616 0040 101C     		mov	r0, r2
 617 0042 191C     		mov	r1, r3
 618 0044 FFF7FEFF 		bl	getSoilHum
 197:.\PSoC_Master_Class.c ****                 inputSoilHum(i, &tempSoilHum[i]);
 619              		.loc 1 197 0 discriminator 2
 620 0048 FB1D     		add	r3, r7, #7
 621 004a 1B78     		ldrb	r3, [r3]
 622 004c 5A00     		lsl	r2, r3, #1
 623 004e 0D4B     		ldr	r3, .L45+8
 624 0050 D318     		add	r3, r2, r3
 625 0052 FA1D     		add	r2, r7, #7
 626 0054 1278     		ldrb	r2, [r2]
 627 0056 101C     		mov	r0, r2
 628 0058 191C     		mov	r1, r3
 629 005a FFF7FEFF 		bl	inputSoilHum
 195:.\PSoC_Master_Class.c ****             for(i = 0; i<6 ; i++){
 630              		.loc 1 195 0 discriminator 2
 631 005e FB1D     		add	r3, r7, #7
 632 0060 1A78     		ldrb	r2, [r3]
 633 0062 FB1D     		add	r3, r7, #7
 634 0064 0132     		add	r2, r2, #1
 635 0066 1A70     		strb	r2, [r3]
 636              	.L43:
 195:.\PSoC_Master_Class.c ****             for(i = 0; i<6 ; i++){
 637              		.loc 1 195 0 is_stmt 0 discriminator 1
 638 0068 FB1D     		add	r3, r7, #7
 639 006a 1B78     		ldrb	r3, [r3]
 640 006c 052B     		cmp	r3, #5
 641 006e E0D9     		bls	.L44
 642              	.LBE3:
 198:.\PSoC_Master_Class.c ****             }
 199:.\PSoC_Master_Class.c ****         }
 200:.\PSoC_Master_Class.c ****         
 201:.\PSoC_Master_Class.c ****         // getLight(&tempLight);                    // This is outdated
 202:.\PSoC_Master_Class.c ****         // inputLight(&tempLight);                  // This is outdated
 203:.\PSoC_Master_Class.c ****         // getTempAndHum(&tempTemp, &tempHum);      // This is outdated
 204:.\PSoC_Master_Class.c ****         // inputHum(&tempHum);                      // This is outdated
 205:.\PSoC_Master_Class.c ****         RedLED_Write(LED_OFF);                      // Turn off red LED    
 643              		.loc 1 205 0 is_stmt 1
 644 0070 0120     		mov	r0, #1
 645 0072 FFF7FEFF 		bl	RedLED_Write
 646              	.L41:
 206:.\PSoC_Master_Class.c ****     }    
 207:.\PSoC_Master_Class.c **** }
ARM GAS  C:\Users\Philip\AppData\Local\Temp\ccDlgZPb.s 			page 16


 647              		.loc 1 207 0
 648 0076 BD46     		mov	sp, r7
 649 0078 02B0     		add	sp, sp, #8
 650              		@ sp needed
 651 007a 80BD     		pop	{r7, pc}
 652              	.L46:
 653              		.align	2
 654              	.L45:
 655 007c 00000000 		.word	timerInt
 656 0080 00000000 		.word	tempTemp
 657 0084 00000000 		.word	tempSoilHum
 658              		.cfi_endproc
 659              	.LFE37:
 660              		.size	timerIntHandler, .-timerIntHandler
 661              		.text
 662              	.Letext0:
 663              		.file 2 ".\\Generated_Source\\PSoC4/cytypes.h"