ARM GAS  C:\Users\Philip\AppData\Local\Temp\cclm4Mr9.s 			page 1


   1              		.cpu cortex-m0
   2              		.fpu softvfp
   3              		.eabi_attribute 20, 1
   4              		.eabi_attribute 21, 1
   5              		.eabi_attribute 23, 3
   6              		.eabi_attribute 24, 1
   7              		.eabi_attribute 25, 1
   8              		.eabi_attribute 26, 1
   9              		.eabi_attribute 30, 6
  10              		.eabi_attribute 34, 0
  11              		.eabi_attribute 18, 4
  12              		.code	16
  13              		.file	"UART_Class.c"
  14              		.text
  15              	.Ltext0:
  16              		.cfi_sections	.debug_frame
  17              		.section	.text.initUART,"ax",%progbits
  18              		.align	2
  19              		.global	initUART
  20              		.code	16
  21              		.thumb_func
  22              		.type	initUART, %function
  23              	initUART:
  24              	.LFB33:
  25              		.file 1 ".\\UART_Class.c"
   1:.\UART_Class.c **** /* ========================================
   2:.\UART_Class.c ****  * 
   3:.\UART_Class.c ****  * AutoGreen - PSoC_Master
   4:.\UART_Class.c ****  * UART_Class.c
   5:.\UART_Class.c ****  * (Description)
   6:.\UART_Class.c ****  * PRJ3 - GRP9
   7:.\UART_Class.c ****  * 2015-04-15
   8:.\UART_Class.c ****  *
   9:.\UART_Class.c ****  * ========================================
  10:.\UART_Class.c **** */
  11:.\UART_Class.c **** 
  12:.\UART_Class.c **** // Include files
  13:.\UART_Class.c **** #include "UART_Class.h"
  14:.\UART_Class.c **** 
  15:.\UART_Class.c **** // Init
  16:.\UART_Class.c **** void initUART(void){
  26              		.loc 1 16 0
  27              		.cfi_startproc
  28 0000 80B5     		push	{r7, lr}
  29              		.cfi_def_cfa_offset 8
  30              		.cfi_offset 7, -8
  31              		.cfi_offset 14, -4
  32 0002 00AF     		add	r7, sp, #0
  33              		.cfi_def_cfa_register 7
  17:.\UART_Class.c ****     UART_Start();                   // Starts UART component
  34              		.loc 1 17 0
  35 0004 FFF7FEFF 		bl	UART_Start
  18:.\UART_Class.c **** }
  36              		.loc 1 18 0
  37 0008 BD46     		mov	sp, r7
  38              		@ sp needed
  39 000a 80BD     		pop	{r7, pc}
ARM GAS  C:\Users\Philip\AppData\Local\Temp\cclm4Mr9.s 			page 2


  40              		.cfi_endproc
  41              	.LFE33:
  42              		.size	initUART, .-initUART
  43              		.section	.text.respondTemp,"ax",%progbits
  44              		.align	2
  45              		.global	respondTemp
  46              		.code	16
  47              		.thumb_func
  48              		.type	respondTemp, %function
  49              	respondTemp:
  50              	.LFB34:
  19:.\UART_Class.c **** 
  20:.\UART_Class.c **** //----------respondTemp0----------
  21:.\UART_Class.c **** int8 respondTemp(uint8 temp){
  51              		.loc 1 21 0
  52              		.cfi_startproc
  53 0000 80B5     		push	{r7, lr}
  54              		.cfi_def_cfa_offset 8
  55              		.cfi_offset 7, -8
  56              		.cfi_offset 14, -4
  57 0002 82B0     		sub	sp, sp, #8
  58              		.cfi_def_cfa_offset 16
  59 0004 00AF     		add	r7, sp, #0
  60              		.cfi_def_cfa_register 7
  61 0006 021C     		mov	r2, r0
  62 0008 FB1D     		add	r3, r7, #7
  63 000a 1A70     		strb	r2, [r3]
  22:.\UART_Class.c ****     if(temp){
  64              		.loc 1 22 0
  65 000c FB1D     		add	r3, r7, #7
  66 000e 1B78     		ldrb	r3, [r3]
  67 0010 002B     		cmp	r3, #0
  68 0012 09D0     		beq	.L3
  23:.\UART_Class.c ****         // If temp is between 1 and 200(both inclusive) "T" and temp is sent to DevKit8000
  24:.\UART_Class.c ****         UART_UartPutChar('T');
  69              		.loc 1 24 0
  70 0014 5420     		mov	r0, #84
  71 0016 FFF7FEFF 		bl	UART_SpiUartWriteTxData
  25:.\UART_Class.c ****         UART_UartPutChar(temp);
  72              		.loc 1 25 0
  73 001a FB1D     		add	r3, r7, #7
  74 001c 1B78     		ldrb	r3, [r3]
  75 001e 181C     		mov	r0, r3
  76 0020 FFF7FEFF 		bl	UART_SpiUartWriteTxData
  26:.\UART_Class.c ****         return 0;
  77              		.loc 1 26 0
  78 0024 0023     		mov	r3, #0
  79 0026 06E0     		b	.L4
  80              	.L3:
  27:.\UART_Class.c ****     }
  28:.\UART_Class.c ****     else{
  29:.\UART_Class.c ****         // If temp isn't between 1 and 200(both inclusive) "XT" is sent to DevKit8000
  30:.\UART_Class.c ****         UART_UartPutChar('X');
  81              		.loc 1 30 0
  82 0028 5820     		mov	r0, #88
  83 002a FFF7FEFF 		bl	UART_SpiUartWriteTxData
  31:.\UART_Class.c ****         UART_UartPutChar('T');
ARM GAS  C:\Users\Philip\AppData\Local\Temp\cclm4Mr9.s 			page 3


  84              		.loc 1 31 0
  85 002e 5420     		mov	r0, #84
  86 0030 FFF7FEFF 		bl	UART_SpiUartWriteTxData
  32:.\UART_Class.c ****         return -1;
  87              		.loc 1 32 0
  88 0034 FF23     		mov	r3, #255
  89              	.L4:
  90 0036 5BB2     		sxtb	r3, r3
  33:.\UART_Class.c ****     }
  34:.\UART_Class.c **** }
  91              		.loc 1 34 0
  92 0038 181C     		mov	r0, r3
  93 003a BD46     		mov	sp, r7
  94 003c 02B0     		add	sp, sp, #8
  95              		@ sp needed
  96 003e 80BD     		pop	{r7, pc}
  97              		.cfi_endproc
  98              	.LFE34:
  99              		.size	respondTemp, .-respondTemp
 100              		.section	.text.respondHum,"ax",%progbits
 101              		.align	2
 102              		.global	respondHum
 103              		.code	16
 104              		.thumb_func
 105              		.type	respondHum, %function
 106              	respondHum:
 107              	.LFB35:
  35:.\UART_Class.c **** //----------respondTemp1----------
  36:.\UART_Class.c **** 
  37:.\UART_Class.c **** int8 respondHum(uint8 hum){
 108              		.loc 1 37 0
 109              		.cfi_startproc
 110 0000 80B5     		push	{r7, lr}
 111              		.cfi_def_cfa_offset 8
 112              		.cfi_offset 7, -8
 113              		.cfi_offset 14, -4
 114 0002 82B0     		sub	sp, sp, #8
 115              		.cfi_def_cfa_offset 16
 116 0004 00AF     		add	r7, sp, #0
 117              		.cfi_def_cfa_register 7
 118 0006 021C     		mov	r2, r0
 119 0008 FB1D     		add	r3, r7, #7
 120 000a 1A70     		strb	r2, [r3]
  38:.\UART_Class.c ****     if(hum){
 121              		.loc 1 38 0
 122 000c FB1D     		add	r3, r7, #7
 123 000e 1B78     		ldrb	r3, [r3]
 124 0010 002B     		cmp	r3, #0
 125 0012 09D0     		beq	.L6
  39:.\UART_Class.c ****         // If hum is between 1 and 100(both inclusive) "A" and hum is sent to DevKit8000
  40:.\UART_Class.c ****         UART_UartPutChar('A');
 126              		.loc 1 40 0
 127 0014 4120     		mov	r0, #65
 128 0016 FFF7FEFF 		bl	UART_SpiUartWriteTxData
  41:.\UART_Class.c ****         UART_UartPutChar(hum);
 129              		.loc 1 41 0
 130 001a FB1D     		add	r3, r7, #7
ARM GAS  C:\Users\Philip\AppData\Local\Temp\cclm4Mr9.s 			page 4


 131 001c 1B78     		ldrb	r3, [r3]
 132 001e 181C     		mov	r0, r3
 133 0020 FFF7FEFF 		bl	UART_SpiUartWriteTxData
  42:.\UART_Class.c ****         return 0;
 134              		.loc 1 42 0
 135 0024 0023     		mov	r3, #0
 136 0026 06E0     		b	.L7
 137              	.L6:
  43:.\UART_Class.c ****     }
  44:.\UART_Class.c ****     else{
  45:.\UART_Class.c ****         // If temp isn't between 1 and 100(both inclusive) "XA" is sent to DevKit8000
  46:.\UART_Class.c ****         UART_UartPutChar('X');
 138              		.loc 1 46 0
 139 0028 5820     		mov	r0, #88
 140 002a FFF7FEFF 		bl	UART_SpiUartWriteTxData
  47:.\UART_Class.c ****         UART_UartPutChar('A');
 141              		.loc 1 47 0
 142 002e 4120     		mov	r0, #65
 143 0030 FFF7FEFF 		bl	UART_SpiUartWriteTxData
  48:.\UART_Class.c ****         return -1;
 144              		.loc 1 48 0
 145 0034 FF23     		mov	r3, #255
 146              	.L7:
 147 0036 5BB2     		sxtb	r3, r3
  49:.\UART_Class.c ****     }
  50:.\UART_Class.c **** }
 148              		.loc 1 50 0
 149 0038 181C     		mov	r0, r3
 150 003a BD46     		mov	sp, r7
 151 003c 02B0     		add	sp, sp, #8
 152              		@ sp needed
 153 003e 80BD     		pop	{r7, pc}
 154              		.cfi_endproc
 155              	.LFE35:
 156              		.size	respondHum, .-respondHum
 157              		.section	.text.respondLight,"ax",%progbits
 158              		.align	2
 159              		.global	respondLight
 160              		.code	16
 161              		.thumb_func
 162              		.type	respondLight, %function
 163              	respondLight:
 164              	.LFB36:
  51:.\UART_Class.c **** 
  52:.\UART_Class.c **** int8 respondLight(uint8 light){
 165              		.loc 1 52 0
 166              		.cfi_startproc
 167 0000 80B5     		push	{r7, lr}
 168              		.cfi_def_cfa_offset 8
 169              		.cfi_offset 7, -8
 170              		.cfi_offset 14, -4
 171 0002 82B0     		sub	sp, sp, #8
 172              		.cfi_def_cfa_offset 16
 173 0004 00AF     		add	r7, sp, #0
 174              		.cfi_def_cfa_register 7
 175 0006 021C     		mov	r2, r0
 176 0008 FB1D     		add	r3, r7, #7
ARM GAS  C:\Users\Philip\AppData\Local\Temp\cclm4Mr9.s 			page 5


 177 000a 1A70     		strb	r2, [r3]
  53:.\UART_Class.c ****     if(light){
 178              		.loc 1 53 0
 179 000c FB1D     		add	r3, r7, #7
 180 000e 1B78     		ldrb	r3, [r3]
 181 0010 002B     		cmp	r3, #0
 182 0012 09D0     		beq	.L9
  54:.\UART_Class.c ****         // If light is between 1 and 100(both inclusive) "L" and light is sent to DevKit8000
  55:.\UART_Class.c ****         UART_UartPutChar('L');
 183              		.loc 1 55 0
 184 0014 4C20     		mov	r0, #76
 185 0016 FFF7FEFF 		bl	UART_SpiUartWriteTxData
  56:.\UART_Class.c ****         UART_UartPutChar(light);
 186              		.loc 1 56 0
 187 001a FB1D     		add	r3, r7, #7
 188 001c 1B78     		ldrb	r3, [r3]
 189 001e 181C     		mov	r0, r3
 190 0020 FFF7FEFF 		bl	UART_SpiUartWriteTxData
  57:.\UART_Class.c ****         return 0;
 191              		.loc 1 57 0
 192 0024 0023     		mov	r3, #0
 193 0026 06E0     		b	.L10
 194              	.L9:
  58:.\UART_Class.c ****     }
  59:.\UART_Class.c ****     else{
  60:.\UART_Class.c ****         // If light isn't between 1 and 100(both inclusive) "XL" is sent to DevKit8000
  61:.\UART_Class.c ****         UART_UartPutChar('X');
 195              		.loc 1 61 0
 196 0028 5820     		mov	r0, #88
 197 002a FFF7FEFF 		bl	UART_SpiUartWriteTxData
  62:.\UART_Class.c ****         UART_UartPutChar('L');
 198              		.loc 1 62 0
 199 002e 4C20     		mov	r0, #76
 200 0030 FFF7FEFF 		bl	UART_SpiUartWriteTxData
  63:.\UART_Class.c ****         return -1;
 201              		.loc 1 63 0
 202 0034 FF23     		mov	r3, #255
 203              	.L10:
 204 0036 5BB2     		sxtb	r3, r3
  64:.\UART_Class.c ****     }
  65:.\UART_Class.c **** }
 205              		.loc 1 65 0
 206 0038 181C     		mov	r0, r3
 207 003a BD46     		mov	sp, r7
 208 003c 02B0     		add	sp, sp, #8
 209              		@ sp needed
 210 003e 80BD     		pop	{r7, pc}
 211              		.cfi_endproc
 212              	.LFE36:
 213              		.size	respondLight, .-respondLight
 214              		.section	.text.respondSoilHum,"ax",%progbits
 215              		.align	2
 216              		.global	respondSoilHum
 217              		.code	16
 218              		.thumb_func
 219              		.type	respondSoilHum, %function
 220              	respondSoilHum:
ARM GAS  C:\Users\Philip\AppData\Local\Temp\cclm4Mr9.s 			page 6


 221              	.LFB37:
  66:.\UART_Class.c **** 
  67:.\UART_Class.c **** int8 respondSoilHum(uint8 index, uint8 soilHum){
 222              		.loc 1 67 0
 223              		.cfi_startproc
 224 0000 80B5     		push	{r7, lr}
 225              		.cfi_def_cfa_offset 8
 226              		.cfi_offset 7, -8
 227              		.cfi_offset 14, -4
 228 0002 82B0     		sub	sp, sp, #8
 229              		.cfi_def_cfa_offset 16
 230 0004 00AF     		add	r7, sp, #0
 231              		.cfi_def_cfa_register 7
 232 0006 0A1C     		mov	r2, r1
 233 0008 FB1D     		add	r3, r7, #7
 234 000a 011C     		add	r1, r0, #0
 235 000c 1970     		strb	r1, [r3]
 236 000e BB1D     		add	r3, r7, #6
 237 0010 1A70     		strb	r2, [r3]
  68:.\UART_Class.c ****     if(soilHum <= 10 && soilHum >= 1){
 238              		.loc 1 68 0
 239 0012 BB1D     		add	r3, r7, #6
 240 0014 1B78     		ldrb	r3, [r3]
 241 0016 0A2B     		cmp	r3, #10
 242 0018 13D8     		bhi	.L12
 243              		.loc 1 68 0 is_stmt 0 discriminator 1
 244 001a BB1D     		add	r3, r7, #6
 245 001c 1B78     		ldrb	r3, [r3]
 246 001e 002B     		cmp	r3, #0
 247 0020 0FD0     		beq	.L12
  69:.\UART_Class.c ****         // If soilHum is between 1 and 10(both inclusive) "S", the index number and soilHum is sent
  70:.\UART_Class.c ****         UART_UartPutChar('S');
 248              		.loc 1 70 0 is_stmt 1
 249 0022 5320     		mov	r0, #83
 250 0024 FFF7FEFF 		bl	UART_SpiUartWriteTxData
  71:.\UART_Class.c ****         UART_UartPutChar(index + 48 + 1); //Conevert to ASCII and convert to 1-6.
 251              		.loc 1 71 0
 252 0028 FB1D     		add	r3, r7, #7
 253 002a 1B78     		ldrb	r3, [r3]
 254 002c 3133     		add	r3, r3, #49
 255 002e 181C     		mov	r0, r3
 256 0030 FFF7FEFF 		bl	UART_SpiUartWriteTxData
  72:.\UART_Class.c ****         UART_UartPutChar(soilHum);
 257              		.loc 1 72 0
 258 0034 BB1D     		add	r3, r7, #6
 259 0036 1B78     		ldrb	r3, [r3]
 260 0038 181C     		mov	r0, r3
 261 003a FFF7FEFF 		bl	UART_SpiUartWriteTxData
  73:.\UART_Class.c ****         return 0;
 262              		.loc 1 73 0
 263 003e 0023     		mov	r3, #0
 264 0040 06E0     		b	.L13
 265              	.L12:
  74:.\UART_Class.c ****     }
  75:.\UART_Class.c ****     else{
  76:.\UART_Class.c ****         // If soilHum isn't between 1 and 10(both inclusive) "XS" is sent to DevKit8000
  77:.\UART_Class.c ****         UART_UartPutChar('X');
ARM GAS  C:\Users\Philip\AppData\Local\Temp\cclm4Mr9.s 			page 7


 266              		.loc 1 77 0
 267 0042 5820     		mov	r0, #88
 268 0044 FFF7FEFF 		bl	UART_SpiUartWriteTxData
  78:.\UART_Class.c ****         UART_UartPutChar('S');
 269              		.loc 1 78 0
 270 0048 5320     		mov	r0, #83
 271 004a FFF7FEFF 		bl	UART_SpiUartWriteTxData
  79:.\UART_Class.c ****         return -1;
 272              		.loc 1 79 0
 273 004e FF23     		mov	r3, #255
 274              	.L13:
 275 0050 5BB2     		sxtb	r3, r3
  80:.\UART_Class.c ****     }
  81:.\UART_Class.c **** }
 276              		.loc 1 81 0
 277 0052 181C     		mov	r0, r3
 278 0054 BD46     		mov	sp, r7
 279 0056 02B0     		add	sp, sp, #8
 280              		@ sp needed
 281 0058 80BD     		pop	{r7, pc}
 282              		.cfi_endproc
 283              	.LFE37:
 284              		.size	respondSoilHum, .-respondSoilHum
 285 005a C046     		.section	.text.respondHeat,"ax",%progbits
 286              		.align	2
 287              		.global	respondHeat
 288              		.code	16
 289              		.thumb_func
 290              		.type	respondHeat, %function
 291              	respondHeat:
 292              	.LFB38:
  82:.\UART_Class.c **** 
  83:.\UART_Class.c **** int8 respondHeat(int8 heatStatus, uint8 onOff){
 293              		.loc 1 83 0
 294              		.cfi_startproc
 295 0000 80B5     		push	{r7, lr}
 296              		.cfi_def_cfa_offset 8
 297              		.cfi_offset 7, -8
 298              		.cfi_offset 14, -4
 299 0002 82B0     		sub	sp, sp, #8
 300              		.cfi_def_cfa_offset 16
 301 0004 00AF     		add	r7, sp, #0
 302              		.cfi_def_cfa_register 7
 303 0006 0A1C     		mov	r2, r1
 304 0008 FB1D     		add	r3, r7, #7
 305 000a 011C     		add	r1, r0, #0
 306 000c 1970     		strb	r1, [r3]
 307 000e BB1D     		add	r3, r7, #6
 308 0010 1A70     		strb	r2, [r3]
  84:.\UART_Class.c ****     if(heatStatus == 0){
 309              		.loc 1 84 0
 310 0012 FB1D     		add	r3, r7, #7
 311 0014 1B78     		ldrb	r3, [r3]
 312 0016 5BB2     		sxtb	r3, r3
 313 0018 002B     		cmp	r3, #0
 314 001a 06D1     		bne	.L15
  85:.\UART_Class.c ****         // If heatStatus is 0 then onOff('H' or 'K') is sent to DevKit8000
ARM GAS  C:\Users\Philip\AppData\Local\Temp\cclm4Mr9.s 			page 8


  86:.\UART_Class.c ****         UART_UartPutChar(onOff);
 315              		.loc 1 86 0
 316 001c BB1D     		add	r3, r7, #6
 317 001e 1B78     		ldrb	r3, [r3]
 318 0020 181C     		mov	r0, r3
 319 0022 FFF7FEFF 		bl	UART_SpiUartWriteTxData
  87:.\UART_Class.c ****         return 0;
 320              		.loc 1 87 0
 321 0026 0023     		mov	r3, #0
 322 0028 08E0     		b	.L16
 323              	.L15:
  88:.\UART_Class.c ****     }
  89:.\UART_Class.c ****     else{
  90:.\UART_Class.c ****         // If heatStatus isn't 0 then 'X' and onOff('H' or 'K') is sent to DevKit8000
  91:.\UART_Class.c ****         UART_UartPutChar('X');
 324              		.loc 1 91 0
 325 002a 5820     		mov	r0, #88
 326 002c FFF7FEFF 		bl	UART_SpiUartWriteTxData
  92:.\UART_Class.c ****         UART_UartPutChar(onOff);
 327              		.loc 1 92 0
 328 0030 BB1D     		add	r3, r7, #6
 329 0032 1B78     		ldrb	r3, [r3]
 330 0034 181C     		mov	r0, r3
 331 0036 FFF7FEFF 		bl	UART_SpiUartWriteTxData
  93:.\UART_Class.c ****         return -1;
 332              		.loc 1 93 0
 333 003a FF23     		mov	r3, #255
 334              	.L16:
 335 003c 5BB2     		sxtb	r3, r3
  94:.\UART_Class.c ****     }
  95:.\UART_Class.c **** }
 336              		.loc 1 95 0
 337 003e 181C     		mov	r0, r3
 338 0040 BD46     		mov	sp, r7
 339 0042 02B0     		add	sp, sp, #8
 340              		@ sp needed
 341 0044 80BD     		pop	{r7, pc}
 342              		.cfi_endproc
 343              	.LFE38:
 344              		.size	respondHeat, .-respondHeat
 345 0046 C046     		.section	.text.respondWin,"ax",%progbits
 346              		.align	2
 347              		.global	respondWin
 348              		.code	16
 349              		.thumb_func
 350              		.type	respondWin, %function
 351              	respondWin:
 352              	.LFB39:
  96:.\UART_Class.c **** 
  97:.\UART_Class.c **** int8 respondWin(int8 winStatus){
 353              		.loc 1 97 0
 354              		.cfi_startproc
 355 0000 80B5     		push	{r7, lr}
 356              		.cfi_def_cfa_offset 8
 357              		.cfi_offset 7, -8
 358              		.cfi_offset 14, -4
 359 0002 82B0     		sub	sp, sp, #8
ARM GAS  C:\Users\Philip\AppData\Local\Temp\cclm4Mr9.s 			page 9


 360              		.cfi_def_cfa_offset 16
 361 0004 00AF     		add	r7, sp, #0
 362              		.cfi_def_cfa_register 7
 363 0006 021C     		mov	r2, r0
 364 0008 FB1D     		add	r3, r7, #7
 365 000a 1A70     		strb	r2, [r3]
  98:.\UART_Class.c ****     if(winStatus == 0){
 366              		.loc 1 98 0
 367 000c FB1D     		add	r3, r7, #7
 368 000e 1B78     		ldrb	r3, [r3]
 369 0010 5BB2     		sxtb	r3, r3
 370 0012 002B     		cmp	r3, #0
 371 0014 04D1     		bne	.L18
  99:.\UART_Class.c ****         // If winStatus is 0 then 'W' is sent to DevKit8000
 100:.\UART_Class.c ****         UART_UartPutChar('W');
 372              		.loc 1 100 0
 373 0016 5720     		mov	r0, #87
 374 0018 FFF7FEFF 		bl	UART_SpiUartWriteTxData
 101:.\UART_Class.c ****         return 0;
 375              		.loc 1 101 0
 376 001c 0023     		mov	r3, #0
 377 001e 06E0     		b	.L19
 378              	.L18:
 102:.\UART_Class.c ****     }
 103:.\UART_Class.c ****     else{
 104:.\UART_Class.c ****         // If heatStatus isn't 0 then "XW" is sent to DevKit8000
 105:.\UART_Class.c ****         UART_UartPutChar('X');
 379              		.loc 1 105 0
 380 0020 5820     		mov	r0, #88
 381 0022 FFF7FEFF 		bl	UART_SpiUartWriteTxData
 106:.\UART_Class.c ****         UART_UartPutChar('W');
 382              		.loc 1 106 0
 383 0026 5720     		mov	r0, #87
 384 0028 FFF7FEFF 		bl	UART_SpiUartWriteTxData
 107:.\UART_Class.c ****         return -1;
 385              		.loc 1 107 0
 386 002c FF23     		mov	r3, #255
 387              	.L19:
 388 002e 5BB2     		sxtb	r3, r3
 108:.\UART_Class.c ****     }
 109:.\UART_Class.c **** }
 389              		.loc 1 109 0
 390 0030 181C     		mov	r0, r3
 391 0032 BD46     		mov	sp, r7
 392 0034 02B0     		add	sp, sp, #8
 393              		@ sp needed
 394 0036 80BD     		pop	{r7, pc}
 395              		.cfi_endproc
 396              	.LFE39:
 397              		.size	respondWin, .-respondWin
 398              		.section	.text.respondVent,"ax",%progbits
 399              		.align	2
 400              		.global	respondVent
 401              		.code	16
 402              		.thumb_func
 403              		.type	respondVent, %function
 404              	respondVent:
ARM GAS  C:\Users\Philip\AppData\Local\Temp\cclm4Mr9.s 			page 10


 405              	.LFB40:
 110:.\UART_Class.c **** 
 111:.\UART_Class.c **** int8 respondVent(int8 ventStatus){
 406              		.loc 1 111 0
 407              		.cfi_startproc
 408 0000 80B5     		push	{r7, lr}
 409              		.cfi_def_cfa_offset 8
 410              		.cfi_offset 7, -8
 411              		.cfi_offset 14, -4
 412 0002 82B0     		sub	sp, sp, #8
 413              		.cfi_def_cfa_offset 16
 414 0004 00AF     		add	r7, sp, #0
 415              		.cfi_def_cfa_register 7
 416 0006 021C     		mov	r2, r0
 417 0008 FB1D     		add	r3, r7, #7
 418 000a 1A70     		strb	r2, [r3]
 112:.\UART_Class.c ****     if(ventStatus == 0){
 419              		.loc 1 112 0
 420 000c FB1D     		add	r3, r7, #7
 421 000e 1B78     		ldrb	r3, [r3]
 422 0010 5BB2     		sxtb	r3, r3
 423 0012 002B     		cmp	r3, #0
 424 0014 04D1     		bne	.L21
 113:.\UART_Class.c ****         // If ventStatus is 0 then 'V' is sent to DevKit8000
 114:.\UART_Class.c ****         UART_UartPutChar('V');
 425              		.loc 1 114 0
 426 0016 5620     		mov	r0, #86
 427 0018 FFF7FEFF 		bl	UART_SpiUartWriteTxData
 115:.\UART_Class.c ****         return 0;
 428              		.loc 1 115 0
 429 001c 0023     		mov	r3, #0
 430 001e 06E0     		b	.L22
 431              	.L21:
 116:.\UART_Class.c ****     }
 117:.\UART_Class.c ****     else{
 118:.\UART_Class.c ****         // If ventStatus isn't 0 then "XV" is sent to DevKit8000
 119:.\UART_Class.c ****         UART_UartPutChar('X');
 432              		.loc 1 119 0
 433 0020 5820     		mov	r0, #88
 434 0022 FFF7FEFF 		bl	UART_SpiUartWriteTxData
 120:.\UART_Class.c ****         UART_UartPutChar('V');
 435              		.loc 1 120 0
 436 0026 5620     		mov	r0, #86
 437 0028 FFF7FEFF 		bl	UART_SpiUartWriteTxData
 121:.\UART_Class.c ****         return -1;
 438              		.loc 1 121 0
 439 002c FF23     		mov	r3, #255
 440              	.L22:
 441 002e 5BB2     		sxtb	r3, r3
 122:.\UART_Class.c ****     }
 123:.\UART_Class.c **** }
 442              		.loc 1 123 0
 443 0030 181C     		mov	r0, r3
 444 0032 BD46     		mov	sp, r7
 445 0034 02B0     		add	sp, sp, #8
 446              		@ sp needed
 447 0036 80BD     		pop	{r7, pc}
ARM GAS  C:\Users\Philip\AppData\Local\Temp\cclm4Mr9.s 			page 11


 448              		.cfi_endproc
 449              	.LFE40:
 450              		.size	respondVent, .-respondVent
 451              		.section	.text.respondIrri,"ax",%progbits
 452              		.align	2
 453              		.global	respondIrri
 454              		.code	16
 455              		.thumb_func
 456              		.type	respondIrri, %function
 457              	respondIrri:
 458              	.LFB41:
 124:.\UART_Class.c **** 
 125:.\UART_Class.c **** int8 respondIrri(int8 irriStatus){
 459              		.loc 1 125 0
 460              		.cfi_startproc
 461 0000 80B5     		push	{r7, lr}
 462              		.cfi_def_cfa_offset 8
 463              		.cfi_offset 7, -8
 464              		.cfi_offset 14, -4
 465 0002 82B0     		sub	sp, sp, #8
 466              		.cfi_def_cfa_offset 16
 467 0004 00AF     		add	r7, sp, #0
 468              		.cfi_def_cfa_register 7
 469 0006 021C     		mov	r2, r0
 470 0008 FB1D     		add	r3, r7, #7
 471 000a 1A70     		strb	r2, [r3]
 126:.\UART_Class.c ****     if(irriStatus == 0){
 472              		.loc 1 126 0
 473 000c FB1D     		add	r3, r7, #7
 474 000e 1B78     		ldrb	r3, [r3]
 475 0010 5BB2     		sxtb	r3, r3
 476 0012 002B     		cmp	r3, #0
 477 0014 04D1     		bne	.L24
 127:.\UART_Class.c ****         // If irriStatus is 0 then 'F' is sent to DevKit8000
 128:.\UART_Class.c ****         UART_UartPutChar('F');
 478              		.loc 1 128 0
 479 0016 4620     		mov	r0, #70
 480 0018 FFF7FEFF 		bl	UART_SpiUartWriteTxData
 129:.\UART_Class.c ****         return 0;
 481              		.loc 1 129 0
 482 001c 0023     		mov	r3, #0
 483 001e 06E0     		b	.L25
 484              	.L24:
 130:.\UART_Class.c ****     }
 131:.\UART_Class.c ****     else{
 132:.\UART_Class.c ****         // If irriStatus isn't 0 then "XF" is sent to DevKit8000
 133:.\UART_Class.c ****         UART_UartPutChar('X');
 485              		.loc 1 133 0
 486 0020 5820     		mov	r0, #88
 487 0022 FFF7FEFF 		bl	UART_SpiUartWriteTxData
 134:.\UART_Class.c ****         UART_UartPutChar('F');
 488              		.loc 1 134 0
 489 0026 4620     		mov	r0, #70
 490 0028 FFF7FEFF 		bl	UART_SpiUartWriteTxData
 135:.\UART_Class.c ****         return -1;
 491              		.loc 1 135 0
 492 002c FF23     		mov	r3, #255
ARM GAS  C:\Users\Philip\AppData\Local\Temp\cclm4Mr9.s 			page 12


 493              	.L25:
 494 002e 5BB2     		sxtb	r3, r3
 136:.\UART_Class.c ****     }
 137:.\UART_Class.c **** }
 495              		.loc 1 137 0
 496 0030 181C     		mov	r0, r3
 497 0032 BD46     		mov	sp, r7
 498 0034 02B0     		add	sp, sp, #8
 499              		@ sp needed
 500 0036 80BD     		pop	{r7, pc}
 501              		.cfi_endproc
 502              	.LFE41:
 503              		.size	respondIrri, .-respondIrri
 504              		.section	.text.dkRequest,"ax",%progbits
 505              		.align	2
 506              		.global	dkRequest
 507              		.code	16
 508              		.thumb_func
 509              		.type	dkRequest, %function
 510              	dkRequest:
 511              	.LFB42:
 138:.\UART_Class.c **** 
 139:.\UART_Class.c **** //----------dkRequest0----------
 140:.\UART_Class.c **** uint8 dkRequest(void){
 512              		.loc 1 140 0
 513              		.cfi_startproc
 514 0000 80B5     		push	{r7, lr}
 515              		.cfi_def_cfa_offset 8
 516              		.cfi_offset 7, -8
 517              		.cfi_offset 14, -4
 518 0002 00AF     		add	r7, sp, #0
 519              		.cfi_def_cfa_register 7
 141:.\UART_Class.c ****     // Reads the UART buffer
 142:.\UART_Class.c ****     return UART_UartGetChar();
 520              		.loc 1 142 0
 521 0004 FFF7FEFF 		bl	UART_UartGetChar
 522 0008 031C     		mov	r3, r0
 523 000a DBB2     		uxtb	r3, r3
 143:.\UART_Class.c **** }
 524              		.loc 1 143 0
 525 000c 181C     		mov	r0, r3
 526 000e BD46     		mov	sp, r7
 527              		@ sp needed
 528 0010 80BD     		pop	{r7, pc}
 529              		.cfi_endproc
 530              	.LFE42:
 531              		.size	dkRequest, .-dkRequest
 532 0012 C046     		.text
 533              	.Letext0:
 534              		.file 2 ".\\Generated_Source\\PSoC4/cytypes.h"